(lp1
(dp2
S'request_slots'
p3
(dp4
sS'diaact'
p5
S'request'
p6
sS'inform_slots'
p7
(dp8
S'origin1'
p9
S'East Jordyn'
p10
sS'flightDate1'
p11
S'2016-11-01T07:41:42.691Z'
p12
sS'travelers'
p13
I1
sS'flightDate2'
p14
S'2017-07-19T06:23:11.886Z'
p15
sS'flexible'
p16
I01
sS'destination1'
p17
S'Mannland'
p18
ssa(dp19
g3
(dp20
sg5
S'request'
p21
sg7
(dp22
g9
S'Devinchester'
p23
sg11
S'2017-05-08T05:45:55.457Z'
p24
sg13
I4
sg14
S'2018-05-30T08:40:01.279Z'
p25
sg16
I01
sg17
S'Lisettehaven'
p26
ssa(dp27
g3
(dp28
sg5
S'request'
p29
sg7
(dp30
g9
S'Loyalhaven'
p31
sg11
S'2016-06-09T00:00:12.712Z'
p32
sg13
I3
sg14
S'2017-08-09T15:28:46.178Z'
p33
sg16
I01
sg17
S'Danielberg'
p34
ssa(dp35
g3
(dp36
sg5
S'request'
p37
sg7
(dp38
g9
S'Hermistonfort'
p39
sg11
S'2016-10-16T12:05:52.248Z'
p40
sg13
I1
sg14
S'2018-03-03T09:31:12.428Z'
p41
sg16
I00
sg17
S'East Clifford'
p42
ssa(dp43
g3
(dp44
sg5
S'request'
p45
sg7
(dp46
g9
S'Alaynaland'
p47
sg11
S'2016-09-09T03:06:49.850Z'
p48
sg13
I2
sg14
S'2017-11-22T03:25:33.508Z'
p49
sg16
I00
sg17
S'Port Santinomouth'
p50
ssa(dp51
g3
(dp52
sg5
S'request'
p53
sg7
(dp54
g9
S'Christytown'
p55
sg11
S'2017-05-23T12:49:00.208Z'
p56
sg13
I1
sg14
S'2018-04-02T02:40:14.225Z'
p57
sg16
I00
sg17
S'West Nelleberg'
p58
ssa(dp59
g3
(dp60
sg5
S'request'
p61
sg7
(dp62
g9
S'Margarettabury'
p63
sg11
S'2017-05-13T14:33:48.958Z'
p64
sg13
I4
sg14
S'2017-07-26T21:00:20.097Z'
p65
sg16
I00
sg17
S'Sydneyville'
p66
ssa(dp67
g3
(dp68
sg5
S'request'
p69
sg7
(dp70
g9
S'West Haylie'
p71
sg11
S'2017-03-14T14:01:01.733Z'
p72
sg13
I1
sg14
S'2018-02-18T02:22:28.482Z'
p73
sg16
I01
sg17
S'Bernhardview'
p74
ssa(dp75
g3
(dp76
sg5
S'request'
p77
sg7
(dp78
g9
S'Huelsberg'
p79
sg11
S'2016-11-22T06:07:42.449Z'
p80
sg13
I1
sg14
S'2018-03-24T22:56:20.410Z'
p81
sg16
I01
sg17
S'Port Ebba'
p82
ssa(dp83
g3
(dp84
sg5
S'request'
p85
sg7
(dp86
g9
S'Ryderview'
p87
sg11
S'2016-07-11T02:34:07.370Z'
p88
sg13
I4
sg14
S'2017-12-22T20:47:55.703Z'
p89
sg16
I01
sg17
S'Champlinfurt'
p90
ssa(dp91
g3
(dp92
sg5
S'request'
p93
sg7
(dp94
g9
S'Ludwigland'
p95
sg11
S'2017-04-15T00:46:18.639Z'
p96
sg13
I1
sg14
S'2017-12-26T01:53:23.309Z'
p97
sg16
I00
sg17
S'North Gene'
p98
ssa(dp99
g3
(dp100
sg5
S'request'
p101
sg7
(dp102
g9
S'Maggiohaven'
p103
sg11
S'2017-02-24T03:08:37.214Z'
p104
sg13
I4
sg14
S'2017-12-30T04:25:24.894Z'
p105
sg16
I01
sg17
S'Dooleyland'
p106
ssa(dp107
g3
(dp108
sg5
S'request'
p109
sg7
(dp110
g9
S'East Nilsfort'
p111
sg11
S'2017-05-11T21:39:04.590Z'
p112
sg13
I4
sg14
S'2017-12-28T08:22:20.772Z'
p113
sg16
I00
sg17
S'Port Amir'
p114
ssa(dp115
g3
(dp116
sg5
S'request'
p117
sg7
(dp118
g9
S'Sheaview'
p119
sg11
S'2017-04-02T02:42:51.137Z'
p120
sg13
I3
sg14
S'2018-01-16T06:41:45.682Z'
p121
sg16
I01
sg17
S'Casimirfurt'
p122
ssa(dp123
g3
(dp124
sg5
S'request'
p125
sg7
(dp126
g9
S'Baileytown'
p127
sg11
S'2016-12-18T04:53:30.498Z'
p128
sg13
I1
sg14
S'2018-02-25T22:14:00.629Z'
p129
sg16
I01
sg17
S'Sipesstad'
p130
ssa(dp131
g3
(dp132
sg5
S'request'
p133
sg7
(dp134
g9
S'Brownville'
p135
sg11
S'2017-04-23T20:56:24.987Z'
p136
sg13
I4
sg14
S'2017-11-26T12:11:32.392Z'
p137
sg16
I00
sg17
S'North Crawford'
p138
ssa(dp139
g3
(dp140
sg5
S'request'
p141
sg7
(dp142
g9
S'Halvorsontown'
p143
sg11
S'2017-05-14T09:57:48.617Z'
p144
sg13
I3
sg14
S'2018-02-24T00:45:10.592Z'
p145
sg16
I01
sg17
S'Ashleyburgh'
p146
ssa(dp147
g3
(dp148
sg5
S'request'
p149
sg7
(dp150
g9
S'Emmerichview'
p151
sg11
S'2016-12-05T21:47:28.433Z'
p152
sg13
I1
sg14
S'2017-11-30T23:53:35.534Z'
p153
sg16
I01
sg17
S'Reichertfurt'
p154
ssa(dp155
g3
(dp156
sg5
S'request'
p157
sg7
(dp158
g9
S'Port Alexieville'
p159
sg11
S'2016-07-25T04:29:40.684Z'
p160
sg13
I2
sg14
S'2018-01-01T12:13:51.798Z'
p161
sg16
I00
sg17
S'Bryanaview'
p162
ssa(dp163
g3
(dp164
sg5
S'request'
p165
sg7
(dp166
g9
S'Kayahaven'
p167
sg11
S'2016-10-21T18:49:31.839Z'
p168
sg13
I1
sg14
S'2018-01-14T02:42:21.606Z'
p169
sg16
I00
sg17
S'Port Roderickburgh'
p170
ssa(dp171
g3
(dp172
sg5
S'request'
p173
sg7
(dp174
g9
S'Gislasontown'
p175
sg11
S'2017-05-24T23:12:58.442Z'
p176
sg13
I3
sg14
S'2017-12-23T06:11:25.631Z'
p177
sg16
I00
sg17
S'Port Violette'
p178
ssa(dp179
g3
(dp180
sg5
S'request'
p181
sg7
(dp182
g9
S'Gutkowskifurt'
p183
sg11
S'2016-09-16T20:10:29.090Z'
p184
sg13
I4
sg14
S'2017-12-31T14:08:37.471Z'
p185
sg16
I01
sg17
S'West Doviebury'
p186
ssa(dp187
g3
(dp188
sg5
S'request'
p189
sg7
(dp190
g9
S'New Jimmy'
p191
sg11
S'2016-08-11T19:16:47.233Z'
p192
sg13
I2
sg14
S'2017-09-02T06:41:59.666Z'
p193
sg16
I01
sg17
S'Reillyburgh'
p194
ssa(dp195
g3
(dp196
sg5
S'request'
p197
sg7
(dp198
g9
S'East Skyeberg'
p199
sg11
S'2017-03-20T05:26:53.639Z'
p200
sg13
I4
sg14
S'2018-02-17T21:36:12.141Z'
p201
sg16
I01
sg17
S'Terryland'
p202
ssa(dp203
g3
(dp204
sg5
S'request'
p205
sg7
(dp206
g9
S'South Stephany'
p207
sg11
S'2017-01-07T18:52:24.085Z'
p208
sg13
I3
sg14
S'2017-12-06T23:20:54.691Z'
p209
sg16
I01
sg17
S'Lake Mervin'
p210
ssa(dp211
g3
(dp212
sg5
S'request'
p213
sg7
(dp214
g9
S'New Aniyahchester'
p215
sg11
S'2017-02-16T22:13:11.388Z'
p216
sg13
I2
sg14
S'2017-09-29T23:50:18.452Z'
p217
sg16
I00
sg17
S'Smithamview'
p218
ssa(dp219
g3
(dp220
sg5
S'request'
p221
sg7
(dp222
g9
S'Emelietown'
p223
sg11
S'2016-09-18T18:22:58.943Z'
p224
sg13
I2
sg14
S'2017-11-21T18:31:43.952Z'
p225
sg16
I00
sg17
S'Port Harleyton'
p226
ssa(dp227
g3
(dp228
sg5
S'request'
p229
sg7
(dp230
g9
S'Bergeview'
p231
sg11
S'2017-01-24T13:00:40.490Z'
p232
sg13
I4
sg14
S'2017-10-18T23:31:17.729Z'
p233
sg16
I00
sg17
S'New Raheem'
p234
ssa(dp235
g3
(dp236
sg5
S'request'
p237
sg7
(dp238
g9
S'East Daren'
p239
sg11
S'2016-10-04T03:56:27.447Z'
p240
sg13
I3
sg14
S'2017-12-02T22:23:46.371Z'
p241
sg16
I01
sg17
S'Bartellborough'
p242
ssa(dp243
g3
(dp244
sg5
S'request'
p245
sg7
(dp246
g9
S'South Geovanymouth'
p247
sg11
S'2016-06-28T04:22:37.680Z'
p248
sg13
I2
sg14
S'2017-11-14T17:15:53.294Z'
p249
sg16
I00
sg17
S'Connerhaven'
p250
ssa(dp251
g3
(dp252
sg5
S'request'
p253
sg7
(dp254
g9
S'Kohlerberg'
p255
sg11
S'2016-09-27T11:13:12.619Z'
p256
sg13
I4
sg14
S'2018-04-09T08:59:41.338Z'
p257
sg16
I00
sg17
S'East Janae'
p258
ssa(dp259
g3
(dp260
sg5
S'request'
p261
sg7
(dp262
g9
S'Meganeport'
p263
sg11
S'2017-03-10T20:59:00.512Z'
p264
sg13
I2
sg14
S'2018-02-13T09:56:06.527Z'
p265
sg16
I00
sg17
S'New Theresafurt'
p266
ssa(dp267
g3
(dp268
sg5
S'request'
p269
sg7
(dp270
g9
S'Reichelport'
p271
sg11
S'2017-04-03T01:12:27.922Z'
p272
sg13
I2
sg14
S'2018-04-16T01:37:25.929Z'
p273
sg16
I01
sg17
S'Valentinfort'
p274
ssa(dp275
g3
(dp276
sg5
S'request'
p277
sg7
(dp278
g9
S'Farrellborough'
p279
sg11
S'2017-03-14T22:16:07.893Z'
p280
sg13
I3
sg14
S'2017-07-29T10:19:18.248Z'
p281
sg16
I01
sg17
S'North Othamouth'
p282
ssa(dp283
g3
(dp284
sg5
S'request'
p285
sg7
(dp286
g9
S'East Wyattchester'
p287
sg11
S'2016-09-02T13:54:09.850Z'
p288
sg13
I4
sg14
S'2017-07-17T04:12:08.924Z'
p289
sg16
I00
sg17
S'Alvenaside'
p290
ssa(dp291
g3
(dp292
sg5
S'request'
p293
sg7
(dp294
g9
S'North Ellenmouth'
p295
sg11
S'2016-07-29T07:16:07.050Z'
p296
sg13
I4
sg14
S'2017-11-03T22:24:33.774Z'
p297
sg16
I01
sg17
S'Janaeside'
p298
ssa(dp299
g3
(dp300
sg5
S'request'
p301
sg7
(dp302
g9
S'East Jaspermouth'
p303
sg11
S'2016-08-21T05:17:25.915Z'
p304
sg13
I4
sg14
S'2018-02-16T19:12:14.350Z'
p305
sg16
I00
sg17
S'Erdmanville'
p306
ssa(dp307
g3
(dp308
sg5
S'request'
p309
sg7
(dp310
g9
S'Lebsackland'
p311
sg11
S'2016-08-05T05:48:39.828Z'
p312
sg13
I1
sg14
S'2018-01-31T21:45:49.246Z'
p313
sg16
I01
sg17
S'East Aletha'
p314
ssa(dp315
g3
(dp316
sg5
S'request'
p317
sg7
(dp318
g9
S'Greysonland'
p319
sg11
S'2016-09-22T07:08:46.443Z'
p320
sg13
I4
sg14
S'2018-04-25T11:44:41.847Z'
p321
sg16
I01
sg17
S'North Josueport'
p322
ssa(dp323
g3
(dp324
sg5
S'request'
p325
sg7
(dp326
g9
S'Adalineview'
p327
sg11
S'2017-03-22T21:18:48.135Z'
p328
sg13
I2
sg14
S'2017-06-25T02:44:45.292Z'
p329
sg16
I01
sg17
S'Marvinfurt'
p330
ssa(dp331
g3
(dp332
sg5
S'request'
p333
sg7
(dp334
g9
S'Port Chadrick'
p335
sg11
S'2016-12-12T02:13:42.081Z'
p336
sg13
I4
sg14
S'2017-07-31T06:05:31.070Z'
p337
sg16
I01
sg17
S'Lake Eddie'
p338
ssa(dp339
g3
(dp340
sg5
S'request'
p341
sg7
(dp342
g9
S'Lake Jayda'
p343
sg11
S'2017-01-15T20:19:39.550Z'
p344
sg13
I2
sg14
S'2017-08-05T04:13:05.082Z'
p345
sg16
I00
sg17
S'Hopeport'
p346
ssa(dp347
g3
(dp348
sg5
S'request'
p349
sg7
(dp350
g9
S'Mayertshire'
p351
sg11
S'2017-02-23T13:27:49.498Z'
p352
sg13
I1
sg14
S'2017-10-06T02:45:41.609Z'
p353
sg16
I00
sg17
S'Wilsonhaven'
p354
ssa(dp355
g3
(dp356
sg5
S'request'
p357
sg7
(dp358
g9
S'Port Theoborough'
p359
sg11
S'2016-10-05T02:21:14.604Z'
p360
sg13
I2
sg14
S'2017-11-01T01:37:38.018Z'
p361
sg16
I00
sg17
S'West Millerport'
p362
ssa(dp363
g3
(dp364
sg5
S'request'
p365
sg7
(dp366
g9
S'South Marianeburgh'
p367
sg11
S'2017-05-19T03:59:48.522Z'
p368
sg13
I2
sg14
S'2017-09-12T22:32:08.450Z'
p369
sg16
I00
sg17
S'Mireyafurt'
p370
ssa(dp371
g3
(dp372
sg5
S'request'
p373
sg7
(dp374
g9
S'New Gus'
p375
sg11
S'2017-02-19T10:32:15.068Z'
p376
sg13
I3
sg14
S'2017-12-24T05:30:21.075Z'
p377
sg16
I00
sg17
S'Ledabury'
p378
ssa(dp379
g3
(dp380
sg5
S'request'
p381
sg7
(dp382
g9
S'West Amayaside'
p383
sg11
S'2016-06-05T23:35:22.240Z'
p384
sg13
I4
sg14
S'2017-12-31T05:03:19.522Z'
p385
sg16
I01
sg17
S'West Carlos'
p386
ssa(dp387
g3
(dp388
sg5
S'request'
p389
sg7
(dp390
g9
S'Donnyshire'
p391
sg11
S'2016-06-27T12:21:49.742Z'
p392
sg13
I4
sg14
S'2018-04-23T22:08:15.110Z'
p393
sg16
I01
sg17
S'West Fernando'
p394
ssa(dp395
g3
(dp396
sg5
S'request'
p397
sg7
(dp398
g9
S'Marilouburgh'
p399
sg11
S'2017-05-14T04:04:01.044Z'
p400
sg13
I1
sg14
S'2018-01-12T06:10:55.239Z'
p401
sg16
I01
sg17
S'Bauchchester'
p402
ssa(dp403
g3
(dp404
sg5
S'request'
p405
sg7
(dp406
g9
S'Greenholthaven'
p407
sg11
S'2016-10-04T20:43:57.482Z'
p408
sg13
I1
sg14
S'2017-11-22T21:26:04.877Z'
p409
sg16
I00
sg17
S'North Nasirborough'
p410
ssa(dp411
g3
(dp412
sg5
S'request'
p413
sg7
(dp414
g9
S'New Natalieberg'
p415
sg11
S'2017-01-06T05:31:33.203Z'
p416
sg13
I1
sg14
S'2017-12-14T05:22:39.015Z'
p417
sg16
I01
sg17
S'Port Alexis'
p418
ssa(dp419
g3
(dp420
sg5
S'request'
p421
sg7
(dp422
g9
S'Port Valeriebury'
p423
sg11
S'2016-07-13T14:01:17.684Z'
p424
sg13
I4
sg14
S'2018-04-22T14:31:53.593Z'
p425
sg16
I01
sg17
S'Ernaside'
p426
ssa(dp427
g3
(dp428
sg5
S'request'
p429
sg7
(dp430
g9
S'Aufderharbury'
p431
sg11
S'2016-10-05T10:16:02.250Z'
p432
sg13
I2
sg14
S'2017-07-31T17:28:17.655Z'
p433
sg16
I01
sg17
S'Port Conradburgh'
p434
ssa(dp435
g3
(dp436
sg5
S'request'
p437
sg7
(dp438
g9
S'Myahville'
p439
sg11
S'2016-06-22T10:24:30.085Z'
p440
sg13
I2
sg14
S'2017-10-05T08:58:44.523Z'
p441
sg16
I00
sg17
S'South Wadeberg'
p442
ssa(dp443
g3
(dp444
sg5
S'request'
p445
sg7
(dp446
g9
S'North Vernice'
p447
sg11
S'2016-09-06T23:27:35.384Z'
p448
sg13
I1
sg14
S'2018-03-29T13:10:29.283Z'
p449
sg16
I00
sg17
S'West Maudie'
p450
ssa(dp451
g3
(dp452
sg5
S'request'
p453
sg7
(dp454
g9
S'Lake Rickie'
p455
sg11
S'2016-11-26T10:30:16.195Z'
p456
sg13
I2
sg14
S'2017-10-25T05:54:21.697Z'
p457
sg16
I01
sg17
S'Sanfordhaven'
p458
ssa(dp459
g3
(dp460
sg5
S'request'
p461
sg7
(dp462
g9
S'Reggieburgh'
p463
sg11
S'2017-03-23T19:52:03.303Z'
p464
sg13
I3
sg14
S'2018-02-10T08:50:27.773Z'
p465
sg16
I01
sg17
S'North Efren'
p466
ssa(dp467
g3
(dp468
sg5
S'request'
p469
sg7
(dp470
g9
S'Considinemouth'
p471
sg11
S'2016-07-04T00:05:20.891Z'
p472
sg13
I1
sg14
S'2017-08-15T00:08:15.039Z'
p473
sg16
I01
sg17
S'South Rod'
p474
ssa(dp475
g3
(dp476
sg5
S'request'
p477
sg7
(dp478
g9
S'Ziemannburgh'
p479
sg11
S'2017-04-01T12:04:36.656Z'
p480
sg13
I4
sg14
S'2018-03-19T07:56:59.122Z'
p481
sg16
I01
sg17
S'East Ferneshire'
p482
ssa(dp483
g3
(dp484
sg5
S'request'
p485
sg7
(dp486
g9
S'Kautzermouth'
p487
sg11
S'2017-01-28T08:52:51.677Z'
p488
sg13
I2
sg14
S'2017-07-28T01:22:17.023Z'
p489
sg16
I00
sg17
S'North Justice'
p490
ssa(dp491
g3
(dp492
sg5
S'request'
p493
sg7
(dp494
g9
S'New Lola'
p495
sg11
S'2016-06-10T13:17:35.273Z'
p496
sg13
I1
sg14
S'2018-03-01T17:56:10.450Z'
p497
sg16
I01
sg17
S'South Araceliview'
p498
ssa(dp499
g3
(dp500
sg5
S'request'
p501
sg7
(dp502
g9
S'North Kenneth'
p503
sg11
S'2016-08-09T02:25:25.713Z'
p504
sg13
I2
sg14
S'2017-07-11T07:48:08.266Z'
p505
sg16
I01
sg17
S'Pascaleshire'
p506
ssa(dp507
g3
(dp508
sg5
S'request'
p509
sg7
(dp510
g9
S'Framibury'
p511
sg11
S'2016-11-07T12:49:32.046Z'
p512
sg13
I4
sg14
S'2018-01-10T12:22:16.408Z'
p513
sg16
I00
sg17
S'Nienowland'
p514
ssa(dp515
g3
(dp516
sg5
S'request'
p517
sg7
(dp518
g9
S'New Theresa'
p519
sg11
S'2017-05-27T04:20:41.220Z'
p520
sg13
I3
sg14
S'2017-10-04T03:10:52.873Z'
p521
sg16
I01
sg17
S'Bruenburgh'
p522
ssa(dp523
g3
(dp524
sg5
S'request'
p525
sg7
(dp526
g9
S'South Anneberg'
p527
sg11
S'2017-02-20T22:41:49.243Z'
p528
sg13
I4
sg14
S'2018-05-04T10:54:33.234Z'
p529
sg16
I00
sg17
S'Zariaport'
p530
ssa(dp531
g3
(dp532
sg5
S'request'
p533
sg7
(dp534
g9
S'New Edmund'
p535
sg11
S'2016-11-02T18:03:55.103Z'
p536
sg13
I4
sg14
S'2018-03-04T23:43:16.036Z'
p537
sg16
I01
sg17
S'Baileyland'
p538
ssa(dp539
g3
(dp540
sg5
S'request'
p541
sg7
(dp542
g9
S'South Dimitrifurt'
p543
sg11
S'2016-06-10T21:40:06.151Z'
p544
sg13
I4
sg14
S'2018-04-01T13:39:37.964Z'
p545
sg16
I01
sg17
S'North Lysannestad'
p546
ssa(dp547
g3
(dp548
sg5
S'request'
p549
sg7
(dp550
g9
S'West Royce'
p551
sg11
S'2017-01-31T11:56:32.833Z'
p552
sg13
I2
sg14
S'2017-06-25T10:59:46.100Z'
p553
sg16
I00
sg17
S'Elainaville'
p554
ssa(dp555
g3
(dp556
sg5
S'request'
p557
sg7
(dp558
g9
S'Margotburgh'
p559
sg11
S'2016-09-06T03:33:57.903Z'
p560
sg13
I2
sg14
S'2017-11-22T11:23:41.297Z'
p561
sg16
I01
sg17
S'North Josefahaven'
p562
ssa(dp563
g3
(dp564
sg5
S'request'
p565
sg7
(dp566
g9
S'Lake Murrayhaven'
p567
sg11
S'2016-12-21T11:25:42.060Z'
p568
sg13
I1
sg14
S'2018-02-15T00:40:46.646Z'
p569
sg16
I01
sg17
S'Hoytchester'
p570
ssa(dp571
g3
(dp572
sg5
S'request'
p573
sg7
(dp574
g9
S'Lake Eleonore'
p575
sg11
S'2016-08-03T15:12:57.489Z'
p576
sg13
I2
sg14
S'2017-08-14T08:15:28.761Z'
p577
sg16
I01
sg17
S'Port Josiane'
p578
ssa(dp579
g3
(dp580
sg5
S'request'
p581
sg7
(dp582
g9
S'Port Levi'
p583
sg11
S'2016-11-28T14:32:17.208Z'
p584
sg13
I3
sg14
S'2017-12-12T22:46:39.624Z'
p585
sg16
I00
sg17
S'East Titus'
p586
ssa(dp587
g3
(dp588
sg5
S'request'
p589
sg7
(dp590
g9
S'Petraland'
p591
sg11
S'2017-04-17T14:40:35.845Z'
p592
sg13
I1
sg14
S'2018-05-01T18:32:35.936Z'
p593
sg16
I01
sg17
S'Port Jaylin'
p594
ssa(dp595
g3
(dp596
sg5
S'request'
p597
sg7
(dp598
g9
S'New Jarrodborough'
p599
sg11
S'2016-10-14T20:43:37.688Z'
p600
sg13
I2
sg14
S'2017-09-22T02:50:22.190Z'
p601
sg16
I01
sg17
S'West Eden'
p602
ssa(dp603
g3
(dp604
sg5
S'request'
p605
sg7
(dp606
g9
S'New Joseph'
p607
sg11
S'2016-08-11T17:54:02.929Z'
p608
sg13
I2
sg14
S'2017-09-26T18:27:22.675Z'
p609
sg16
I01
sg17
S'Davisberg'
p610
ssa(dp611
g3
(dp612
sg5
S'request'
p613
sg7
(dp614
g9
S'Wehnerville'
p615
sg11
S'2017-03-25T07:16:18.093Z'
p616
sg13
I4
sg14
S'2017-12-07T03:50:19.005Z'
p617
sg16
I01
sg17
S'Watersmouth'
p618
ssa(dp619
g3
(dp620
sg5
S'request'
p621
sg7
(dp622
g9
S'Powlowskichester'
p623
sg11
S'2016-07-28T10:39:57.248Z'
p624
sg13
I3
sg14
S'2018-04-29T00:55:42.612Z'
p625
sg16
I01
sg17
S'New Karl'
p626
ssa(dp627
g3
(dp628
sg5
S'request'
p629
sg7
(dp630
g9
S'South Furman'
p631
sg11
S'2016-06-13T19:39:02.318Z'
p632
sg13
I2
sg14
S'2018-01-11T20:34:08.677Z'
p633
sg16
I01
sg17
S'New Briellefort'
p634
ssa(dp635
g3
(dp636
sg5
S'request'
p637
sg7
(dp638
g9
S'Meganechester'
p639
sg11
S'2017-02-25T13:21:59.237Z'
p640
sg13
I3
sg14
S'2018-03-10T19:56:22.786Z'
p641
sg16
I00
sg17
S'West Margret'
p642
ssa(dp643
g3
(dp644
sg5
S'request'
p645
sg7
(dp646
g9
S'East Jeraldburgh'
p647
sg11
S'2016-08-08T20:23:43.145Z'
p648
sg13
I2
sg14
S'2017-06-16T21:55:17.055Z'
p649
sg16
I00
sg17
S'New Giuseppe'
p650
ssa(dp651
g3
(dp652
sg5
S'request'
p653
sg7
(dp654
g9
S'Pacochaton'
p655
sg11
S'2016-07-21T12:22:29.821Z'
p656
sg13
I4
sg14
S'2018-05-11T23:04:14.288Z'
p657
sg16
I00
sg17
S'Johnsfurt'
p658
ssa(dp659
g3
(dp660
sg5
S'request'
p661
sg7
(dp662
g9
S'West Trevaport'
p663
sg11
S'2016-10-17T14:47:29.886Z'
p664
sg13
I2
sg14
S'2017-06-18T06:06:58.234Z'
p665
sg16
I01
sg17
S'Toymouth'
p666
ssa(dp667
g3
(dp668
sg5
S'request'
p669
sg7
(dp670
g9
S'Jaydeport'
p671
sg11
S'2016-08-20T01:24:09.439Z'
p672
sg13
I2
sg14
S'2018-05-05T13:18:36.789Z'
p673
sg16
I01
sg17
S'Kaylimouth'
p674
ssa(dp675
g3
(dp676
sg5
S'request'
p677
sg7
(dp678
g9
S'Ratkehaven'
p679
sg11
S'2016-09-21T02:12:28.138Z'
p680
sg13
I3
sg14
S'2017-12-13T11:52:25.218Z'
p681
sg16
I00
sg17
S'Lake Elta'
p682
ssa(dp683
g3
(dp684
sg5
S'request'
p685
sg7
(dp686
g9
S'West Blaise'
p687
sg11
S'2017-01-24T10:31:23.059Z'
p688
sg13
I2
sg14
S'2018-05-11T10:46:48.306Z'
p689
sg16
I00
sg17
S'Larsonport'
p690
ssa(dp691
g3
(dp692
sg5
S'request'
p693
sg7
(dp694
g9
S'New Thomaschester'
p695
sg11
S'2017-04-17T00:29:08.110Z'
p696
sg13
I3
sg14
S'2017-06-22T19:39:49.582Z'
p697
sg16
I00
sg17
S'Conroyfort'
p698
ssa(dp699
g3
(dp700
sg5
S'request'
p701
sg7
(dp702
g9
S'South Mathiasview'
p703
sg11
S'2016-12-17T15:41:20.786Z'
p704
sg13
I1
sg14
S'2018-04-30T06:49:02.088Z'
p705
sg16
I00
sg17
S'Garrisonhaven'
p706
ssa(dp707
g3
(dp708
sg5
S'request'
p709
sg7
(dp710
g9
S'Smithamville'
p711
sg11
S'2017-02-26T13:57:16.616Z'
p712
sg13
I1
sg14
S'2018-04-02T11:00:03.280Z'
p713
sg16
I00
sg17
S'Doviehaven'
p714
ssa(dp715
g3
(dp716
sg5
S'request'
p717
sg7
(dp718
g9
S'Murphymouth'
p719
sg11
S'2016-12-02T22:09:13.201Z'
p720
sg13
I2
sg14
S'2017-12-26T03:36:05.818Z'
p721
sg16
I00
sg17
S'Kamrynmouth'
p722
ssa(dp723
g3
(dp724
sg5
S'request'
p725
sg7
(dp726
g9
S'Keyshawnburgh'
p727
sg11
S'2016-12-24T22:35:11.817Z'
p728
sg13
I3
sg14
S'2017-07-16T06:26:08.265Z'
p729
sg16
I01
sg17
S'Zemlakport'
p730
ssa(dp731
g3
(dp732
sg5
S'request'
p733
sg7
(dp734
g9
S'Tracetown'
p735
sg11
S'2017-06-02T20:30:03.375Z'
p736
sg13
I3
sg14
S'2017-06-06T17:27:24.785Z'
p737
sg16
I00
sg17
S'Lake Muhammad'
p738
ssa(dp739
g3
(dp740
sg5
S'request'
p741
sg7
(dp742
g9
S'Lake Geovanny'
p743
sg11
S'2017-01-27T05:12:44.609Z'
p744
sg13
I3
sg14
S'2018-05-19T07:06:44.180Z'
p745
sg16
I00
sg17
S'South Camdenview'
p746
ssa(dp747
g3
(dp748
sg5
S'request'
p749
sg7
(dp750
g9
S'East Isabella'
p751
sg11
S'2016-12-14T21:44:55.570Z'
p752
sg13
I2
sg14
S'2018-02-03T00:01:12.863Z'
p753
sg16
I00
sg17
S'West Gavin'
p754
ssa(dp755
g3
(dp756
sg5
S'request'
p757
sg7
(dp758
g9
S'Osvaldoview'
p759
sg11
S'2017-02-19T18:21:25.465Z'
p760
sg13
I3
sg14
S'2017-12-31T20:37:18.300Z'
p761
sg16
I00
sg17
S'East Jeramyfort'
p762
ssa(dp763
g3
(dp764
sg5
S'request'
p765
sg7
(dp766
g9
S'West Carolinemouth'
p767
sg11
S'2017-04-04T13:57:43.600Z'
p768
sg13
I2
sg14
S'2018-01-06T14:12:17.066Z'
p769
sg16
I00
sg17
S'Madelynnmouth'
p770
ssa(dp771
g3
(dp772
sg5
S'request'
p773
sg7
(dp774
g9
S'Seamusburgh'
p775
sg11
S'2017-03-20T01:11:58.537Z'
p776
sg13
I3
sg14
S'2018-03-10T17:27:40.083Z'
p777
sg16
I00
sg17
S'North Santiagoberg'
p778
ssa(dp779
g3
(dp780
sg5
S'request'
p781
sg7
(dp782
g9
S'Lenoreshire'
p783
sg11
S'2016-06-26T09:25:39.299Z'
p784
sg13
I3
sg14
S'2017-12-31T06:57:23.780Z'
p785
sg16
I00
sg17
S'Lake Camrenmouth'
p786
ssa(dp787
g3
(dp788
sg5
S'request'
p789
sg7
(dp790
g9
S'Port Ruthieport'
p791
sg11
S'2016-09-26T14:30:15.078Z'
p792
sg13
I4
sg14
S'2017-12-15T01:25:57.475Z'
p793
sg16
I01
sg17
S'Port Stanley'
p794
ssa(dp795
g3
(dp796
sg5
S'request'
p797
sg7
(dp798
g9
S'Port Jordon'
p799
sg11
S'2016-09-07T04:41:52.833Z'
p800
sg13
I1
sg14
S'2018-02-19T22:46:27.838Z'
p801
sg16
I00
sg17
S'New Karlimouth'
p802
ssa(dp803
g3
(dp804
sg5
S'request'
p805
sg7
(dp806
g9
S'North Garfield'
p807
sg11
S'2016-12-02T08:23:53.225Z'
p808
sg13
I3
sg14
S'2017-09-16T08:27:32.861Z'
p809
sg16
I01
sg17
S'New Rosemarieshire'
p810
ssa.
