(lp1
(dp2
S'request_slots'
p3
(dp4
sS'diaact'
p5
S'request'
p6
sS'inform_slots'
p7
(dp8
S'flightDate1'
p9
S'2'
sS'travelers'
p10
S'4'
sS'flightDate2'
p11
S'3'
sS'origin1'
p12
S'MUC'
p13
sS'destination1'
p14
S'MCO'
p15
ssa(dp16
g3
(dp17
sg5
S'request'
p18
sg7
(dp19
g9
S'0'
sg10
S'4'
sg11
S'6'
sg12
S'BOM'
p20
sg14
S'LGW'
p21
ssa(dp22
g3
(dp23
sg5
S'request'
p24
sg7
(dp25
g9
S'2'
sg10
S'3'
sg11
S'4'
sg12
S'FCO'
p26
sg14
S'SHA'
p27
ssa(dp28
g3
(dp29
sg5
S'request'
p30
sg7
(dp31
g9
S'1'
sg10
S'4'
sg11
S'4'
sg12
S'CTU'
p32
sg14
S'LGW'
p33
ssa(dp34
g3
(dp35
sg5
S'request'
p36
sg7
(dp37
g9
S'2'
sg10
S'4'
sg11
S'4'
sg12
S'MUC'
p38
sg14
S'BCN'
p39
ssa(dp40
g3
(dp41
sg5
S'request'
p42
sg7
(dp43
g9
S'0'
sg10
S'4'
sg11
S'4'
sg12
S'BOM'
p44
sg14
S'GRU'
p45
ssa(dp46
g3
(dp47
sg5
S'request'
p48
sg7
(dp49
g9
S'1'
sg10
S'3'
sg11
S'4'
sg12
S'YYZ'
p50
sg14
S'SYD'
p51
ssa(dp52
g3
(dp53
sg5
S'request'
p54
sg7
(dp55
g9
S'1'
sg10
S'4'
sg11
S'3'
sg12
S'FCO'
p56
sg14
S'MCO'
p57
ssa(dp58
g3
(dp59
sg5
S'request'
p60
sg7
(dp61
g9
S'0'
sg10
S'1'
sg11
S'3'
sg12
S'SEA'
p62
sg14
S'GRU'
p63
ssa(dp64
g3
(dp65
sg5
S'request'
p66
sg7
(dp67
g9
S'0'
sg10
S'2'
sg11
S'3'
sg12
S'FCO'
p68
sg14
S'MCO'
p69
ssa(dp70
g3
(dp71
sg5
S'request'
p72
sg7
(dp73
g9
S'2'
sg10
S'2'
sg11
S'4'
sg12
S'BOM'
p74
sg14
S'LGW'
p75
ssa(dp76
g3
(dp77
sg5
S'request'
p78
sg7
(dp79
g9
S'0'
sg10
S'4'
sg11
S'4'
sg12
S'MUC'
p80
sg14
S'GRU'
p81
ssa(dp82
g3
(dp83
sg5
S'request'
p84
sg7
(dp85
g9
S'0'
sg10
S'3'
sg11
S'4'
sg12
S'SEA'
p86
sg14
S'SZX'
p87
ssa(dp88
g3
(dp89
sg5
S'request'
p90
sg7
(dp91
g9
S'0'
sg10
S'3'
sg11
S'6'
sg12
S'MUC'
p92
sg14
S'GRU'
p93
ssa(dp94
g3
(dp95
sg5
S'request'
p96
sg7
(dp97
g9
S'1'
sg10
S'1'
sg11
S'6'
sg12
S'BOM'
p98
sg14
S'SZX'
p99
ssa(dp100
g3
(dp101
sg5
S'request'
p102
sg7
(dp103
g9
S'2'
sg10
S'1'
sg11
S'6'
sg12
S'BOM'
p104
sg14
S'BCN'
p105
ssa(dp106
g3
(dp107
sg5
S'request'
p108
sg7
(dp109
g9
S'0'
sg10
S'3'
sg11
S'4'
sg12
S'FCO'
p110
sg14
S'BCN'
p111
ssa(dp112
g3
(dp113
sg5
S'request'
p114
sg7
(dp115
g9
S'0'
sg10
S'1'
sg11
S'3'
sg12
S'MUC'
p116
sg14
S'SZX'
p117
ssa(dp118
g3
(dp119
sg5
S'request'
p120
sg7
(dp121
g9
S'0'
sg10
S'1'
sg11
S'6'
sg12
S'FCO'
p122
sg14
S'SYD'
p123
ssa(dp124
g3
(dp125
sg5
S'request'
p126
sg7
(dp127
g9
S'0'
sg10
S'2'
sg11
S'6'
sg12
S'MUC'
p128
sg14
S'SZX'
p129
ssa(dp130
g3
(dp131
sg5
S'request'
p132
sg7
(dp133
g9
S'0'
sg10
S'2'
sg11
S'3'
sg12
S'YYZ'
p134
sg14
S'SZX'
p135
ssa(dp136
g3
(dp137
sg5
S'request'
p138
sg7
(dp139
g9
S'1'
sg10
S'2'
sg11
S'5'
sg12
S'YYZ'
p140
sg14
S'MCO'
p141
ssa(dp142
g3
(dp143
sg5
S'request'
p144
sg7
(dp145
g9
S'0'
sg10
S'3'
sg11
S'4'
sg12
S'FCO'
p146
sg14
S'SHA'
p147
ssa(dp148
g3
(dp149
sg5
S'request'
p150
sg7
(dp151
g9
S'1'
sg10
S'2'
sg11
S'3'
sg12
S'SEA'
p152
sg14
S'SYD'
p153
ssa(dp154
g3
(dp155
sg5
S'request'
p156
sg7
(dp157
g9
S'2'
sg10
S'2'
sg11
S'6'
sg12
S'SEA'
p158
sg14
S'SHA'
p159
ssa(dp160
g3
(dp161
sg5
S'request'
p162
sg7
(dp163
g9
S'1'
sg10
S'3'
sg11
S'3'
sg12
S'YYZ'
p164
sg14
S'BCN'
p165
ssa(dp166
g3
(dp167
sg5
S'request'
p168
sg7
(dp169
g9
S'1'
sg10
S'3'
sg11
S'5'
sg12
S'MUC'
p170
sg14
S'SHA'
p171
ssa(dp172
g3
(dp173
sg5
S'request'
p174
sg7
(dp175
g9
S'1'
sg10
S'1'
sg11
S'5'
sg12
S'YYZ'
p176
sg14
S'SYD'
p177
ssa(dp178
g3
(dp179
sg5
S'request'
p180
sg7
(dp181
g9
S'2'
sg10
S'4'
sg11
S'3'
sg12
S'YYZ'
p182
sg14
S'SYD'
p183
ssa(dp184
g3
(dp185
sg5
S'request'
p186
sg7
(dp187
g9
S'0'
sg10
S'4'
sg11
S'4'
sg12
S'CTU'
p188
sg14
S'MCO'
p189
ssa(dp190
g3
(dp191
sg5
S'request'
p192
sg7
(dp193
g9
S'1'
sg10
S'3'
sg11
S'6'
sg12
S'MUC'
p194
sg14
S'SHA'
p195
ssa(dp196
g3
(dp197
sg5
S'request'
p198
sg7
(dp199
g9
S'2'
sg10
S'4'
sg11
S'3'
sg12
S'BOM'
p200
sg14
S'GRU'
p201
ssa(dp202
g3
(dp203
sg5
S'request'
p204
sg7
(dp205
g9
S'1'
sg10
S'1'
sg11
S'5'
sg12
S'SEA'
p206
sg14
S'SHA'
p207
ssa(dp208
g3
(dp209
sg5
S'request'
p210
sg7
(dp211
g9
S'2'
sg10
S'1'
sg11
S'6'
sg12
S'YYZ'
p212
sg14
S'GRU'
p213
ssa(dp214
g3
(dp215
sg5
S'request'
p216
sg7
(dp217
g9
S'1'
sg10
S'2'
sg11
S'6'
sg12
S'MUC'
p218
sg14
S'SZX'
p219
ssa(dp220
g3
(dp221
sg5
S'request'
p222
sg7
(dp223
g9
S'0'
sg10
S'3'
sg11
S'5'
sg12
S'MUC'
p224
sg14
S'SYD'
p225
ssa(dp226
g3
(dp227
sg5
S'request'
p228
sg7
(dp229
g9
S'1'
sg10
S'1'
sg11
S'4'
sg12
S'FCO'
p230
sg14
S'MCO'
p231
ssa(dp232
g3
(dp233
sg5
S'request'
p234
sg7
(dp235
g9
S'2'
sg10
S'1'
sg11
S'4'
sg12
S'MUC'
p236
sg14
S'SYD'
p237
ssa(dp238
g3
(dp239
sg5
S'request'
p240
sg7
(dp241
g9
S'0'
sg10
S'2'
sg11
S'6'
sg12
S'BOM'
p242
sg14
S'SYD'
p243
ssa(dp244
g3
(dp245
sg5
S'request'
p246
sg7
(dp247
g9
S'1'
sg10
S'4'
sg11
S'3'
sg12
S'MUC'
p248
sg14
S'LGW'
p249
ssa(dp250
g3
(dp251
sg5
S'request'
p252
sg7
(dp253
g9
S'0'
sg10
S'1'
sg11
S'6'
sg12
S'CTU'
p254
sg14
S'GRU'
p255
ssa(dp256
g3
(dp257
sg5
S'request'
p258
sg7
(dp259
g9
S'1'
sg10
S'3'
sg11
S'4'
sg12
S'BOM'
p260
sg14
S'LGW'
p261
ssa(dp262
g3
(dp263
sg5
S'request'
p264
sg7
(dp265
g9
S'2'
sg10
S'3'
sg11
S'4'
sg12
S'BOM'
p266
sg14
S'SYD'
p267
ssa(dp268
g3
(dp269
sg5
S'request'
p270
sg7
(dp271
g9
S'2'
sg10
S'4'
sg11
S'5'
sg12
S'SEA'
p272
sg14
S'SHA'
p273
ssa(dp274
g3
(dp275
sg5
S'request'
p276
sg7
(dp277
g9
S'1'
sg10
S'1'
sg11
S'3'
sg12
S'FCO'
p278
sg14
S'SHA'
p279
ssa(dp280
g3
(dp281
sg5
S'request'
p282
sg7
(dp283
g9
S'0'
sg10
S'3'
sg11
S'6'
sg12
S'MUC'
p284
sg14
S'GRU'
p285
ssa(dp286
g3
(dp287
sg5
S'request'
p288
sg7
(dp289
g9
S'2'
sg10
S'3'
sg11
S'6'
sg12
S'SEA'
p290
sg14
S'SHA'
p291
ssa(dp292
g3
(dp293
sg5
S'request'
p294
sg7
(dp295
g9
S'2'
sg10
S'4'
sg11
S'6'
sg12
S'CTU'
p296
sg14
S'BCN'
p297
ssa(dp298
g3
(dp299
sg5
S'request'
p300
sg7
(dp301
g9
S'0'
sg10
S'4'
sg11
S'4'
sg12
S'BOM'
p302
sg14
S'BCN'
p303
ssa(dp304
g3
(dp305
sg5
S'request'
p306
sg7
(dp307
g9
S'0'
sg10
S'2'
sg11
S'3'
sg12
S'CTU'
p308
sg14
S'MCO'
p309
ssa(dp310
g3
(dp311
sg5
S'request'
p312
sg7
(dp313
g9
S'2'
sg10
S'3'
sg11
S'4'
sg12
S'YYZ'
p314
sg14
S'LGW'
p315
ssa(dp316
g3
(dp317
sg5
S'request'
p318
sg7
(dp319
g9
S'2'
sg10
S'1'
sg11
S'4'
sg12
S'BOM'
p320
sg14
S'LGW'
p321
ssa(dp322
g3
(dp323
sg5
S'request'
p324
sg7
(dp325
g9
S'2'
sg10
S'1'
sg11
S'3'
sg12
S'BOM'
p326
sg14
S'SZX'
p327
ssa(dp328
g3
(dp329
sg5
S'request'
p330
sg7
(dp331
g9
S'2'
sg10
S'2'
sg11
S'6'
sg12
S'MUC'
p332
sg14
S'BCN'
p333
ssa(dp334
g3
(dp335
sg5
S'request'
p336
sg7
(dp337
g9
S'0'
sg10
S'3'
sg11
S'6'
sg12
S'FCO'
p338
sg14
S'LGW'
p339
ssa(dp340
g3
(dp341
sg5
S'request'
p342
sg7
(dp343
g9
S'0'
sg10
S'4'
sg11
S'6'
sg12
S'CTU'
p344
sg14
S'SZX'
p345
ssa(dp346
g3
(dp347
sg5
S'request'
p348
sg7
(dp349
g9
S'1'
sg10
S'1'
sg11
S'3'
sg12
S'SEA'
p350
sg14
S'GRU'
p351
ssa(dp352
g3
(dp353
sg5
S'request'
p354
sg7
(dp355
g9
S'0'
sg10
S'4'
sg11
S'5'
sg12
S'YYZ'
p356
sg14
S'BCN'
p357
ssa(dp358
g3
(dp359
sg5
S'request'
p360
sg7
(dp361
g9
S'2'
sg10
S'3'
sg11
S'5'
sg12
S'SEA'
p362
sg14
S'LGW'
p363
ssa(dp364
g3
(dp365
sg5
S'request'
p366
sg7
(dp367
g9
S'1'
sg10
S'1'
sg11
S'5'
sg12
S'MUC'
p368
sg14
S'MCO'
p369
ssa(dp370
g3
(dp371
sg5
S'request'
p372
sg7
(dp373
g9
S'1'
sg10
S'2'
sg11
S'4'
sg12
S'FCO'
p374
sg14
S'GRU'
p375
ssa(dp376
g3
(dp377
sg5
S'request'
p378
sg7
(dp379
g9
S'1'
sg10
S'3'
sg11
S'6'
sg12
S'SEA'
p380
sg14
S'BCN'
p381
ssa(dp382
g3
(dp383
sg5
S'request'
p384
sg7
(dp385
g9
S'2'
sg10
S'3'
sg11
S'3'
sg12
S'BOM'
p386
sg14
S'BCN'
p387
ssa(dp388
g3
(dp389
sg5
S'request'
p390
sg7
(dp391
g9
S'2'
sg10
S'3'
sg11
S'5'
sg12
S'MUC'
p392
sg14
S'GRU'
p393
ssa(dp394
g3
(dp395
sg5
S'request'
p396
sg7
(dp397
g9
S'1'
sg10
S'1'
sg11
S'4'
sg12
S'MUC'
p398
sg14
S'GRU'
p399
ssa(dp400
g3
(dp401
sg5
S'request'
p402
sg7
(dp403
g9
S'0'
sg10
S'2'
sg11
S'4'
sg12
S'YYZ'
p404
sg14
S'SZX'
p405
ssa(dp406
g3
(dp407
sg5
S'request'
p408
sg7
(dp409
g9
S'2'
sg10
S'3'
sg11
S'6'
sg12
S'CTU'
p410
sg14
S'BCN'
p411
ssa(dp412
g3
(dp413
sg5
S'request'
p414
sg7
(dp415
g9
S'0'
sg10
S'3'
sg11
S'4'
sg12
S'FCO'
p416
sg14
S'SHA'
p417
ssa(dp418
g3
(dp419
sg5
S'request'
p420
sg7
(dp421
g9
S'2'
sg10
S'4'
sg11
S'3'
sg12
S'FCO'
p422
sg14
S'SZX'
p423
ssa(dp424
g3
(dp425
sg5
S'request'
p426
sg7
(dp427
g9
S'1'
sg10
S'1'
sg11
S'4'
sg12
S'CTU'
p428
sg14
S'SZX'
p429
ssa(dp430
g3
(dp431
sg5
S'request'
p432
sg7
(dp433
g9
S'2'
sg10
S'4'
sg11
S'5'
sg12
S'BOM'
p434
sg14
S'SYD'
p435
ssa(dp436
g3
(dp437
sg5
S'request'
p438
sg7
(dp439
g9
S'1'
sg10
S'3'
sg11
S'5'
sg12
S'BOM'
p440
sg14
S'GRU'
p441
ssa(dp442
g3
(dp443
sg5
S'request'
p444
sg7
(dp445
g9
S'1'
sg10
S'1'
sg11
S'4'
sg12
S'YYZ'
p446
sg14
S'LGW'
p447
ssa(dp448
g3
(dp449
sg5
S'request'
p450
sg7
(dp451
g9
S'0'
sg10
S'1'
sg11
S'6'
sg12
S'FCO'
p452
sg14
S'SHA'
p453
ssa(dp454
g3
(dp455
sg5
S'request'
p456
sg7
(dp457
g9
S'2'
sg10
S'4'
sg11
S'4'
sg12
S'YYZ'
p458
sg14
S'GRU'
p459
ssa(dp460
g3
(dp461
sg5
S'request'
p462
sg7
(dp463
g9
S'2'
sg10
S'3'
sg11
S'3'
sg12
S'BOM'
p464
sg14
S'SYD'
p465
ssa(dp466
g3
(dp467
sg5
S'request'
p468
sg7
(dp469
g9
S'2'
sg10
S'3'
sg11
S'3'
sg12
S'MUC'
p470
sg14
S'MCO'
p471
ssa(dp472
g3
(dp473
sg5
S'request'
p474
sg7
(dp475
g9
S'1'
sg10
S'2'
sg11
S'3'
sg12
S'BOM'
p476
sg14
S'GRU'
p477
ssa(dp478
g3
(dp479
sg5
S'request'
p480
sg7
(dp481
g9
S'2'
sg10
S'1'
sg11
S'3'
sg12
S'SEA'
p482
sg14
S'LGW'
p483
ssa(dp484
g3
(dp485
sg5
S'request'
p486
sg7
(dp487
g9
S'0'
sg10
S'2'
sg11
S'6'
sg12
S'BOM'
p488
sg14
S'BCN'
p489
ssa(dp490
g3
(dp491
sg5
S'request'
p492
sg7
(dp493
g9
S'1'
sg10
S'1'
sg11
S'6'
sg12
S'BOM'
p494
sg14
S'SZX'
p495
ssa(dp496
g3
(dp497
sg5
S'request'
p498
sg7
(dp499
g9
S'1'
sg10
S'4'
sg11
S'5'
sg12
S'FCO'
p500
sg14
S'GRU'
p501
ssa(dp502
g3
(dp503
sg5
S'request'
p504
sg7
(dp505
g9
S'0'
sg10
S'3'
sg11
S'6'
sg12
S'BOM'
p506
sg14
S'GRU'
p507
ssa(dp508
g3
(dp509
sg5
S'request'
p510
sg7
(dp511
g9
S'2'
sg10
S'1'
sg11
S'5'
sg12
S'SEA'
p512
sg14
S'SYD'
p513
ssa(dp514
g3
(dp515
sg5
S'request'
p516
sg7
(dp517
g9
S'0'
sg10
S'2'
sg11
S'4'
sg12
S'SEA'
p518
sg14
S'SHA'
p519
ssa(dp520
g3
(dp521
sg5
S'request'
p522
sg7
(dp523
g9
S'0'
sg10
S'3'
sg11
S'4'
sg12
S'CTU'
p524
sg14
S'MCO'
p525
ssa(dp526
g3
(dp527
sg5
S'request'
p528
sg7
(dp529
g9
S'2'
sg10
S'2'
sg11
S'4'
sg12
S'CTU'
p530
sg14
S'SYD'
p531
ssa(dp532
g3
(dp533
sg5
S'request'
p534
sg7
(dp535
g9
S'1'
sg10
S'1'
sg11
S'6'
sg12
S'BOM'
p536
sg14
S'SZX'
p537
ssa(dp538
g3
(dp539
sg5
S'request'
p540
sg7
(dp541
g9
S'2'
sg10
S'1'
sg11
S'3'
sg12
S'FCO'
p542
sg14
S'SZX'
p543
ssa(dp544
g3
(dp545
sg5
S'request'
p546
sg7
(dp547
g9
S'0'
sg10
S'1'
sg11
S'3'
sg12
S'BOM'
p548
sg14
S'SYD'
p549
ssa(dp550
g3
(dp551
sg5
S'request'
p552
sg7
(dp553
g9
S'2'
sg10
S'3'
sg11
S'4'
sg12
S'BOM'
p554
sg14
S'LGW'
p555
ssa(dp556
g3
(dp557
sg5
S'request'
p558
sg7
(dp559
g9
S'0'
sg10
S'4'
sg11
S'3'
sg12
S'MUC'
p560
sg14
S'BCN'
p561
ssa(dp562
g3
(dp563
sg5
S'request'
p564
sg7
(dp565
g9
S'2'
sg10
S'4'
sg11
S'3'
sg12
S'YYZ'
p566
sg14
S'SHA'
p567
ssa(dp568
g3
(dp569
sg5
S'request'
p570
sg7
(dp571
g9
S'0'
sg10
S'3'
sg11
S'4'
sg12
S'BOM'
p572
sg14
S'SZX'
p573
ssa(dp574
g3
(dp575
sg5
S'request'
p576
sg7
(dp577
g9
S'0'
sg10
S'4'
sg11
S'3'
sg12
S'CTU'
p578
sg14
S'SZX'
p579
ssa(dp580
g3
(dp581
sg5
S'request'
p582
sg7
(dp583
g9
S'0'
sg10
S'3'
sg11
S'6'
sg12
S'BOM'
p584
sg14
S'SZX'
p585
ssa(dp586
g3
(dp587
sg5
S'request'
p588
sg7
(dp589
g9
S'1'
sg10
S'4'
sg11
S'3'
sg12
S'MUC'
p590
sg14
S'MCO'
p591
ssa(dp592
g3
(dp593
sg5
S'request'
p594
sg7
(dp595
g9
S'2'
sg10
S'3'
sg11
S'5'
sg12
S'BOM'
p596
sg14
S'SHA'
p597
ssa(dp598
g3
(dp599
sg5
S'request'
p600
sg7
(dp601
g9
S'2'
sg10
S'3'
sg11
S'5'
sg12
S'YYZ'
p602
sg14
S'SHA'
p603
ssa(dp604
g3
(dp605
sg5
S'request'
p606
sg7
(dp607
g9
S'0'
sg10
S'2'
sg11
S'6'
sg12
S'SEA'
p608
sg14
S'GRU'
p609
ssa(dp610
g3
(dp611
sg5
S'request'
p612
sg7
(dp613
g9
S'1'
sg10
S'2'
sg11
S'3'
sg12
S'YYZ'
p614
sg14
S'MCO'
p615
ssa(dp616
g3
(dp617
sg5
S'request'
p618
sg7
(dp619
g9
S'1'
sg10
S'1'
sg11
S'5'
sg12
S'FCO'
p620
sg14
S'SZX'
p621
ssa(dp622
g3
(dp623
sg5
S'request'
p624
sg7
(dp625
g9
S'1'
sg10
S'4'
sg11
S'3'
sg12
S'BOM'
p626
sg14
S'SZX'
p627
ssa(dp628
g3
(dp629
sg5
S'request'
p630
sg7
(dp631
g9
S'1'
sg10
S'1'
sg11
S'5'
sg12
S'YYZ'
p632
sg14
S'GRU'
p633
ssa(dp634
g3
(dp635
sg5
S'request'
p636
sg7
(dp637
g9
S'1'
sg10
S'4'
sg11
S'4'
sg12
S'MUC'
p638
sg14
S'SYD'
p639
ssa(dp640
g3
(dp641
sg5
S'request'
p642
sg7
(dp643
g9
S'2'
sg10
S'3'
sg11
S'6'
sg12
S'BOM'
p644
sg14
S'BCN'
p645
ssa(dp646
g3
(dp647
sg5
S'request'
p648
sg7
(dp649
g9
S'0'
sg10
S'4'
sg11
S'3'
sg12
S'YYZ'
p650
sg14
S'SHA'
p651
ssa(dp652
g3
(dp653
sg5
S'request'
p654
sg7
(dp655
g9
S'0'
sg10
S'1'
sg11
S'3'
sg12
S'CTU'
p656
sg14
S'BCN'
p657
ssa(dp658
g3
(dp659
sg5
S'request'
p660
sg7
(dp661
g9
S'2'
sg10
S'1'
sg11
S'5'
sg12
S'CTU'
p662
sg14
S'GRU'
p663
ssa(dp664
g3
(dp665
sg5
S'request'
p666
sg7
(dp667
g9
S'1'
sg10
S'2'
sg11
S'4'
sg12
S'CTU'
p668
sg14
S'GRU'
p669
ssa(dp670
g3
(dp671
sg5
S'request'
p672
sg7
(dp673
g9
S'1'
sg10
S'3'
sg11
S'4'
sg12
S'CTU'
p674
sg14
S'SHA'
p675
ssa(dp676
g3
(dp677
sg5
S'request'
p678
sg7
(dp679
g9
S'2'
sg10
S'1'
sg11
S'6'
sg12
S'BOM'
p680
sg14
S'GRU'
p681
ssa(dp682
g3
(dp683
sg5
S'request'
p684
sg7
(dp685
g9
S'2'
sg10
S'3'
sg11
S'4'
sg12
S'SEA'
p686
sg14
S'GRU'
p687
ssa(dp688
g3
(dp689
sg5
S'request'
p690
sg7
(dp691
g9
S'2'
sg10
S'4'
sg11
S'3'
sg12
S'SEA'
p692
sg14
S'LGW'
p693
ssa(dp694
g3
(dp695
sg5
S'request'
p696
sg7
(dp697
g9
S'1'
sg10
S'4'
sg11
S'5'
sg12
S'MUC'
p698
sg14
S'GRU'
p699
ssa(dp700
g3
(dp701
sg5
S'request'
p702
sg7
(dp703
g9
S'0'
sg10
S'3'
sg11
S'4'
sg12
S'YYZ'
p704
sg14
S'LGW'
p705
ssa(dp706
g3
(dp707
sg5
S'request'
p708
sg7
(dp709
g9
S'1'
sg10
S'1'
sg11
S'4'
sg12
S'FCO'
p710
sg14
S'SHA'
p711
ssa(dp712
g3
(dp713
sg5
S'request'
p714
sg7
(dp715
g9
S'2'
sg10
S'1'
sg11
S'5'
sg12
S'CTU'
p716
sg14
S'BCN'
p717
ssa(dp718
g3
(dp719
sg5
S'request'
p720
sg7
(dp721
g9
S'0'
sg10
S'2'
sg11
S'4'
sg12
S'MUC'
p722
sg14
S'LGW'
p723
ssa(dp724
g3
(dp725
sg5
S'request'
p726
sg7
(dp727
g9
S'1'
sg10
S'4'
sg11
S'4'
sg12
S'FCO'
p728
sg14
S'SHA'
p729
ssa(dp730
g3
(dp731
sg5
S'request'
p732
sg7
(dp733
g9
S'1'
sg10
S'1'
sg11
S'5'
sg12
S'FCO'
p734
sg14
S'LGW'
p735
ssa(dp736
g3
(dp737
sg5
S'request'
p738
sg7
(dp739
g9
S'2'
sg10
S'4'
sg11
S'3'
sg12
S'FCO'
p740
sg14
S'GRU'
p741
ssa(dp742
g3
(dp743
sg5
S'request'
p744
sg7
(dp745
g9
S'2'
sg10
S'4'
sg11
S'4'
sg12
S'FCO'
p746
sg14
S'LGW'
p747
ssa(dp748
g3
(dp749
sg5
S'request'
p750
sg7
(dp751
g9
S'2'
sg10
S'2'
sg11
S'4'
sg12
S'BOM'
p752
sg14
S'BCN'
p753
ssa(dp754
g3
(dp755
sg5
S'request'
p756
sg7
(dp757
g9
S'2'
sg10
S'3'
sg11
S'6'
sg12
S'MUC'
p758
sg14
S'SZX'
p759
ssa(dp760
g3
(dp761
sg5
S'request'
p762
sg7
(dp763
g9
S'0'
sg10
S'2'
sg11
S'6'
sg12
S'YYZ'
p764
sg14
S'SZX'
p765
ssa(dp766
g3
(dp767
sg5
S'request'
p768
sg7
(dp769
g9
S'1'
sg10
S'4'
sg11
S'3'
sg12
S'FCO'
p770
sg14
S'SYD'
p771
ssa(dp772
g3
(dp773
sg5
S'request'
p774
sg7
(dp775
g9
S'2'
sg10
S'2'
sg11
S'6'
sg12
S'BOM'
p776
sg14
S'BCN'
p777
ssa.