(lp1
(dp2
S'request_slots'
p3
(dp4
sS'diaact'
p5
S'request'
p6
sS'inform_slots'
p7
(dp8
S'origin1'
p9
S'BOM'
p10
sS'flightDate1'
p11
S'2'
sS'travelers'
p12
S'1'
sS'flightDate2'
p13
S'4'
sS'flexible'
p14
S'true'
p15
sS'destination1'
p16
S'BCN'
p17
ssa(dp18
g3
(dp19
sg5
S'request'
p20
sg7
(dp21
g9
S'CTU'
p22
sg11
S'2'
sg12
S'3'
sg13
S'3'
sg14
S'true'
p23
sg16
S'GRU'
p24
ssa(dp25
g3
(dp26
sg5
S'request'
p27
sg7
(dp28
g9
S'MUC'
p29
sg11
S'2'
sg12
S'3'
sg13
S'5'
sg14
S'true'
p30
sg16
S'MCO'
p31
ssa(dp32
g3
(dp33
sg5
S'request'
p34
sg7
(dp35
g9
S'BOM'
p36
sg11
S'1'
sg12
S'2'
sg13
S'5'
sg14
S'true'
p37
sg16
S'SZX'
p38
ssa(dp39
g3
(dp40
sg5
S'request'
p41
sg7
(dp42
g9
S'CTU'
p43
sg11
S'1'
sg12
S'2'
sg13
S'3'
sg14
S'false'
p44
sg16
S'SZX'
p45
ssa(dp46
g3
(dp47
sg5
S'request'
p48
sg7
(dp49
g9
S'FCO'
p50
sg11
S'2'
sg12
S'2'
sg13
S'4'
sg14
S'false'
p51
sg16
S'BCN'
p52
ssa(dp53
g3
(dp54
sg5
S'request'
p55
sg7
(dp56
g9
S'FCO'
p57
sg11
S'1'
sg12
S'2'
sg13
S'4'
sg14
S'true'
p58
sg16
S'SZX'
p59
ssa(dp60
g3
(dp61
sg5
S'request'
p62
sg7
(dp63
g9
S'CTU'
p64
sg11
S'2'
sg12
S'1'
sg13
S'3'
sg14
S'true'
p65
sg16
S'MCO'
p66
ssa(dp67
g3
(dp68
sg5
S'request'
p69
sg7
(dp70
g9
S'MUC'
p71
sg11
S'0'
sg12
S'4'
sg13
S'3'
sg14
S'false'
p72
sg16
S'GRU'
p73
ssa(dp74
g3
(dp75
sg5
S'request'
p76
sg7
(dp77
g9
S'MUC'
p78
sg11
S'2'
sg12
S'2'
sg13
S'6'
sg14
S'false'
p79
sg16
S'LGW'
p80
ssa(dp81
g3
(dp82
sg5
S'request'
p83
sg7
(dp84
g9
S'FCO'
p85
sg11
S'0'
sg12
S'3'
sg13
S'6'
sg14
S'false'
p86
sg16
S'BCN'
p87
ssa(dp88
g3
(dp89
sg5
S'request'
p90
sg7
(dp91
g9
S'FCO'
p92
sg11
S'0'
sg12
S'1'
sg13
S'5'
sg14
S'true'
p93
sg16
S'MCO'
p94
ssa(dp95
g3
(dp96
sg5
S'request'
p97
sg7
(dp98
g9
S'SEA'
p99
sg11
S'1'
sg12
S'2'
sg13
S'5'
sg14
S'false'
p100
sg16
S'SYD'
p101
ssa(dp102
g3
(dp103
sg5
S'request'
p104
sg7
(dp105
g9
S'CTU'
p106
sg11
S'0'
sg12
S'4'
sg13
S'5'
sg14
S'true'
p107
sg16
S'BCN'
p108
ssa(dp109
g3
(dp110
sg5
S'request'
p111
sg7
(dp112
g9
S'FCO'
p113
sg11
S'0'
sg12
S'2'
sg13
S'6'
sg14
S'false'
p114
sg16
S'GRU'
p115
ssa(dp116
g3
(dp117
sg5
S'request'
p118
sg7
(dp119
g9
S'YYZ'
p120
sg11
S'1'
sg12
S'1'
sg13
S'6'
sg14
S'true'
p121
sg16
S'BCN'
p122
ssa(dp123
g3
(dp124
sg5
S'request'
p125
sg7
(dp126
g9
S'FCO'
p127
sg11
S'1'
sg12
S'2'
sg13
S'6'
sg14
S'true'
p128
sg16
S'SZX'
p129
ssa(dp130
g3
(dp131
sg5
S'request'
p132
sg7
(dp133
g9
S'SEA'
p134
sg11
S'2'
sg12
S'2'
sg13
S'5'
sg14
S'false'
p135
sg16
S'SHA'
p136
ssa(dp137
g3
(dp138
sg5
S'request'
p139
sg7
(dp140
g9
S'YYZ'
p141
sg11
S'2'
sg12
S'4'
sg13
S'4'
sg14
S'true'
p142
sg16
S'SZX'
p143
ssa(dp144
g3
(dp145
sg5
S'request'
p146
sg7
(dp147
g9
S'YYZ'
p148
sg11
S'0'
sg12
S'2'
sg13
S'3'
sg14
S'false'
p149
sg16
S'BCN'
p150
ssa(dp151
g3
(dp152
sg5
S'request'
p153
sg7
(dp154
g9
S'SEA'
p155
sg11
S'0'
sg12
S'1'
sg13
S'5'
sg14
S'false'
p156
sg16
S'BCN'
p157
ssa(dp158
g3
(dp159
sg5
S'request'
p160
sg7
(dp161
g9
S'YYZ'
p162
sg11
S'2'
sg12
S'4'
sg13
S'5'
sg14
S'true'
p163
sg16
S'LGW'
p164
ssa(dp165
g3
(dp166
sg5
S'request'
p167
sg7
(dp168
g9
S'BOM'
p169
sg11
S'2'
sg12
S'1'
sg13
S'4'
sg14
S'false'
p170
sg16
S'GRU'
p171
ssa(dp172
g3
(dp173
sg5
S'request'
p174
sg7
(dp175
g9
S'SEA'
p176
sg11
S'0'
sg12
S'2'
sg13
S'5'
sg14
S'false'
p177
sg16
S'SYD'
p178
ssa(dp179
g3
(dp180
sg5
S'request'
p181
sg7
(dp182
g9
S'SEA'
p183
sg11
S'1'
sg12
S'2'
sg13
S'3'
sg14
S'true'
p184
sg16
S'MCO'
p185
ssa(dp186
g3
(dp187
sg5
S'request'
p188
sg7
(dp189
g9
S'FCO'
p190
sg11
S'1'
sg12
S'2'
sg13
S'3'
sg14
S'false'
p191
sg16
S'MCO'
p192
ssa(dp193
g3
(dp194
sg5
S'request'
p195
sg7
(dp196
g9
S'FCO'
p197
sg11
S'2'
sg12
S'4'
sg13
S'6'
sg14
S'false'
p198
sg16
S'MCO'
p199
ssa(dp200
g3
(dp201
sg5
S'request'
p202
sg7
(dp203
g9
S'CTU'
p204
sg11
S'2'
sg12
S'1'
sg13
S'3'
sg14
S'true'
p205
sg16
S'SZX'
p206
ssa(dp207
g3
(dp208
sg5
S'request'
p209
sg7
(dp210
g9
S'MUC'
p211
sg11
S'2'
sg12
S'1'
sg13
S'6'
sg14
S'true'
p212
sg16
S'BCN'
p213
ssa(dp214
g3
(dp215
sg5
S'request'
p216
sg7
(dp217
g9
S'SEA'
p218
sg11
S'1'
sg12
S'3'
sg13
S'5'
sg14
S'true'
p219
sg16
S'SYD'
p220
ssa(dp221
g3
(dp222
sg5
S'request'
p223
sg7
(dp224
g9
S'SEA'
p225
sg11
S'2'
sg12
S'2'
sg13
S'6'
sg14
S'true'
p226
sg16
S'BCN'
p227
ssa(dp228
g3
(dp229
sg5
S'request'
p230
sg7
(dp231
g9
S'BOM'
p232
sg11
S'1'
sg12
S'3'
sg13
S'5'
sg14
S'false'
p233
sg16
S'MCO'
p234
ssa(dp235
g3
(dp236
sg5
S'request'
p237
sg7
(dp238
g9
S'SEA'
p239
sg11
S'0'
sg12
S'1'
sg13
S'3'
sg14
S'false'
p240
sg16
S'LGW'
p241
ssa(dp242
g3
(dp243
sg5
S'request'
p244
sg7
(dp245
g9
S'CTU'
p246
sg11
S'1'
sg12
S'1'
sg13
S'4'
sg14
S'false'
p247
sg16
S'MCO'
p248
ssa(dp249
g3
(dp250
sg5
S'request'
p251
sg7
(dp252
g9
S'FCO'
p253
sg11
S'2'
sg12
S'1'
sg13
S'5'
sg14
S'false'
p254
sg16
S'BCN'
p255
ssa(dp256
g3
(dp257
sg5
S'request'
p258
sg7
(dp259
g9
S'SEA'
p260
sg11
S'2'
sg12
S'4'
sg13
S'5'
sg14
S'true'
p261
sg16
S'SYD'
p262
ssa(dp263
g3
(dp264
sg5
S'request'
p265
sg7
(dp266
g9
S'SEA'
p267
sg11
S'1'
sg12
S'4'
sg13
S'4'
sg14
S'false'
p268
sg16
S'SHA'
p269
ssa(dp270
g3
(dp271
sg5
S'request'
p272
sg7
(dp273
g9
S'FCO'
p274
sg11
S'0'
sg12
S'4'
sg13
S'3'
sg14
S'true'
p275
sg16
S'LGW'
p276
ssa(dp277
g3
(dp278
sg5
S'request'
p279
sg7
(dp280
g9
S'CTU'
p281
sg11
S'0'
sg12
S'2'
sg13
S'6'
sg14
S'false'
p282
sg16
S'GRU'
p283
ssa(dp284
g3
(dp285
sg5
S'request'
p286
sg7
(dp287
g9
S'BOM'
p288
sg11
S'1'
sg12
S'3'
sg13
S'5'
sg14
S'true'
p289
sg16
S'SZX'
p290
ssa(dp291
g3
(dp292
sg5
S'request'
p293
sg7
(dp294
g9
S'SEA'
p295
sg11
S'0'
sg12
S'4'
sg13
S'4'
sg14
S'false'
p296
sg16
S'GRU'
p297
ssa(dp298
g3
(dp299
sg5
S'request'
p300
sg7
(dp301
g9
S'YYZ'
p302
sg11
S'2'
sg12
S'2'
sg13
S'3'
sg14
S'true'
p303
sg16
S'SHA'
p304
ssa(dp305
g3
(dp306
sg5
S'request'
p307
sg7
(dp308
g9
S'SEA'
p309
sg11
S'0'
sg12
S'3'
sg13
S'6'
sg14
S'true'
p310
sg16
S'BCN'
p311
ssa(dp312
g3
(dp313
sg5
S'request'
p314
sg7
(dp315
g9
S'BOM'
p316
sg11
S'0'
sg12
S'1'
sg13
S'6'
sg14
S'true'
p317
sg16
S'MCO'
p318
ssa(dp319
g3
(dp320
sg5
S'request'
p321
sg7
(dp322
g9
S'SEA'
p323
sg11
S'0'
sg12
S'1'
sg13
S'5'
sg14
S'true'
p324
sg16
S'SZX'
p325
ssa(dp326
g3
(dp327
sg5
S'request'
p328
sg7
(dp329
g9
S'SEA'
p330
sg11
S'2'
sg12
S'3'
sg13
S'4'
sg14
S'false'
p331
sg16
S'SZX'
p332
ssa(dp333
g3
(dp334
sg5
S'request'
p335
sg7
(dp336
g9
S'BOM'
p337
sg11
S'1'
sg12
S'4'
sg13
S'5'
sg14
S'true'
p338
sg16
S'SZX'
p339
ssa(dp340
g3
(dp341
sg5
S'request'
p342
sg7
(dp343
g9
S'FCO'
p344
sg11
S'0'
sg12
S'3'
sg13
S'6'
sg14
S'false'
p345
sg16
S'GRU'
p346
ssa(dp347
g3
(dp348
sg5
S'request'
p349
sg7
(dp350
g9
S'SEA'
p351
sg11
S'1'
sg12
S'3'
sg13
S'6'
sg14
S'false'
p352
sg16
S'GRU'
p353
ssa(dp354
g3
(dp355
sg5
S'request'
p356
sg7
(dp357
g9
S'MUC'
p358
sg11
S'1'
sg12
S'2'
sg13
S'5'
sg14
S'false'
p359
sg16
S'BCN'
p360
ssa(dp361
g3
(dp362
sg5
S'request'
p363
sg7
(dp364
g9
S'FCO'
p365
sg11
S'0'
sg12
S'2'
sg13
S'5'
sg14
S'false'
p366
sg16
S'SHA'
p367
ssa(dp368
g3
(dp369
sg5
S'request'
p370
sg7
(dp371
g9
S'YYZ'
p372
sg11
S'2'
sg12
S'1'
sg13
S'6'
sg14
S'true'
p373
sg16
S'LGW'
p374
ssa(dp375
g3
(dp376
sg5
S'request'
p377
sg7
(dp378
g9
S'BOM'
p379
sg11
S'1'
sg12
S'1'
sg13
S'4'
sg14
S'true'
p380
sg16
S'SZX'
p381
ssa(dp382
g3
(dp383
sg5
S'request'
p384
sg7
(dp385
g9
S'FCO'
p386
sg11
S'0'
sg12
S'2'
sg13
S'6'
sg14
S'true'
p387
sg16
S'BCN'
p388
ssa(dp389
g3
(dp390
sg5
S'request'
p391
sg7
(dp392
g9
S'FCO'
p393
sg11
S'1'
sg12
S'4'
sg13
S'4'
sg14
S'true'
p394
sg16
S'BCN'
p395
ssa(dp396
g3
(dp397
sg5
S'request'
p398
sg7
(dp399
g9
S'BOM'
p400
sg11
S'1'
sg12
S'4'
sg13
S'4'
sg14
S'true'
p401
sg16
S'SHA'
p402
ssa(dp403
g3
(dp404
sg5
S'request'
p405
sg7
(dp406
g9
S'FCO'
p407
sg11
S'1'
sg12
S'2'
sg13
S'5'
sg14
S'false'
p408
sg16
S'LGW'
p409
ssa(dp410
g3
(dp411
sg5
S'request'
p412
sg7
(dp413
g9
S'SEA'
p414
sg11
S'2'
sg12
S'1'
sg13
S'6'
sg14
S'true'
p415
sg16
S'MCO'
p416
ssa(dp417
g3
(dp418
sg5
S'request'
p419
sg7
(dp420
g9
S'YYZ'
p421
sg11
S'2'
sg12
S'4'
sg13
S'6'
sg14
S'false'
p422
sg16
S'SYD'
p423
ssa(dp424
g3
(dp425
sg5
S'request'
p426
sg7
(dp427
g9
S'BOM'
p428
sg11
S'2'
sg12
S'1'
sg13
S'3'
sg14
S'true'
p429
sg16
S'SYD'
p430
ssa(dp431
g3
(dp432
sg5
S'request'
p433
sg7
(dp434
g9
S'FCO'
p435
sg11
S'1'
sg12
S'2'
sg13
S'6'
sg14
S'true'
p436
sg16
S'SHA'
p437
ssa(dp438
g3
(dp439
sg5
S'request'
p440
sg7
(dp441
g9
S'FCO'
p442
sg11
S'1'
sg12
S'2'
sg13
S'3'
sg14
S'false'
p443
sg16
S'LGW'
p444
ssa(dp445
g3
(dp446
sg5
S'request'
p447
sg7
(dp448
g9
S'CTU'
p449
sg11
S'0'
sg12
S'3'
sg13
S'3'
sg14
S'true'
p450
sg16
S'SHA'
p451
ssa(dp452
g3
(dp453
sg5
S'request'
p454
sg7
(dp455
g9
S'MUC'
p456
sg11
S'2'
sg12
S'2'
sg13
S'5'
sg14
S'true'
p457
sg16
S'GRU'
p458
ssa(dp459
g3
(dp460
sg5
S'request'
p461
sg7
(dp462
g9
S'BOM'
p463
sg11
S'1'
sg12
S'4'
sg13
S'3'
sg14
S'false'
p464
sg16
S'SYD'
p465
ssa(dp466
g3
(dp467
sg5
S'request'
p468
sg7
(dp469
g9
S'BOM'
p470
sg11
S'0'
sg12
S'2'
sg13
S'4'
sg14
S'true'
p471
sg16
S'MCO'
p472
ssa(dp473
g3
(dp474
sg5
S'request'
p475
sg7
(dp476
g9
S'FCO'
p477
sg11
S'2'
sg12
S'4'
sg13
S'6'
sg14
S'true'
p478
sg16
S'GRU'
p479
ssa(dp480
g3
(dp481
sg5
S'request'
p482
sg7
(dp483
g9
S'FCO'
p484
sg11
S'1'
sg12
S'3'
sg13
S'5'
sg14
S'false'
p485
sg16
S'MCO'
p486
ssa(dp487
g3
(dp488
sg5
S'request'
p489
sg7
(dp490
g9
S'FCO'
p491
sg11
S'1'
sg12
S'4'
sg13
S'5'
sg14
S'true'
p492
sg16
S'SHA'
p493
ssa(dp494
g3
(dp495
sg5
S'request'
p496
sg7
(dp497
g9
S'BOM'
p498
sg11
S'1'
sg12
S'1'
sg13
S'3'
sg14
S'false'
p499
sg16
S'GRU'
p500
ssa(dp501
g3
(dp502
sg5
S'request'
p503
sg7
(dp504
g9
S'YYZ'
p505
sg11
S'2'
sg12
S'4'
sg13
S'4'
sg14
S'true'
p506
sg16
S'SYD'
p507
ssa(dp508
g3
(dp509
sg5
S'request'
p510
sg7
(dp511
g9
S'MUC'
p512
sg11
S'0'
sg12
S'2'
sg13
S'4'
sg14
S'false'
p513
sg16
S'SYD'
p514
ssa(dp515
g3
(dp516
sg5
S'request'
p517
sg7
(dp518
g9
S'MUC'
p519
sg11
S'0'
sg12
S'3'
sg13
S'4'
sg14
S'true'
p520
sg16
S'MCO'
p521
ssa(dp522
g3
(dp523
sg5
S'request'
p524
sg7
(dp525
g9
S'MUC'
p526
sg11
S'2'
sg12
S'2'
sg13
S'3'
sg14
S'true'
p527
sg16
S'GRU'
p528
ssa(dp529
g3
(dp530
sg5
S'request'
p531
sg7
(dp532
g9
S'SEA'
p533
sg11
S'0'
sg12
S'4'
sg13
S'6'
sg14
S'true'
p534
sg16
S'SHA'
p535
ssa(dp536
g3
(dp537
sg5
S'request'
p538
sg7
(dp539
g9
S'SEA'
p540
sg11
S'1'
sg12
S'4'
sg13
S'5'
sg14
S'false'
p541
sg16
S'SYD'
p542
ssa(dp543
g3
(dp544
sg5
S'request'
p545
sg7
(dp546
g9
S'FCO'
p547
sg11
S'1'
sg12
S'2'
sg13
S'4'
sg14
S'false'
p548
sg16
S'SZX'
p549
ssa(dp550
g3
(dp551
sg5
S'request'
p552
sg7
(dp553
g9
S'MUC'
p554
sg11
S'2'
sg12
S'3'
sg13
S'5'
sg14
S'false'
p555
sg16
S'SYD'
p556
ssa(dp557
g3
(dp558
sg5
S'request'
p559
sg7
(dp560
g9
S'YYZ'
p561
sg11
S'0'
sg12
S'2'
sg13
S'6'
sg14
S'false'
p562
sg16
S'SZX'
p563
ssa(dp564
g3
(dp565
sg5
S'request'
p566
sg7
(dp567
g9
S'BOM'
p568
sg11
S'2'
sg12
S'2'
sg13
S'5'
sg14
S'true'
p569
sg16
S'LGW'
p570
ssa(dp571
g3
(dp572
sg5
S'request'
p573
sg7
(dp574
g9
S'BOM'
p575
sg11
S'2'
sg12
S'2'
sg13
S'4'
sg14
S'true'
p576
sg16
S'GRU'
p577
ssa(dp578
g3
(dp579
sg5
S'request'
p580
sg7
(dp581
g9
S'FCO'
p582
sg11
S'0'
sg12
S'4'
sg13
S'6'
sg14
S'true'
p583
sg16
S'SZX'
p584
ssa(dp585
g3
(dp586
sg5
S'request'
p587
sg7
(dp588
g9
S'FCO'
p589
sg11
S'1'
sg12
S'2'
sg13
S'3'
sg14
S'false'
p590
sg16
S'SYD'
p591
ssa(dp592
g3
(dp593
sg5
S'request'
p594
sg7
(dp595
g9
S'YYZ'
p596
sg11
S'0'
sg12
S'2'
sg13
S'5'
sg14
S'true'
p597
sg16
S'MCO'
p598
ssa(dp599
g3
(dp600
sg5
S'request'
p601
sg7
(dp602
g9
S'BOM'
p603
sg11
S'0'
sg12
S'4'
sg13
S'3'
sg14
S'false'
p604
sg16
S'SYD'
p605
ssa(dp606
g3
(dp607
sg5
S'request'
p608
sg7
(dp609
g9
S'YYZ'
p610
sg11
S'2'
sg12
S'3'
sg13
S'4'
sg14
S'true'
p611
sg16
S'MCO'
p612
ssa(dp613
g3
(dp614
sg5
S'request'
p615
sg7
(dp616
g9
S'FCO'
p617
sg11
S'0'
sg12
S'3'
sg13
S'4'
sg14
S'false'
p618
sg16
S'BCN'
p619
ssa(dp620
g3
(dp621
sg5
S'request'
p622
sg7
(dp623
g9
S'CTU'
p624
sg11
S'1'
sg12
S'4'
sg13
S'4'
sg14
S'true'
p625
sg16
S'BCN'
p626
ssa(dp627
g3
(dp628
sg5
S'request'
p629
sg7
(dp630
g9
S'BOM'
p631
sg11
S'1'
sg12
S'4'
sg13
S'5'
sg14
S'false'
p632
sg16
S'SYD'
p633
ssa(dp634
g3
(dp635
sg5
S'request'
p636
sg7
(dp637
g9
S'CTU'
p638
sg11
S'1'
sg12
S'1'
sg13
S'3'
sg14
S'true'
p639
sg16
S'GRU'
p640
ssa(dp641
g3
(dp642
sg5
S'request'
p643
sg7
(dp644
g9
S'YYZ'
p645
sg11
S'1'
sg12
S'2'
sg13
S'4'
sg14
S'true'
p646
sg16
S'MCO'
p647
ssa(dp648
g3
(dp649
sg5
S'request'
p650
sg7
(dp651
g9
S'SEA'
p652
sg11
S'0'
sg12
S'3'
sg13
S'6'
sg14
S'false'
p653
sg16
S'GRU'
p654
ssa(dp655
g3
(dp656
sg5
S'request'
p657
sg7
(dp658
g9
S'BOM'
p659
sg11
S'1'
sg12
S'2'
sg13
S'6'
sg14
S'true'
p660
sg16
S'SHA'
p661
ssa(dp662
g3
(dp663
sg5
S'request'
p664
sg7
(dp665
g9
S'CTU'
p666
sg11
S'1'
sg12
S'3'
sg13
S'6'
sg14
S'true'
p667
sg16
S'LGW'
p668
ssa(dp669
g3
(dp670
sg5
S'request'
p671
sg7
(dp672
g9
S'YYZ'
p673
sg11
S'1'
sg12
S'1'
sg13
S'6'
sg14
S'false'
p674
sg16
S'GRU'
p675
ssa(dp676
g3
(dp677
sg5
S'request'
p678
sg7
(dp679
g9
S'YYZ'
p680
sg11
S'1'
sg12
S'1'
sg13
S'6'
sg14
S'true'
p681
sg16
S'LGW'
p682
ssa(dp683
g3
(dp684
sg5
S'request'
p685
sg7
(dp686
g9
S'SEA'
p687
sg11
S'1'
sg12
S'1'
sg13
S'5'
sg14
S'true'
p688
sg16
S'SHA'
p689
ssa(dp690
g3
(dp691
sg5
S'request'
p692
sg7
(dp693
g9
S'CTU'
p694
sg11
S'2'
sg12
S'3'
sg13
S'5'
sg14
S'true'
p695
sg16
S'SYD'
p696
ssa(dp697
g3
(dp698
sg5
S'request'
p699
sg7
(dp700
g9
S'FCO'
p701
sg11
S'1'
sg12
S'4'
sg13
S'3'
sg14
S'true'
p702
sg16
S'SZX'
p703
ssa(dp704
g3
(dp705
sg5
S'request'
p706
sg7
(dp707
g9
S'BOM'
p708
sg11
S'2'
sg12
S'4'
sg13
S'5'
sg14
S'true'
p709
sg16
S'LGW'
p710
ssa(dp711
g3
(dp712
sg5
S'request'
p713
sg7
(dp714
g9
S'SEA'
p715
sg11
S'2'
sg12
S'2'
sg13
S'4'
sg14
S'false'
p716
sg16
S'GRU'
p717
ssa(dp718
g3
(dp719
sg5
S'request'
p720
sg7
(dp721
g9
S'CTU'
p722
sg11
S'0'
sg12
S'4'
sg13
S'6'
sg14
S'true'
p723
sg16
S'SHA'
p724
ssa(dp725
g3
(dp726
sg5
S'request'
p727
sg7
(dp728
g9
S'YYZ'
p729
sg11
S'2'
sg12
S'4'
sg13
S'3'
sg14
S'false'
p730
sg16
S'GRU'
p731
ssa(dp732
g3
(dp733
sg5
S'request'
p734
sg7
(dp735
g9
S'YYZ'
p736
sg11
S'2'
sg12
S'1'
sg13
S'6'
sg14
S'true'
p737
sg16
S'GRU'
p738
ssa(dp739
g3
(dp740
sg5
S'request'
p741
sg7
(dp742
g9
S'FCO'
p743
sg11
S'0'
sg12
S'2'
sg13
S'4'
sg14
S'false'
p744
sg16
S'SYD'
p745
ssa(dp746
g3
(dp747
sg5
S'request'
p748
sg7
(dp749
g9
S'FCO'
p750
sg11
S'1'
sg12
S'3'
sg13
S'3'
sg14
S'false'
p751
sg16
S'LGW'
p752
ssa(dp753
g3
(dp754
sg5
S'request'
p755
sg7
(dp756
g9
S'MUC'
p757
sg11
S'2'
sg12
S'1'
sg13
S'6'
sg14
S'false'
p758
sg16
S'SZX'
p759
ssa(dp760
g3
(dp761
sg5
S'request'
p762
sg7
(dp763
g9
S'BOM'
p764
sg11
S'2'
sg12
S'2'
sg13
S'3'
sg14
S'true'
p765
sg16
S'BCN'
p766
ssa(dp767
g3
(dp768
sg5
S'request'
p769
sg7
(dp770
g9
S'MUC'
p771
sg11
S'1'
sg12
S'3'
sg13
S'4'
sg14
S'true'
p772
sg16
S'MCO'
p773
ssa(dp774
g3
(dp775
sg5
S'request'
p776
sg7
(dp777
g9
S'YYZ'
p778
sg11
S'2'
sg12
S'3'
sg13
S'4'
sg14
S'true'
p779
sg16
S'MCO'
p780
ssa(dp781
g3
(dp782
sg5
S'request'
p783
sg7
(dp784
g9
S'FCO'
p785
sg11
S'2'
sg12
S'3'
sg13
S'5'
sg14
S'true'
p786
sg16
S'SHA'
p787
ssa(dp788
g3
(dp789
sg5
S'request'
p790
sg7
(dp791
g9
S'SEA'
p792
sg11
S'1'
sg12
S'1'
sg13
S'4'
sg14
S'false'
p793
sg16
S'SYD'
p794
ssa(dp795
g3
(dp796
sg5
S'request'
p797
sg7
(dp798
g9
S'SEA'
p799
sg11
S'1'
sg12
S'4'
sg13
S'3'
sg14
S'true'
p800
sg16
S'GRU'
p801
ssa(dp802
g3
(dp803
sg5
S'request'
p804
sg7
(dp805
g9
S'YYZ'
p806
sg11
S'0'
sg12
S'2'
sg13
S'4'
sg14
S'false'
p807
sg16
S'LGW'
p808
ssa(dp809
g3
(dp810
sg5
S'request'
p811
sg7
(dp812
g9
S'BOM'
p813
sg11
S'2'
sg12
S'3'
sg13
S'3'
sg14
S'false'
p814
sg16
S'BCN'
p815
ssa(dp816
g3
(dp817
sg5
S'request'
p818
sg7
(dp819
g9
S'MUC'
p820
sg11
S'0'
sg12
S'3'
sg13
S'4'
sg14
S'false'
p821
sg16
S'GRU'
p822
ssa(dp823
g3
(dp824
sg5
S'request'
p825
sg7
(dp826
g9
S'CTU'
p827
sg11
S'0'
sg12
S'3'
sg13
S'3'
sg14
S'true'
p828
sg16
S'LGW'
p829
ssa(dp830
g3
(dp831
sg5
S'request'
p832
sg7
(dp833
g9
S'MUC'
p834
sg11
S'2'
sg12
S'1'
sg13
S'4'
sg14
S'false'
p835
sg16
S'BCN'
p836
ssa(dp837
g3
(dp838
sg5
S'request'
p839
sg7
(dp840
g9
S'MUC'
p841
sg11
S'1'
sg12
S'4'
sg13
S'6'
sg14
S'true'
p842
sg16
S'SZX'
p843
ssa(dp844
g3
(dp845
sg5
S'request'
p846
sg7
(dp847
g9
S'CTU'
p848
sg11
S'1'
sg12
S'3'
sg13
S'4'
sg14
S'true'
p849
sg16
S'MCO'
p850
ssa(dp851
g3
(dp852
sg5
S'request'
p853
sg7
(dp854
g9
S'SEA'
p855
sg11
S'0'
sg12
S'1'
sg13
S'5'
sg14
S'false'
p856
sg16
S'SHA'
p857
ssa(dp858
g3
(dp859
sg5
S'request'
p860
sg7
(dp861
g9
S'FCO'
p862
sg11
S'1'
sg12
S'4'
sg13
S'3'
sg14
S'false'
p863
sg16
S'SZX'
p864
ssa(dp865
g3
(dp866
sg5
S'request'
p867
sg7
(dp868
g9
S'FCO'
p869
sg11
S'2'
sg12
S'3'
sg13
S'5'
sg14
S'false'
p870
sg16
S'MCO'
p871
ssa(dp872
g3
(dp873
sg5
S'request'
p874
sg7
(dp875
g9
S'CTU'
p876
sg11
S'0'
sg12
S'2'
sg13
S'4'
sg14
S'true'
p877
sg16
S'BCN'
p878
ssa(dp879
g3
(dp880
sg5
S'request'
p881
sg7
(dp882
g9
S'FCO'
p883
sg11
S'0'
sg12
S'4'
sg13
S'3'
sg14
S'false'
p884
sg16
S'MCO'
p885
ssa(dp886
g3
(dp887
sg5
S'request'
p888
sg7
(dp889
g9
S'MUC'
p890
sg11
S'2'
sg12
S'2'
sg13
S'3'
sg14
S'false'
p891
sg16
S'LGW'
p892
ssa(dp893
g3
(dp894
sg5
S'request'
p895
sg7
(dp896
g9
S'BOM'
p897
sg11
S'1'
sg12
S'1'
sg13
S'3'
sg14
S'false'
p898
sg16
S'LGW'
p899
ssa(dp900
g3
(dp901
sg5
S'request'
p902
sg7
(dp903
g9
S'SEA'
p904
sg11
S'2'
sg12
S'1'
sg13
S'5'
sg14
S'true'
p905
sg16
S'SZX'
p906
ssa.