(dp1
S'344'
p2
(dp3
S'flightDate1'
p4
S'2'
sS'travelers'
p5
S'2'
sS'flightDate2'
p6
S'6'
sS'origin1'
p7
S'CTU'
p8
sS'destination1'
p9
S'BCN'
p10
ssS'0'
(dp11
g4
S'1'
sg5
S'3'
sg6
S'6'
sg7
S'SEA'
p12
sg9
S'BCN'
p13
ssS'346'
p14
(dp15
g4
S'2'
sg5
S'2'
sg6
S'6'
sg7
S'YYZ'
p16
sg9
S'BCN'
p17
ssS'347'
p18
(dp19
g4
S'1'
sg5
S'2'
sg6
S'5'
sg7
S'SEA'
p20
sg9
S'MCO'
p21
ssS'340'
p22
(dp23
g4
S'1'
sg5
S'3'
sg6
S'5'
sg7
S'CTU'
p24
sg9
S'LGW'
p25
ssS'341'
p26
(dp27
g4
S'2'
sg5
S'4'
sg6
S'3'
sg7
S'BOM'
p28
sg9
S'SHA'
p29
ssS'342'
p30
(dp31
g4
S'1'
sg5
S'4'
sg6
S'3'
sg7
S'CTU'
p32
sg9
S'MCO'
p33
ssS'343'
p34
(dp35
g4
S'2'
sg5
S'4'
sg6
S'3'
sg7
S'CTU'
p36
sg9
S'SYD'
p37
ssS'810'
p38
(dp39
g4
S'0'
sg5
S'3'
sg6
S'6'
sg7
S'MUC'
p40
sg9
S'GRU'
p41
ssS'811'
p42
(dp43
g4
S'2'
sg5
S'1'
sg6
S'5'
sg7
S'MUC'
p44
sg9
S'BCN'
p45
ssS'812'
p46
(dp47
g4
S'0'
sg5
S'1'
sg6
S'5'
sg7
S'YYZ'
p48
sg9
S'SZX'
p49
ssS'813'
p50
(dp51
g4
S'0'
sg5
S'2'
sg6
S'3'
sg7
S'FCO'
p52
sg9
S'MCO'
p53
ssS'348'
p54
(dp55
g4
S'0'
sg5
S'3'
sg6
S'4'
sg7
S'BOM'
p56
sg9
S'MCO'
p57
ssS'349'
p58
(dp59
g4
S'0'
sg5
S'3'
sg6
S'6'
sg7
S'BOM'
p60
sg9
S'SHA'
p61
ssS'816'
p62
(dp63
g4
S'1'
sg5
S'1'
sg6
S'4'
sg7
S'BOM'
p64
sg9
S'SYD'
p65
ssS'817'
p66
(dp67
g4
S'0'
sg5
S'4'
sg6
S'5'
sg7
S'FCO'
p68
sg9
S'SYD'
p69
ssS'595'
p70
(dp71
g4
S'0'
sg5
S'2'
sg6
S'3'
sg7
S'YYZ'
p72
sg9
S'SZX'
p73
ssS'719'
p74
(dp75
g4
S'0'
sg5
S'4'
sg6
S'3'
sg7
S'YYZ'
p76
sg9
S'SZX'
p77
ssS'718'
p78
(dp79
g4
S'0'
sg5
S'4'
sg6
S'6'
sg7
S'BOM'
p80
sg9
S'LGW'
p81
ssS'717'
p82
(dp83
g4
S'1'
sg5
S'1'
sg6
S'3'
sg7
S'BOM'
p84
sg9
S'LGW'
p85
ssS'716'
p86
(dp87
g4
S'0'
sg5
S'3'
sg6
S'5'
sg7
S'BOM'
p88
sg9
S'BCN'
p89
ssS'715'
p90
(dp91
g4
S'0'
sg5
S'3'
sg6
S'4'
sg7
S'YYZ'
p92
sg9
S'LGW'
p93
ssS'714'
p94
(dp95
g4
S'1'
sg5
S'1'
sg6
S'4'
sg7
S'MUC'
p96
sg9
S'SZX'
p97
ssS'713'
p98
(dp99
g4
S'2'
sg5
S'2'
sg6
S'6'
sg7
S'SEA'
p100
sg9
S'BCN'
p101
ssS'712'
p102
(dp103
g4
S'2'
sg5
S'3'
sg6
S'6'
sg7
S'SEA'
p104
sg9
S'MCO'
p105
ssS'711'
p106
(dp107
g4
S'0'
sg5
S'3'
sg6
S'4'
sg7
S'MUC'
p108
sg9
S'MCO'
p109
ssS'710'
p110
(dp111
g4
S'1'
sg5
S'2'
sg6
S'6'
sg7
S'BOM'
p112
sg9
S'GRU'
p113
ssS'915'
p114
(dp115
g4
S'2'
sg5
S'1'
sg6
S'6'
sg7
S'BOM'
p116
sg9
S'BCN'
p117
ssS'914'
p118
(dp119
g4
S'1'
sg5
S'1'
sg6
S'5'
sg7
S'YYZ'
p120
sg9
S'SYD'
p121
ssS'606'
p122
(dp123
g4
S'2'
sg5
S'4'
sg6
S'4'
sg7
S'MUC'
p124
sg9
S'BCN'
p125
ssS'917'
p126
(dp127
g4
S'2'
sg5
S'4'
sg6
S'6'
sg7
S'SEA'
p128
sg9
S'SZX'
p129
ssS'594'
p130
(dp131
g4
S'2'
sg5
S'1'
sg6
S'6'
sg7
S'BOM'
p132
sg9
S'GRU'
p133
ssS'736'
p134
(dp135
g4
S'2'
sg5
S'1'
sg6
S'4'
sg7
S'MUC'
p136
sg9
S'SYD'
p137
ssS'916'
p138
(dp139
g4
S'2'
sg5
S'1'
sg6
S'6'
sg7
S'YYZ'
p140
sg9
S'GRU'
p141
ssS'911'
p142
(dp143
g4
S'2'
sg5
S'4'
sg6
S'5'
sg7
S'MUC'
p144
sg9
S'LGW'
p145
ssS'619'
p146
(dp147
g4
S'1'
sg5
S'1'
sg6
S'5'
sg7
S'FCO'
p148
sg9
S'SHA'
p149
ssS'910'
p150
(dp151
g4
S'0'
sg5
S'1'
sg6
S'3'
sg7
S'FCO'
p152
sg9
S'GRU'
p153
ssS'913'
p154
(dp155
g4
S'2'
sg5
S'3'
sg6
S'3'
sg7
S'CTU'
p156
sg9
S'SYD'
p157
ssS'298'
p158
(dp159
g4
S'2'
sg5
S'2'
sg6
S'6'
sg7
S'MUC'
p160
sg9
S'SZX'
p161
ssS'299'
p162
(dp163
g4
S'2'
sg5
S'1'
sg6
S'3'
sg7
S'FCO'
p164
sg9
S'SZX'
p165
ssS'296'
p166
(dp167
g4
S'1'
sg5
S'2'
sg6
S'6'
sg7
S'FCO'
p168
sg9
S'SHA'
p169
ssS'297'
p170
(dp171
g4
S'2'
sg5
S'1'
sg6
S'5'
sg7
S'FCO'
p172
sg9
S'LGW'
p173
ssS'294'
p174
(dp175
g4
S'0'
sg5
S'2'
sg6
S'6'
sg7
S'SEA'
p176
sg9
S'GRU'
p177
ssS'295'
p178
(dp179
g4
S'0'
sg5
S'2'
sg6
S'3'
sg7
S'SEA'
p180
sg9
S'LGW'
p181
ssS'292'
p182
(dp183
g4
S'1'
sg5
S'1'
sg6
S'4'
sg7
S'BOM'
p184
sg9
S'BCN'
p185
ssS'293'
p186
(dp187
g4
S'0'
sg5
S'4'
sg6
S'3'
sg7
S'YYZ'
p188
sg9
S'SHA'
p189
ssS'290'
p190
(dp191
g4
S'0'
sg5
S'1'
sg6
S'5'
sg7
S'FCO'
p192
sg9
S'SYD'
p193
ssS'291'
p194
(dp195
g4
S'0'
sg5
S'3'
sg6
S'6'
sg7
S'FCO'
p196
sg9
S'SHA'
p197
ssS'591'
p198
(dp199
g4
S'0'
sg5
S'2'
sg6
S'5'
sg7
S'YYZ'
p200
sg9
S'BCN'
p201
ssS'590'
p202
(dp203
g4
S'2'
sg5
S'3'
sg6
S'6'
sg7
S'FCO'
p204
sg9
S'BCN'
p205
ssS'593'
p206
(dp207
g4
S'0'
sg5
S'2'
sg6
S'6'
sg7
S'MUC'
p208
sg9
S'SZX'
p209
ssS'592'
p210
(dp211
g4
S'2'
sg5
S'3'
sg6
S'4'
sg7
S'YYZ'
p212
sg9
S'GRU'
p213
ssS'199'
p214
(dp215
g4
S'2'
sg5
S'2'
sg6
S'6'
sg7
S'YYZ'
p216
sg9
S'SZX'
p217
ssS'198'
p218
(dp219
g4
S'0'
sg5
S'3'
sg6
S'5'
sg7
S'MUC'
p220
sg9
S'SHA'
p221
ssS'597'
p222
(dp223
g4
S'2'
sg5
S'3'
sg6
S'5'
sg7
S'MUC'
p224
sg9
S'BCN'
p225
ssS'596'
p226
(dp227
g4
S'2'
sg5
S'3'
sg6
S'5'
sg7
S'BOM'
p228
sg9
S'MCO'
p229
ssS'195'
p230
(dp231
g4
S'0'
sg5
S'1'
sg6
S'6'
sg7
S'YYZ'
p232
sg9
S'MCO'
p233
ssS'194'
p234
(dp235
g4
S'0'
sg5
S'3'
sg6
S'3'
sg7
S'CTU'
p236
sg9
S'SYD'
p237
ssS'197'
p238
(dp239
g4
S'1'
sg5
S'4'
sg6
S'3'
sg7
S'BOM'
p240
sg9
S'SYD'
p241
ssS'196'
p242
(dp243
g4
S'1'
sg5
S'1'
sg6
S'3'
sg7
S'BOM'
p244
sg9
S'SYD'
p245
ssS'191'
p246
(dp247
g4
S'2'
sg5
S'4'
sg6
S'6'
sg7
S'FCO'
p248
sg9
S'GRU'
p249
ssS'190'
p250
(dp251
g4
S'0'
sg5
S'4'
sg6
S'4'
sg7
S'BOM'
p252
sg9
S'BCN'
p253
ssS'193'
p254
(dp255
g4
S'1'
sg5
S'4'
sg6
S'5'
sg7
S'SEA'
p256
sg9
S'SZX'
p257
ssS'192'
p258
(dp259
g4
S'0'
sg5
S'2'
sg6
S'4'
sg7
S'YYZ'
p260
sg9
S'SYD'
p261
ssS'270'
p262
(dp263
g4
S'2'
sg5
S'1'
sg6
S'6'
sg7
S'BOM'
p264
sg9
S'BCN'
p265
ssS'271'
p266
(dp267
g4
S'1'
sg5
S'3'
sg6
S'3'
sg7
S'YYZ'
p268
sg9
S'BCN'
p269
ssS'272'
p270
(dp271
g4
S'2'
sg5
S'3'
sg6
S'6'
sg7
S'SEA'
p272
sg9
S'LGW'
p273
ssS'273'
p274
(dp275
g4
S'1'
sg5
S'4'
sg6
S'3'
sg7
S'FCO'
p276
sg9
S'GRU'
p277
ssS'274'
p278
(dp279
g4
S'0'
sg5
S'3'
sg6
S'5'
sg7
S'YYZ'
p280
sg9
S'SYD'
p281
ssS'275'
p282
(dp283
g4
S'0'
sg5
S'4'
sg6
S'5'
sg7
S'YYZ'
p284
sg9
S'BCN'
p285
ssS'276'
p286
(dp287
g4
S'0'
sg5
S'3'
sg6
S'6'
sg7
S'CTU'
p288
sg9
S'SZX'
p289
ssS'277'
p290
(dp291
g4
S'2'
sg5
S'1'
sg6
S'5'
sg7
S'CTU'
p292
sg9
S'MCO'
p293
ssS'278'
p294
(dp295
g4
S'2'
sg5
S'1'
sg6
S'5'
sg7
S'CTU'
p296
sg9
S'MCO'
p297
ssS'279'
p298
(dp299
g4
S'0'
sg5
S'3'
sg6
S'6'
sg7
S'MUC'
p300
sg9
S'GRU'
p301
ssS'738'
p302
(dp303
g4
S'1'
sg5
S'1'
sg6
S'4'
sg7
S'BOM'
p304
sg9
S'GRU'
p305
ssS'524'
p306
(dp307
g4
S'1'
sg5
S'1'
sg6
S'3'
sg7
S'MUC'
p308
sg9
S'SHA'
p309
ssS'525'
p310
(dp311
g4
S'2'
sg5
S'2'
sg6
S'6'
sg7
S'MUC'
p312
sg9
S'BCN'
p313
ssS'526'
p314
(dp315
g4
S'2'
sg5
S'4'
sg6
S'4'
sg7
S'YYZ'
p316
sg9
S'SHA'
p317
ssS'527'
p318
(dp319
g4
S'1'
sg5
S'4'
sg6
S'3'
sg7
S'SEA'
p320
sg9
S'BCN'
p321
ssS'520'
p322
(dp323
g4
S'2'
sg5
S'2'
sg6
S'4'
sg7
S'BOM'
p324
sg9
S'BCN'
p325
ssS'521'
p326
(dp327
g4
S'0'
sg5
S'3'
sg6
S'4'
sg7
S'SEA'
p328
sg9
S'SZX'
p329
ssS'522'
p330
(dp331
g4
S'0'
sg5
S'3'
sg6
S'4'
sg7
S'MUC'
p332
sg9
S'GRU'
p333
ssS'523'
p334
(dp335
g4
S'1'
sg5
S'2'
sg6
S'6'
sg7
S'FCO'
p336
sg9
S'SYD'
p337
ssS'599'
p338
(dp339
g4
S'1'
sg5
S'3'
sg6
S'3'
sg7
S'CTU'
p340
sg9
S'SHA'
p341
ssS'528'
p342
(dp343
g4
S'2'
sg5
S'3'
sg6
S'4'
sg7
S'CTU'
p344
sg9
S'MCO'
p345
ssS'529'
p346
(dp347
g4
S'0'
sg5
S'2'
sg6
S'5'
sg7
S'CTU'
p348
sg9
S'SZX'
p349
ssS'994'
p350
(dp351
g4
S'1'
sg5
S'2'
sg6
S'4'
sg7
S'SEA'
p352
sg9
S'SZX'
p353
ssS'449'
p354
(dp355
g4
S'1'
sg5
S'1'
sg6
S'5'
sg7
S'YYZ'
p356
sg9
S'GRU'
p357
ssS'448'
p358
(dp359
g4
S'0'
sg5
S'1'
sg6
S'3'
sg7
S'FCO'
p360
sg9
S'LGW'
p361
ssS'443'
p362
(dp363
g4
S'2'
sg5
S'3'
sg6
S'3'
sg7
S'BOM'
p364
sg9
S'LGW'
p365
ssS'442'
p366
(dp367
g4
S'2'
sg5
S'3'
sg6
S'3'
sg7
S'CTU'
p368
sg9
S'SZX'
p369
ssS'441'
p370
(dp371
g4
S'0'
sg5
S'4'
sg6
S'3'
sg7
S'FCO'
p372
sg9
S'GRU'
p373
ssS'440'
p374
(dp375
g4
S'0'
sg5
S'2'
sg6
S'4'
sg7
S'MUC'
p376
sg9
S'GRU'
p377
ssS'447'
p378
(dp379
g4
S'0'
sg5
S'1'
sg6
S'4'
sg7
S'SEA'
p380
sg9
S'MCO'
p381
ssS'446'
p382
(dp383
g4
S'0'
sg5
S'3'
sg6
S'3'
sg7
S'MUC'
p384
sg9
S'BCN'
p385
ssS'445'
p386
(dp387
g4
S'2'
sg5
S'1'
sg6
S'4'
sg7
S'SEA'
p388
sg9
S'SZX'
p389
ssS'444'
p390
(dp391
g4
S'1'
sg5
S'1'
sg6
S'4'
sg7
S'BOM'
p392
sg9
S'LGW'
p393
ssS'108'
p394
(dp395
g4
S'2'
sg5
S'4'
sg6
S'3'
sg7
S'YYZ'
p396
sg9
S'GRU'
p397
ssS'109'
p398
(dp399
g4
S'0'
sg5
S'3'
sg6
S'4'
sg7
S'SEA'
p400
sg9
S'SZX'
p401
ssS'102'
p402
(dp403
g4
S'2'
sg5
S'4'
sg6
S'4'
sg7
S'FCO'
p404
sg9
S'MCO'
p405
ssS'103'
p406
(dp407
g4
S'2'
sg5
S'4'
sg6
S'6'
sg7
S'CTU'
p408
sg9
S'SHA'
p409
ssS'100'
p410
(dp411
g4
S'2'
sg5
S'1'
sg6
S'6'
sg7
S'YYZ'
p412
sg9
S'LGW'
p413
ssS'101'
p414
(dp415
g4
S'1'
sg5
S'4'
sg6
S'3'
sg7
S'SEA'
p416
sg9
S'GRU'
p417
ssS'106'
p418
(dp419
g4
S'0'
sg5
S'1'
sg6
S'4'
sg7
S'FCO'
p420
sg9
S'SHA'
p421
ssS'107'
p422
(dp423
g4
S'0'
sg5
S'3'
sg6
S'4'
sg7
S'BOM'
p424
sg9
S'SZX'
p425
ssS'104'
p426
(dp427
g4
S'0'
sg5
S'4'
sg6
S'5'
sg7
S'YYZ'
p428
sg9
S'SYD'
p429
ssS'105'
p430
(dp431
g4
S'1'
sg5
S'2'
sg6
S'5'
sg7
S'BOM'
p432
sg9
S'GRU'
p433
ssS'902'
p434
(dp435
g4
S'0'
sg5
S'1'
sg6
S'6'
sg7
S'FCO'
p436
sg9
S'LGW'
p437
ssS'903'
p438
(dp439
g4
S'0'
sg5
S'4'
sg6
S'4'
sg7
S'MUC'
p440
sg9
S'GRU'
p441
ssS'39'
p442
(dp443
g4
S'2'
sg5
S'3'
sg6
S'6'
sg7
S'MUC'
p444
sg9
S'SZX'
p445
ssS'38'
p446
(dp447
g4
S'2'
sg5
S'4'
sg6
S'5'
sg7
S'MUC'
p448
sg9
S'SZX'
p449
ssS'906'
p450
(dp451
g4
S'1'
sg5
S'2'
sg6
S'3'
sg7
S'YYZ'
p452
sg9
S'SZX'
p453
ssS'907'
p454
(dp455
g4
S'2'
sg5
S'3'
sg6
S'4'
sg7
S'SEA'
p456
sg9
S'GRU'
p457
ssS'904'
p458
(dp459
g4
S'0'
sg5
S'1'
sg6
S'3'
sg7
S'SEA'
p460
sg9
S'LGW'
p461
ssS'905'
p462
(dp463
g4
S'1'
sg5
S'2'
sg6
S'5'
sg7
S'FCO'
p464
sg9
S'SZX'
p465
ssS'33'
p466
(dp467
g4
S'1'
sg5
S'4'
sg6
S'4'
sg7
S'SEA'
p468
sg9
S'SHA'
p469
ssS'32'
p470
(dp471
g4
S'2'
sg5
S'2'
sg6
S'3'
sg7
S'MUC'
p472
sg9
S'SYD'
p473
ssS'31'
p474
(dp475
g4
S'2'
sg5
S'3'
sg6
S'6'
sg7
S'CTU'
p476
sg9
S'BCN'
p477
ssS'30'
p478
(dp479
g4
S'1'
sg5
S'1'
sg6
S'5'
sg7
S'FCO'
p480
sg9
S'SZX'
p481
ssS'37'
p482
(dp483
g4
S'1'
sg5
S'2'
sg6
S'6'
sg7
S'CTU'
p484
sg9
S'GRU'
p485
ssS'36'
p486
(dp487
g4
S'0'
sg5
S'1'
sg6
S'6'
sg7
S'FCO'
p488
sg9
S'SYD'
p489
ssS'35'
p490
(dp491
g4
S'0'
sg5
S'1'
sg6
S'6'
sg7
S'CTU'
p492
sg9
S'SZX'
p493
ssS'34'
p494
(dp495
g4
S'1'
sg5
S'1'
sg6
S'5'
sg7
S'BOM'
p496
sg9
S'MCO'
p497
ssS'641'
p498
(dp499
g4
S'0'
sg5
S'2'
sg6
S'5'
sg7
S'MUC'
p500
sg9
S'MCO'
p501
ssS'640'
p502
(dp503
g4
S'2'
sg5
S'4'
sg6
S'6'
sg7
S'FCO'
p504
sg9
S'SHA'
p505
ssS'643'
p506
(dp507
g4
S'2'
sg5
S'4'
sg6
S'4'
sg7
S'SEA'
p508
sg9
S'BCN'
p509
ssS'642'
p510
(dp511
g4
S'0'
sg5
S'4'
sg6
S'3'
sg7
S'FCO'
p512
sg9
S'MCO'
p513
ssS'645'
p514
(dp515
g4
S'2'
sg5
S'2'
sg6
S'4'
sg7
S'MUC'
p516
sg9
S'MCO'
p517
ssS'644'
p518
(dp519
g4
S'1'
sg5
S'3'
sg6
S'6'
sg7
S'YYZ'
p520
sg9
S'GRU'
p521
ssS'438'
p522
(dp523
g4
S'1'
sg5
S'2'
sg6
S'4'
sg7
S'FCO'
p524
sg9
S'MCO'
p525
ssS'439'
p526
(dp527
g4
S'1'
sg5
S'1'
sg6
S'5'
sg7
S'YYZ'
p528
sg9
S'BCN'
p529
ssS'436'
p530
(dp531
g4
S'1'
sg5
S'2'
sg6
S'3'
sg7
S'MUC'
p532
sg9
S'SYD'
p533
ssS'437'
p534
(dp535
g4
S'1'
sg5
S'1'
sg6
S'4'
sg7
S'MUC'
p536
sg9
S'GRU'
p537
ssS'434'
p538
(dp539
g4
S'2'
sg5
S'4'
sg6
S'6'
sg7
S'MUC'
p540
sg9
S'MCO'
p541
ssS'435'
p542
(dp543
g4
S'0'
sg5
S'3'
sg6
S'6'
sg7
S'FCO'
p544
sg9
S'LGW'
p545
ssS'432'
p546
(dp547
g4
S'1'
sg5
S'3'
sg6
S'5'
sg7
S'CTU'
p548
sg9
S'GRU'
p549
ssS'433'
p550
(dp551
g4
S'2'
sg5
S'1'
sg6
S'3'
sg7
S'SEA'
p552
sg9
S'LGW'
p553
ssS'430'
p554
(dp555
g4
S'0'
sg5
S'4'
sg6
S'4'
sg7
S'BOM'
p556
sg9
S'SHA'
p557
ssS'431'
p558
(dp559
g4
S'1'
sg5
S'4'
sg6
S'3'
sg7
S'FCO'
p560
sg9
S'SYD'
p561
ssS'339'
p562
(dp563
g4
S'1'
sg5
S'1'
sg6
S'5'
sg7
S'YYZ'
p564
sg9
S'SZX'
p565
ssS'338'
p566
(dp567
g4
S'2'
sg5
S'4'
sg6
S'5'
sg7
S'SEA'
p568
sg9
S'MCO'
p569
ssS'335'
p570
(dp571
g4
S'2'
sg5
S'3'
sg6
S'6'
sg7
S'YYZ'
p572
sg9
S'BCN'
p573
ssS'334'
p574
(dp575
g4
S'2'
sg5
S'3'
sg6
S'5'
sg7
S'BOM'
p576
sg9
S'SYD'
p577
ssS'337'
p578
(dp579
g4
S'0'
sg5
S'4'
sg6
S'5'
sg7
S'MUC'
p580
sg9
S'LGW'
p581
ssS'336'
p582
(dp583
g4
S'2'
sg5
S'4'
sg6
S'6'
sg7
S'CTU'
p584
sg9
S'GRU'
p585
ssS'331'
p586
(dp587
g4
S'2'
sg5
S'2'
sg6
S'3'
sg7
S'SEA'
p588
sg9
S'SZX'
p589
ssS'330'
p590
(dp591
g4
S'2'
sg5
S'3'
sg6
S'4'
sg7
S'CTU'
p592
sg9
S'SHA'
p593
ssS'333'
p594
(dp595
g4
S'1'
sg5
S'1'
sg6
S'6'
sg7
S'FCO'
p596
sg9
S'SZX'
p597
ssS'332'
p598
(dp599
g4
S'2'
sg5
S'3'
sg6
S'5'
sg7
S'CTU'
p600
sg9
S'GRU'
p601
ssS'89'
p602
(dp603
g4
S'0'
sg5
S'1'
sg6
S'3'
sg7
S'BOM'
p604
sg9
S'SZX'
p605
ssS'744'
p606
(dp607
g4
S'1'
sg5
S'4'
sg6
S'6'
sg7
S'CTU'
p608
sg9
S'SYD'
p609
ssS'745'
p610
(dp611
g4
S'2'
sg5
S'4'
sg6
S'5'
sg7
S'BOM'
p612
sg9
S'SYD'
p613
ssS'854'
p614
(dp615
g4
S'0'
sg5
S'4'
sg6
S'3'
sg7
S'CTU'
p616
sg9
S'SYD'
p617
ssS'818'
p618
(dp619
g4
S'0'
sg5
S'4'
sg6
S'3'
sg7
S'SEA'
p620
sg9
S'LGW'
p621
ssS'856'
p622
(dp623
g4
S'1'
sg5
S'4'
sg6
S'4'
sg7
S'MUC'
p624
sg9
S'SHA'
p625
ssS'857'
p626
(dp627
g4
S'1'
sg5
S'4'
sg6
S'4'
sg7
S'BOM'
p628
sg9
S'GRU'
p629
ssS'850'
p630
(dp631
g4
S'2'
sg5
S'3'
sg6
S'3'
sg7
S'BOM'
p632
sg9
S'LGW'
p633
ssS'851'
p634
(dp635
g4
S'1'
sg5
S'3'
sg6
S'6'
sg7
S'MUC'
p636
sg9
S'SHA'
p637
ssS'852'
p638
(dp639
g4
S'2'
sg5
S'3'
sg6
S'5'
sg7
S'MUC'
p640
sg9
S'BCN'
p641
ssS'345'
p642
(dp643
g4
S'2'
sg5
S'4'
sg6
S'6'
sg7
S'CTU'
p644
sg9
S'LGW'
p645
ssS'858'
p646
(dp647
g4
S'2'
sg5
S'4'
sg6
S'3'
sg7
S'SEA'
p648
sg9
S'SHA'
p649
ssS'859'
p650
(dp651
g4
S'0'
sg5
S'2'
sg6
S'3'
sg7
S'FCO'
p652
sg9
S'SYD'
p653
ssS'748'
p654
(dp655
g4
S'1'
sg5
S'2'
sg6
S'6'
sg7
S'BOM'
p656
sg9
S'MCO'
p657
ssS'6'
(dp658
g4
S'2'
sg5
S'3'
sg6
S'6'
sg7
S'YYZ'
p659
sg9
S'BCN'
p660
ssS'900'
p661
(dp662
g4
S'0'
sg5
S'4'
sg6
S'4'
sg7
S'CTU'
p663
sg9
S'SYD'
p664
ssS'848'
p665
(dp666
g4
S'0'
sg5
S'3'
sg6
S'6'
sg7
S'BOM'
p667
sg9
S'LGW'
p668
ssS'99'
p669
(dp670
g4
S'0'
sg5
S'1'
sg6
S'3'
sg7
S'CTU'
p671
sg9
S'MCO'
p672
ssS'98'
p673
(dp674
g4
S'2'
sg5
S'2'
sg6
S'5'
sg7
S'BOM'
p675
sg9
S'SZX'
p676
ssS'844'
p677
(dp678
g4
S'2'
sg5
S'2'
sg6
S'4'
sg7
S'MUC'
p679
sg9
S'SYD'
p680
ssS'91'
p681
(dp682
g4
S'0'
sg5
S'3'
sg6
S'5'
sg7
S'YYZ'
p683
sg9
S'LGW'
p684
ssS'90'
p685
(dp686
g4
S'2'
sg5
S'1'
sg6
S'4'
sg7
S'YYZ'
p687
sg9
S'LGW'
p688
ssS'93'
p689
(dp690
g4
S'2'
sg5
S'2'
sg6
S'4'
sg7
S'BOM'
p691
sg9
S'SHA'
p692
ssS'92'
p693
(dp694
g4
S'2'
sg5
S'1'
sg6
S'3'
sg7
S'MUC'
p695
sg9
S'LGW'
p696
ssS'95'
p697
(dp698
g4
S'2'
sg5
S'1'
sg6
S'3'
sg7
S'FCO'
p699
sg9
S'SZX'
p700
ssS'94'
p701
(dp702
g4
S'0'
sg5
S'2'
sg6
S'6'
sg7
S'BOM'
p703
sg9
S'LGW'
p704
ssS'97'
p705
(dp706
g4
S'0'
sg5
S'2'
sg6
S'4'
sg7
S'MUC'
p707
sg9
S'LGW'
p708
ssS'96'
p709
(dp710
g4
S'2'
sg5
S'4'
sg6
S'5'
sg7
S'YYZ'
p711
sg9
S'GRU'
p712
ssS'814'
p713
(dp714
g4
S'2'
sg5
S'2'
sg6
S'4'
sg7
S'CTU'
p715
sg9
S'SZX'
p716
ssS'815'
p717
(dp718
g4
S'1'
sg5
S'3'
sg6
S'3'
sg7
S'MUC'
p719
sg9
S'SZX'
p720
ssS'740'
p721
(dp722
g4
S'2'
sg5
S'4'
sg6
S'5'
sg7
S'CTU'
p723
sg9
S'LGW'
p724
ssS'741'
p725
(dp726
g4
S'2'
sg5
S'4'
sg6
S'3'
sg7
S'CTU'
p727
sg9
S'SYD'
p728
ssS'742'
p729
(dp730
g4
S'2'
sg5
S'3'
sg6
S'4'
sg7
S'FCO'
p731
sg9
S'SYD'
p732
ssS'743'
p733
(dp734
g4
S'0'
sg5
S'3'
sg6
S'4'
sg7
S'CTU'
p735
sg9
S'SYD'
p736
ssS'559'
p737
(dp738
g4
S'1'
sg5
S'2'
sg6
S'5'
sg7
S'CTU'
p739
sg9
S'BCN'
p740
ssS'558'
p741
(dp742
g4
S'0'
sg5
S'4'
sg6
S'5'
sg7
S'MUC'
p743
sg9
S'SZX'
p744
ssS'746'
p745
(dp746
g4
S'2'
sg5
S'4'
sg6
S'6'
sg7
S'BOM'
p747
sg9
S'SHA'
p748
ssS'747'
p749
(dp750
g4
S'1'
sg5
S'3'
sg6
S'4'
sg7
S'CTU'
p751
sg9
S'BCN'
p752
ssS'555'
p753
(dp754
g4
S'1'
sg5
S'4'
sg6
S'4'
sg7
S'FCO'
p755
sg9
S'MCO'
p756
ssS'554'
p757
(dp758
g4
S'2'
sg5
S'4'
sg6
S'4'
sg7
S'CTU'
p759
sg9
S'GRU'
p760
ssS'557'
p761
(dp762
g4
S'1'
sg5
S'4'
sg6
S'5'
sg7
S'MUC'
p763
sg9
S'BCN'
p764
ssS'556'
p765
(dp766
g4
S'0'
sg5
S'1'
sg6
S'6'
sg7
S'CTU'
p767
sg9
S'GRU'
p768
ssS'551'
p769
(dp770
g4
S'0'
sg5
S'1'
sg6
S'4'
sg7
S'BOM'
p771
sg9
S'LGW'
p772
ssS'550'
p773
(dp774
g4
S'2'
sg5
S'3'
sg6
S'5'
sg7
S'SEA'
p775
sg9
S'LGW'
p776
ssS'553'
p777
(dp778
g4
S'1'
sg5
S'2'
sg6
S'5'
sg7
S'FCO'
p779
sg9
S'SZX'
p780
ssS'552'
p781
(dp782
g4
S'0'
sg5
S'3'
sg6
S'3'
sg7
S'MUC'
p783
sg9
S'SZX'
p784
ssS'238'
p785
(dp786
g4
S'1'
sg5
S'1'
sg6
S'4'
sg7
S'FCO'
p787
sg9
S'MCO'
p788
ssS'239'
p789
(dp790
g4
S'1'
sg5
S'4'
sg6
S'4'
sg7
S'SEA'
p791
sg9
S'SYD'
p792
ssS'234'
p793
(dp794
g4
S'1'
sg5
S'3'
sg6
S'4'
sg7
S'SEA'
p795
sg9
S'MCO'
p796
ssS'235'
p797
(dp798
g4
S'2'
sg5
S'2'
sg6
S'6'
sg7
S'SEA'
p799
sg9
S'SHA'
p800
ssS'236'
p801
(dp802
g4
S'1'
sg5
S'1'
sg6
S'6'
sg7
S'SEA'
p803
sg9
S'BCN'
p804
ssS'237'
p805
(dp806
g4
S'2'
sg5
S'2'
sg6
S'5'
sg7
S'SEA'
p807
sg9
S'GRU'
p808
ssS'230'
p809
(dp810
g4
S'2'
sg5
S'1'
sg6
S'4'
sg7
S'BOM'
p811
sg9
S'SYD'
p812
ssS'231'
p813
(dp814
g4
S'0'
sg5
S'4'
sg6
S'5'
sg7
S'FCO'
p815
sg9
S'LGW'
p816
ssS'232'
p817
(dp818
g4
S'0'
sg5
S'2'
sg6
S'6'
sg7
S'CTU'
p819
sg9
S'LGW'
p820
ssS'233'
p821
(dp822
g4
S'0'
sg5
S'2'
sg6
S'3'
sg7
S'SEA'
p823
sg9
S'BCN'
p824
ssS'992'
p825
(dp826
g4
S'0'
sg5
S'2'
sg6
S'3'
sg7
S'YYZ'
p827
sg9
S'MCO'
p828
ssS'1'
(dp829
g4
S'0'
sg5
S'4'
sg6
S'6'
sg7
S'SEA'
p830
sg9
S'LGW'
p831
ssS'614'
p832
(dp833
g4
S'2'
sg5
S'2'
sg6
S'6'
sg7
S'BOM'
p834
sg9
S'LGW'
p835
ssS'146'
p836
(dp837
g4
S'1'
sg5
S'4'
sg6
S'4'
sg7
S'SEA'
p838
sg9
S'MCO'
p839
ssS'147'
p840
(dp841
g4
S'1'
sg5
S'3'
sg6
S'6'
sg7
S'BOM'
p842
sg9
S'LGW'
p843
ssS'144'
p844
(dp845
g4
S'1'
sg5
S'1'
sg6
S'5'
sg7
S'YYZ'
p846
sg9
S'GRU'
p847
ssS'145'
p848
(dp849
g4
S'0'
sg5
S'4'
sg6
S'5'
sg7
S'SEA'
p850
sg9
S'SZX'
p851
ssS'142'
p852
(dp853
g4
S'0'
sg5
S'4'
sg6
S'4'
sg7
S'CTU'
p854
sg9
S'MCO'
p855
ssS'143'
p856
(dp857
g4
S'1'
sg5
S'2'
sg6
S'6'
sg7
S'YYZ'
p858
sg9
S'LGW'
p859
ssS'140'
p860
(dp861
g4
S'2'
sg5
S'1'
sg6
S'4'
sg7
S'SEA'
p862
sg9
S'MCO'
p863
ssS'141'
p864
(dp865
g4
S'1'
sg5
S'4'
sg6
S'4'
sg7
S'CTU'
p866
sg9
S'SYD'
p867
ssS'612'
p868
(dp869
g4
S'0'
sg5
S'2'
sg6
S'6'
sg7
S'MUC'
p870
sg9
S'MCO'
p871
ssS'613'
p872
(dp873
g4
S'1'
sg5
S'2'
sg6
S'4'
sg7
S'FCO'
p874
sg9
S'GRU'
p875
ssS'610'
p876
(dp877
g4
S'0'
sg5
S'3'
sg6
S'5'
sg7
S'YYZ'
p878
sg9
S'SHA'
p879
ssS'611'
p880
(dp881
g4
S'0'
sg5
S'3'
sg6
S'4'
sg7
S'CTU'
p882
sg9
S'BCN'
p883
ssS'616'
p884
(dp885
g4
S'0'
sg5
S'1'
sg6
S'6'
sg7
S'YYZ'
p886
sg9
S'SZX'
p887
ssS'617'
p888
(dp889
g4
S'0'
sg5
S'1'
sg6
S'5'
sg7
S'CTU'
p890
sg9
S'SYD'
p891
ssS'148'
p892
(dp893
g4
S'0'
sg5
S'3'
sg6
S'5'
sg7
S'MUC'
p894
sg9
S'SYD'
p895
ssS'149'
p896
(dp897
g4
S'1'
sg5
S'4'
sg6
S'4'
sg7
S'BOM'
p898
sg9
S'GRU'
p899
ssS'912'
p900
(dp901
g4
S'0'
sg5
S'1'
sg6
S'4'
sg7
S'BOM'
p902
sg9
S'BCN'
p903
ssS'951'
p904
(dp905
g4
S'1'
sg5
S'1'
sg6
S'6'
sg7
S'FCO'
p906
sg9
S'SZX'
p907
ssS'948'
p908
(dp909
g4
S'0'
sg5
S'2'
sg6
S'5'
sg7
S'BOM'
p910
sg9
S'GRU'
p911
ssS'949'
p912
(dp913
g4
S'1'
sg5
S'4'
sg6
S'4'
sg7
S'FCO'
p914
sg9
S'GRU'
p915
ssS'946'
p916
(dp917
g4
S'2'
sg5
S'2'
sg6
S'5'
sg7
S'BOM'
p918
sg9
S'LGW'
p919
ssS'947'
p920
(dp921
g4
S'1'
sg5
S'3'
sg6
S'6'
sg7
S'MUC'
p922
sg9
S'SYD'
p923
ssS'944'
p924
(dp925
g4
S'2'
sg5
S'1'
sg6
S'5'
sg7
S'FCO'
p926
sg9
S'MCO'
p927
ssS'945'
p928
(dp929
g4
S'2'
sg5
S'2'
sg6
S'4'
sg7
S'CTU'
p930
sg9
S'GRU'
p931
ssS'942'
p932
(dp933
g4
S'1'
sg5
S'4'
sg6
S'6'
sg7
S'CTU'
p934
sg9
S'SYD'
p935
ssS'943'
p936
(dp937
g4
S'2'
sg5
S'3'
sg6
S'6'
sg7
S'YYZ'
p938
sg9
S'LGW'
p939
ssS'940'
p940
(dp941
g4
S'0'
sg5
S'1'
sg6
S'3'
sg7
S'FCO'
p942
sg9
S'LGW'
p943
ssS'941'
p944
(dp945
g4
S'1'
sg5
S'1'
sg6
S'5'
sg7
S'SEA'
p946
sg9
S'BCN'
p947
ssS'768'
p948
(dp949
g4
S'1'
sg5
S'2'
sg6
S'5'
sg7
S'SEA'
p950
sg9
S'SHA'
p951
ssS'689'
p952
(dp953
g4
S'0'
sg5
S'1'
sg6
S'6'
sg7
S'CTU'
p954
sg9
S'MCO'
p955
ssS'688'
p956
(dp957
g4
S'0'
sg5
S'2'
sg6
S'5'
sg7
S'YYZ'
p958
sg9
S'GRU'
p959
ssS'685'
p960
(dp961
g4
S'1'
sg5
S'3'
sg6
S'6'
sg7
S'FCO'
p962
sg9
S'LGW'
p963
ssS'684'
p964
(dp965
g4
S'1'
sg5
S'3'
sg6
S'3'
sg7
S'CTU'
p966
sg9
S'SYD'
p967
ssS'687'
p968
(dp969
g4
S'1'
sg5
S'1'
sg6
S'5'
sg7
S'CTU'
p970
sg9
S'GRU'
p971
ssS'686'
p972
(dp973
g4
S'2'
sg5
S'3'
sg6
S'6'
sg7
S'FCO'
p974
sg9
S'LGW'
p975
ssS'681'
p976
(dp977
g4
S'2'
sg5
S'1'
sg6
S'6'
sg7
S'BOM'
p978
sg9
S'LGW'
p979
ssS'680'
p980
(dp981
g4
S'2'
sg5
S'3'
sg6
S'6'
sg7
S'SEA'
p982
sg9
S'BCN'
p983
ssS'683'
p984
(dp985
g4
S'1'
sg5
S'2'
sg6
S'3'
sg7
S'CTU'
p986
sg9
S'BCN'
p987
ssS'682'
p988
(dp989
g4
S'1'
sg5
S'3'
sg6
S'4'
sg7
S'MUC'
p990
sg9
S'SHA'
p991
ssS'623'
p992
(dp993
g4
S'2'
sg5
S'3'
sg6
S'4'
sg7
S'MUC'
p994
sg9
S'BCN'
p995
ssS'819'
p996
(dp997
g4
S'0'
sg5
S'1'
sg6
S'6'
sg7
S'FCO'
p998
sg9
S'SHA'
p999
ssS'622'
p1000
(dp1001
g4
S'0'
sg5
S'2'
sg6
S'4'
sg7
S'CTU'
p1002
sg9
S'SZX'
p1003
ssS'133'
p1004
(dp1005
g4
S'1'
sg5
S'3'
sg6
S'4'
sg7
S'MUC'
p1006
sg9
S'GRU'
p1007
ssS'132'
p1008
(dp1009
g4
S'0'
sg5
S'2'
sg6
S'4'
sg7
S'FCO'
p1010
sg9
S'SYD'
p1011
ssS'131'
p1012
(dp1013
g4
S'0'
sg5
S'2'
sg6
S'3'
sg7
S'FCO'
p1014
sg9
S'MCO'
p1015
ssS'130'
p1016
(dp1017
g4
S'1'
sg5
S'4'
sg6
S'4'
sg7
S'YYZ'
p1018
sg9
S'SZX'
p1019
ssS'137'
p1020
(dp1021
g4
S'1'
sg5
S'1'
sg6
S'5'
sg7
S'CTU'
p1022
sg9
S'SHA'
p1023
ssS'136'
p1024
(dp1025
g4
S'1'
sg5
S'1'
sg6
S'4'
sg7
S'FCO'
p1026
sg9
S'MCO'
p1027
ssS'135'
p1028
(dp1029
g4
S'1'
sg5
S'1'
sg6
S'3'
sg7
S'MUC'
p1030
sg9
S'LGW'
p1031
ssS'134'
p1032
(dp1033
g4
S'1'
sg5
S'2'
sg6
S'3'
sg7
S'SEA'
p1034
sg9
S'SYD'
p1035
ssS'494'
p1036
(dp1037
g4
S'2'
sg5
S'1'
sg6
S'5'
sg7
S'FCO'
p1038
sg9
S'BCN'
p1039
ssS'495'
p1040
(dp1041
g4
S'0'
sg5
S'4'
sg6
S'6'
sg7
S'FCO'
p1042
sg9
S'SYD'
p1043
ssS'139'
p1044
(dp1045
g4
S'1'
sg5
S'2'
sg6
S'3'
sg7
S'BOM'
p1046
sg9
S'GRU'
p1047
ssS'138'
p1048
(dp1049
g4
S'2'
sg5
S'1'
sg6
S'3'
sg7
S'SEA'
p1050
sg9
S'SYD'
p1051
ssS'490'
p1052
(dp1053
g4
S'2'
sg5
S'3'
sg6
S'4'
sg7
S'YYZ'
p1054
sg9
S'LGW'
p1055
ssS'491'
p1056
(dp1057
g4
S'0'
sg5
S'3'
sg6
S'6'
sg7
S'MUC'
p1058
sg9
S'MCO'
p1059
ssS'492'
p1060
(dp1061
g4
S'0'
sg5
S'1'
sg6
S'3'
sg7
S'YYZ'
p1062
sg9
S'SZX'
p1063
ssS'493'
p1064
(dp1065
g4
S'0'
sg5
S'3'
sg6
S'4'
sg7
S'FCO'
p1066
sg9
S'BCN'
p1067
ssS'24'
p1068
(dp1069
g4
S'1'
sg5
S'2'
sg6
S'4'
sg7
S'FCO'
p1070
sg9
S'MCO'
p1071
ssS'25'
p1072
(dp1073
g4
S'1'
sg5
S'1'
sg6
S'3'
sg7
S'YYZ'
p1074
sg9
S'LGW'
p1075
ssS'26'
p1076
(dp1077
g4
S'2'
sg5
S'4'
sg6
S'5'
sg7
S'SEA'
p1078
sg9
S'SZX'
p1079
ssS'27'
p1080
(dp1081
g4
S'0'
sg5
S'3'
sg6
S'6'
sg7
S'SEA'
p1082
sg9
S'SZX'
p1083
ssS'20'
p1084
(dp1085
g4
S'1'
sg5
S'3'
sg6
S'3'
sg7
S'CTU'
p1086
sg9
S'SYD'
p1087
ssS'21'
p1088
(dp1089
g4
S'1'
sg5
S'4'
sg6
S'6'
sg7
S'SEA'
p1090
sg9
S'LGW'
p1091
ssS'22'
p1092
(dp1093
g4
S'2'
sg5
S'3'
sg6
S'4'
sg7
S'BOM'
p1094
sg9
S'SYD'
p1095
ssS'23'
p1096
(dp1097
g4
S'0'
sg5
S'2'
sg6
S'5'
sg7
S'FCO'
p1098
sg9
S'SHA'
p1099
ssS'927'
p1100
(dp1101
g4
S'0'
sg5
S'2'
sg6
S'6'
sg7
S'CTU'
p1102
sg9
S'GRU'
p1103
ssS'28'
p1104
(dp1105
g4
S'2'
sg5
S'1'
sg6
S'5'
sg7
S'CTU'
p1106
sg9
S'MCO'
p1107
ssS'29'
p1108
(dp1109
g4
S'2'
sg5
S'2'
sg6
S'5'
sg7
S'BOM'
p1110
sg9
S'SHA'
p1111
ssS'407'
p1112
(dp1113
g4
S'2'
sg5
S'1'
sg6
S'6'
sg7
S'SEA'
p1114
sg9
S'LGW'
p1115
ssS'406'
p1116
(dp1117
g4
S'1'
sg5
S'2'
sg6
S'3'
sg7
S'CTU'
p1118
sg9
S'BCN'
p1119
ssS'405'
p1120
(dp1121
g4
S'2'
sg5
S'4'
sg6
S'4'
sg7
S'FCO'
p1122
sg9
S'SYD'
p1123
ssS'404'
p1124
(dp1125
g4
S'0'
sg5
S'3'
sg6
S'6'
sg7
S'BOM'
p1126
sg9
S'SYD'
p1127
ssS'403'
p1128
(dp1129
g4
S'0'
sg5
S'4'
sg6
S'3'
sg7
S'BOM'
p1130
sg9
S'BCN'
p1131
ssS'402'
p1132
(dp1133
g4
S'1'
sg5
S'4'
sg6
S'3'
sg7
S'FCO'
p1134
sg9
S'SYD'
p1135
ssS'401'
p1136
(dp1137
g4
S'1'
sg5
S'3'
sg6
S'4'
sg7
S'MUC'
p1138
sg9
S'LGW'
p1139
ssS'400'
p1140
(dp1141
g4
S'0'
sg5
S'3'
sg6
S'6'
sg7
S'BOM'
p1142
sg9
S'GRU'
p1143
ssS'933'
p1144
(dp1145
g4
S'2'
sg5
S'4'
sg6
S'4'
sg7
S'MUC'
p1146
sg9
S'SZX'
p1147
ssS'932'
p1148
(dp1149
g4
S'0'
sg5
S'1'
sg6
S'3'
sg7
S'YYZ'
p1150
sg9
S'SHA'
p1151
ssS'931'
p1152
(dp1153
g4
S'2'
sg5
S'2'
sg6
S'6'
sg7
S'FCO'
p1154
sg9
S'SHA'
p1155
ssS'930'
p1156
(dp1157
g4
S'0'
sg5
S'3'
sg6
S'6'
sg7
S'FCO'
p1158
sg9
S'LGW'
p1159
ssS'937'
p1160
(dp1161
g4
S'0'
sg5
S'1'
sg6
S'5'
sg7
S'YYZ'
p1162
sg9
S'MCO'
p1163
ssS'629'
p1164
(dp1165
g4
S'0'
sg5
S'1'
sg6
S'3'
sg7
S'BOM'
p1166
sg9
S'SYD'
p1167
ssS'409'
p1168
(dp1169
g4
S'0'
sg5
S'1'
sg6
S'4'
sg7
S'SEA'
p1170
sg9
S'BCN'
p1171
ssS'408'
p1172
(dp1173
g4
S'1'
sg5
S'1'
sg6
S'3'
sg7
S'CTU'
p1174
sg9
S'SHA'
p1175
ssS'628'
p1176
(dp1177
g4
S'0'
sg5
S'4'
sg6
S'4'
sg7
S'BOM'
p1178
sg9
S'GRU'
p1179
ssS'758'
p1180
(dp1181
g4
S'0'
sg5
S'1'
sg6
S'4'
sg7
S'BOM'
p1182
sg9
S'BCN'
p1183
ssS'379'
p1184
(dp1185
g4
S'1'
sg5
S'4'
sg6
S'4'
sg7
S'CTU'
p1186
sg9
S'LGW'
p1187
ssS'378'
p1188
(dp1189
g4
S'1'
sg5
S'2'
sg6
S'4'
sg7
S'CTU'
p1190
sg9
S'SYD'
p1191
ssS'829'
p1192
(dp1193
g4
S'0'
sg5
S'1'
sg6
S'4'
sg7
S'BOM'
p1194
sg9
S'MCO'
p1195
ssS'828'
p1196
(dp1197
g4
S'0'
sg5
S'1'
sg6
S'5'
sg7
S'MUC'
p1198
sg9
S'SZX'
p1199
ssS'371'
p1200
(dp1201
g4
S'2'
sg5
S'3'
sg6
S'5'
sg7
S'MUC'
p1202
sg9
S'LGW'
p1203
ssS'370'
p1204
(dp1205
g4
S'2'
sg5
S'2'
sg6
S'6'
sg7
S'BOM'
p1206
sg9
S'BCN'
p1207
ssS'373'
p1208
(dp1209
g4
S'0'
sg5
S'2'
sg6
S'4'
sg7
S'FCO'
p1210
sg9
S'LGW'
p1211
ssS'372'
p1212
(dp1213
g4
S'2'
sg5
S'1'
sg6
S'3'
sg7
S'MUC'
p1214
sg9
S'GRU'
p1215
ssS'375'
p1216
(dp1217
g4
S'1'
sg5
S'4'
sg6
S'3'
sg7
S'MUC'
p1218
sg9
S'LGW'
p1219
ssS'374'
p1220
(dp1221
g4
S'1'
sg5
S'1'
sg6
S'5'
sg7
S'CTU'
p1222
sg9
S'LGW'
p1223
ssS'377'
p1224
(dp1225
g4
S'1'
sg5
S'2'
sg6
S'4'
sg7
S'FCO'
p1226
sg9
S'SZX'
p1227
ssS'376'
p1228
(dp1229
g4
S'2'
sg5
S'4'
sg6
S'3'
sg7
S'YYZ'
p1230
sg9
S'SYD'
p1231
ssS'708'
p1232
(dp1233
g4
S'1'
sg5
S'3'
sg6
S'3'
sg7
S'BOM'
p1234
sg9
S'SHA'
p1235
ssS'709'
p1236
(dp1237
g4
S'0'
sg5
S'2'
sg6
S'4'
sg7
S'YYZ'
p1238
sg9
S'MCO'
p1239
ssS'704'
p1240
(dp1241
g4
S'0'
sg5
S'2'
sg6
S'4'
sg7
S'BOM'
p1242
sg9
S'SYD'
p1243
ssS'705'
p1244
(dp1245
g4
S'1'
sg5
S'2'
sg6
S'3'
sg7
S'SEA'
p1246
sg9
S'GRU'
p1247
ssS'706'
p1248
(dp1249
g4
S'0'
sg5
S'2'
sg6
S'6'
sg7
S'SEA'
p1250
sg9
S'MCO'
p1251
ssS'707'
p1252
(dp1253
g4
S'1'
sg5
S'1'
sg6
S'6'
sg7
S'CTU'
p1254
sg9
S'GRU'
p1255
ssS'700'
p1256
(dp1257
g4
S'1'
sg5
S'1'
sg6
S'5'
sg7
S'YYZ'
p1258
sg9
S'LGW'
p1259
ssS'618'
p1260
(dp1261
g4
S'2'
sg5
S'3'
sg6
S'3'
sg7
S'YYZ'
p1262
sg9
S'GRU'
p1263
ssS'702'
p1264
(dp1265
g4
S'1'
sg5
S'3'
sg6
S'6'
sg7
S'FCO'
p1266
sg9
S'BCN'
p1267
ssS'703'
p1268
(dp1269
g4
S'0'
sg5
S'3'
sg6
S'3'
sg7
S'BOM'
p1270
sg9
S'SYD'
p1271
ssS'393'
p1272
(dp1273
g4
S'2'
sg5
S'2'
sg6
S'3'
sg7
S'FCO'
p1274
sg9
S'SZX'
p1275
ssS'392'
p1276
(dp1277
g4
S'0'
sg5
S'2'
sg6
S'5'
sg7
S'CTU'
p1278
sg9
S'SYD'
p1279
ssS'391'
p1280
(dp1281
g4
S'2'
sg5
S'4'
sg6
S'4'
sg7
S'SEA'
p1282
sg9
S'MCO'
p1283
ssS'390'
p1284
(dp1285
g4
S'2'
sg5
S'3'
sg6
S'3'
sg7
S'YYZ'
p1286
sg9
S'LGW'
p1287
ssS'397'
p1288
(dp1289
g4
S'1'
sg5
S'4'
sg6
S'4'
sg7
S'BOM'
p1290
sg9
S'SYD'
p1291
ssS'396'
p1292
(dp1293
g4
S'0'
sg5
S'1'
sg6
S'3'
sg7
S'MUC'
p1294
sg9
S'SZX'
p1295
ssS'395'
p1296
(dp1297
g4
S'1'
sg5
S'2'
sg6
S'3'
sg7
S'MUC'
p1298
sg9
S'LGW'
p1299
ssS'394'
p1300
(dp1301
g4
S'0'
sg5
S'4'
sg6
S'4'
sg7
S'BOM'
p1302
sg9
S'SZX'
p1303
ssS'82'
p1304
(dp1305
g4
S'1'
sg5
S'3'
sg6
S'3'
sg7
S'MUC'
p1306
sg9
S'SYD'
p1307
ssS'83'
p1308
(dp1309
g4
S'1'
sg5
S'1'
sg6
S'4'
sg7
S'FCO'
p1310
sg9
S'MCO'
p1311
ssS'399'
p1312
(dp1313
g4
S'2'
sg5
S'3'
sg6
S'6'
sg7
S'CTU'
p1314
sg9
S'BCN'
p1315
ssS'398'
p1316
(dp1317
g4
S'0'
sg5
S'4'
sg6
S'6'
sg7
S'FCO'
p1318
sg9
S'SYD'
p1319
ssS'86'
p1320
(dp1321
g4
S'2'
sg5
S'4'
sg6
S'4'
sg7
S'MUC'
p1322
sg9
S'LGW'
p1323
ssS'87'
p1324
(dp1325
g4
S'0'
sg5
S'4'
sg6
S'5'
sg7
S'MUC'
p1326
sg9
S'GRU'
p1327
ssS'84'
p1328
(dp1329
g4
S'0'
sg5
S'1'
sg6
S'3'
sg7
S'BOM'
p1330
sg9
S'SYD'
p1331
ssS'85'
p1332
(dp1333
g4
S'0'
sg5
S'3'
sg6
S'5'
sg7
S'BOM'
p1334
sg9
S'GRU'
p1335
ssS'797'
p1336
(dp1337
g4
S'0'
sg5
S'3'
sg6
S'4'
sg7
S'CTU'
p1338
sg9
S'BCN'
p1339
ssS'796'
p1340
(dp1341
g4
S'1'
sg5
S'3'
sg6
S'3'
sg7
S'SEA'
p1342
sg9
S'BCN'
p1343
ssS'795'
p1344
(dp1345
g4
S'0'
sg5
S'3'
sg6
S'4'
sg7
S'FCO'
p1346
sg9
S'SHA'
p1347
ssS'794'
p1348
(dp1349
g4
S'1'
sg5
S'4'
sg6
S'3'
sg7
S'YYZ'
p1350
sg9
S'SZX'
p1351
ssS'793'
p1352
(dp1353
g4
S'1'
sg5
S'3'
sg6
S'3'
sg7
S'MUC'
p1354
sg9
S'BCN'
p1355
ssS'792'
p1356
(dp1357
g4
S'2'
sg5
S'1'
sg6
S'4'
sg7
S'YYZ'
p1358
sg9
S'MCO'
p1359
ssS'791'
p1360
(dp1361
g4
S'0'
sg5
S'1'
sg6
S'3'
sg7
S'BOM'
p1362
sg9
S'MCO'
p1363
ssS'790'
p1364
(dp1365
g4
S'0'
sg5
S'2'
sg6
S'4'
sg7
S'MUC'
p1366
sg9
S'BCN'
p1367
ssS'799'
p1368
(dp1369
g4
S'0'
sg5
S'3'
sg6
S'4'
sg7
S'FCO'
p1370
sg9
S'SHA'
p1371
ssS'798'
p1372
(dp1373
g4
S'0'
sg5
S'4'
sg6
S'3'
sg7
S'FCO'
p1374
sg9
S'SHA'
p1375
ssS'7'
(dp1376
g4
S'0'
sg5
S'4'
sg6
S'5'
sg7
S'YYZ'
p1377
sg9
S'MCO'
p1378
ssS'601'
p1379
(dp1380
g4
S'2'
sg5
S'4'
sg6
S'3'
sg7
S'YYZ'
p1381
sg9
S'SHA'
p1382
ssS'607'
p1383
(dp1384
g4
S'1'
sg5
S'2'
sg6
S'5'
sg7
S'SEA'
p1385
sg9
S'MCO'
p1386
ssS'586'
p1387
(dp1388
g4
S'1'
sg5
S'2'
sg6
S'6'
sg7
S'SEA'
p1389
sg9
S'LGW'
p1390
ssS'587'
p1391
(dp1392
g4
S'2'
sg5
S'4'
sg6
S'6'
sg7
S'MUC'
p1393
sg9
S'MCO'
p1394
ssS'584'
p1395
(dp1396
g4
S'1'
sg5
S'4'
sg6
S'5'
sg7
S'SEA'
p1397
sg9
S'GRU'
p1398
ssS'585'
p1399
(dp1400
g4
S'1'
sg5
S'2'
sg6
S'4'
sg7
S'YYZ'
p1401
sg9
S'GRU'
p1402
ssS'582'
p1403
(dp1404
g4
S'2'
sg5
S'2'
sg6
S'3'
sg7
S'SEA'
p1405
sg9
S'GRU'
p1406
ssS'583'
p1407
(dp1408
g4
S'0'
sg5
S'1'
sg6
S'3'
sg7
S'FCO'
p1409
sg9
S'SHA'
p1410
ssS'580'
p1411
(dp1412
g4
S'2'
sg5
S'2'
sg6
S'5'
sg7
S'MUC'
p1413
sg9
S'SHA'
p1414
ssS'581'
p1415
(dp1416
g4
S'0'
sg5
S'2'
sg6
S'5'
sg7
S'YYZ'
p1417
sg9
S'SZX'
p1418
ssS'588'
p1419
(dp1420
g4
S'0'
sg5
S'4'
sg6
S'4'
sg7
S'CTU'
p1421
sg9
S'SHA'
p1422
ssS'589'
p1423
(dp1424
g4
S'1'
sg5
S'4'
sg6
S'3'
sg7
S'YYZ'
p1425
sg9
S'MCO'
p1426
ssS'245'
p1427
(dp1428
g4
S'0'
sg5
S'4'
sg6
S'3'
sg7
S'YYZ'
p1429
sg9
S'BCN'
p1430
ssS'244'
p1431
(dp1432
g4
S'1'
sg5
S'3'
sg6
S'4'
sg7
S'BOM'
p1433
sg9
S'LGW'
p1434
ssS'247'
p1435
(dp1436
g4
S'1'
sg5
S'3'
sg6
S'6'
sg7
S'BOM'
p1437
sg9
S'SHA'
p1438
ssS'246'
p1439
(dp1440
g4
S'2'
sg5
S'4'
sg6
S'4'
sg7
S'SEA'
p1441
sg9
S'SYD'
p1442
ssS'241'
p1443
(dp1444
g4
S'0'
sg5
S'2'
sg6
S'5'
sg7
S'YYZ'
p1445
sg9
S'SZX'
p1446
ssS'240'
p1447
(dp1448
g4
S'1'
sg5
S'4'
sg6
S'6'
sg7
S'MUC'
p1449
sg9
S'GRU'
p1450
ssS'243'
p1451
(dp1452
g4
S'0'
sg5
S'3'
sg6
S'3'
sg7
S'SEA'
p1453
sg9
S'SHA'
p1454
ssS'242'
p1455
(dp1456
g4
S'0'
sg5
S'3'
sg6
S'4'
sg7
S'FCO'
p1457
sg9
S'SHA'
p1458
ssS'615'
p1459
(dp1460
g4
S'0'
sg5
S'3'
sg6
S'3'
sg7
S'YYZ'
p1461
sg9
S'MCO'
p1462
ssS'249'
p1463
(dp1464
g4
S'0'
sg5
S'2'
sg6
S'3'
sg7
S'FCO'
p1465
sg9
S'SHA'
p1466
ssS'248'
p1467
(dp1468
g4
S'0'
sg5
S'2'
sg6
S'5'
sg7
S'CTU'
p1469
sg9
S'BCN'
p1470
ssS'924'
p1471
(dp1472
g4
S'0'
sg5
S'4'
sg6
S'6'
sg7
S'MUC'
p1473
sg9
S'MCO'
p1474
ssS'970'
p1475
(dp1476
g4
S'1'
sg5
S'3'
sg6
S'5'
sg7
S'SEA'
p1477
sg9
S'LGW'
p1478
ssS'925'
p1479
(dp1480
g4
S'0'
sg5
S'2'
sg6
S'6'
sg7
S'FCO'
p1481
sg9
S'LGW'
p1482
ssS'519'
p1483
(dp1484
g4
S'2'
sg5
S'1'
sg6
S'6'
sg7
S'YYZ'
p1485
sg9
S'SHA'
p1486
ssS'518'
p1487
(dp1488
g4
S'1'
sg5
S'2'
sg6
S'3'
sg7
S'CTU'
p1489
sg9
S'MCO'
p1490
ssS'926'
p1491
(dp1492
g4
S'2'
sg5
S'1'
sg6
S'3'
sg7
S'YYZ'
p1493
sg9
S'GRU'
p1494
ssS'511'
p1495
(dp1496
g4
S'1'
sg5
S'2'
sg6
S'5'
sg7
S'CTU'
p1497
sg9
S'SHA'
p1498
ssS'510'
p1499
(dp1500
g4
S'1'
sg5
S'1'
sg6
S'6'
sg7
S'BOM'
p1501
sg9
S'BCN'
p1502
ssS'513'
p1503
(dp1504
g4
S'2'
sg5
S'1'
sg6
S'3'
sg7
S'MUC'
p1505
sg9
S'GRU'
p1506
ssS'512'
p1507
(dp1508
g4
S'0'
sg5
S'2'
sg6
S'5'
sg7
S'CTU'
p1509
sg9
S'GRU'
p1510
ssS'515'
p1511
(dp1512
g4
S'1'
sg5
S'2'
sg6
S'6'
sg7
S'MUC'
p1513
sg9
S'SZX'
p1514
ssS'514'
p1515
(dp1516
g4
S'0'
sg5
S'4'
sg6
S'5'
sg7
S'FCO'
p1517
sg9
S'SZX'
p1518
ssS'517'
p1519
(dp1520
g4
S'2'
sg5
S'1'
sg6
S'6'
sg7
S'BOM'
p1521
sg9
S'SYD'
p1522
ssS'516'
p1523
(dp1524
g4
S'0'
sg5
S'1'
sg6
S'3'
sg7
S'YYZ'
p1525
sg9
S'MCO'
p1526
ssS'458'
p1527
(dp1528
g4
S'1'
sg5
S'4'
sg6
S'5'
sg7
S'YYZ'
p1529
sg9
S'BCN'
p1530
ssS'459'
p1531
(dp1532
g4
S'2'
sg5
S'4'
sg6
S'3'
sg7
S'YYZ'
p1533
sg9
S'SHA'
p1534
ssS'621'
p1535
(dp1536
g4
S'0'
sg5
S'2'
sg6
S'4'
sg7
S'SEA'
p1537
sg9
S'SHA'
p1538
ssS'620'
p1539
(dp1540
g4
S'0'
sg5
S'4'
sg6
S'4'
sg7
S'MUC'
p1541
sg9
S'GRU'
p1542
ssS'627'
p1543
(dp1544
g4
S'1'
sg5
S'4'
sg6
S'3'
sg7
S'FCO'
p1545
sg9
S'MCO'
p1546
ssS'626'
p1547
(dp1548
g4
S'0'
sg5
S'2'
sg6
S'5'
sg7
S'CTU'
p1549
sg9
S'MCO'
p1550
ssS'625'
p1551
(dp1552
g4
S'0'
sg5
S'2'
sg6
S'4'
sg7
S'CTU'
p1553
sg9
S'GRU'
p1554
ssS'624'
p1555
(dp1556
g4
S'1'
sg5
S'1'
sg6
S'3'
sg7
S'FCO'
p1557
sg9
S'SHA'
p1558
ssS'450'
p1559
(dp1560
g4
S'2'
sg5
S'3'
sg6
S'3'
sg7
S'CTU'
p1561
sg9
S'SZX'
p1562
ssS'451'
p1563
(dp1564
g4
S'0'
sg5
S'2'
sg6
S'3'
sg7
S'FCO'
p1565
sg9
S'GRU'
p1566
ssS'452'
p1567
(dp1568
g4
S'2'
sg5
S'1'
sg6
S'5'
sg7
S'CTU'
p1569
sg9
S'SZX'
p1570
ssS'453'
p1571
(dp1572
g4
S'0'
sg5
S'2'
sg6
S'4'
sg7
S'CTU'
p1573
sg9
S'LGW'
p1574
ssS'454'
p1575
(dp1576
g4
S'1'
sg5
S'1'
sg6
S'4'
sg7
S'YYZ'
p1577
sg9
S'SZX'
p1578
ssS'455'
p1579
(dp1580
g4
S'1'
sg5
S'4'
sg6
S'6'
sg7
S'YYZ'
p1581
sg9
S'SYD'
p1582
ssS'456'
p1583
(dp1584
g4
S'1'
sg5
S'1'
sg6
S'3'
sg7
S'YYZ'
p1585
sg9
S'SHA'
p1586
ssS'457'
p1587
(dp1588
g4
S'1'
sg5
S'1'
sg6
S'5'
sg7
S'SEA'
p1589
sg9
S'SYD'
p1590
ssS'179'
p1591
(dp1592
g4
S'0'
sg5
S'2'
sg6
S'3'
sg7
S'CTU'
p1593
sg9
S'SHA'
p1594
ssS'178'
p1595
(dp1596
g4
S'2'
sg5
S'1'
sg6
S'5'
sg7
S'SEA'
p1597
sg9
S'LGW'
p1598
ssS'177'
p1599
(dp1600
g4
S'2'
sg5
S'3'
sg6
S'5'
sg7
S'SEA'
p1601
sg9
S'SHA'
p1602
ssS'176'
p1603
(dp1604
g4
S'2'
sg5
S'1'
sg6
S'6'
sg7
S'MUC'
p1605
sg9
S'MCO'
p1606
ssS'175'
p1607
(dp1608
g4
S'0'
sg5
S'3'
sg6
S'4'
sg7
S'YYZ'
p1609
sg9
S'LGW'
p1610
ssS'174'
p1611
(dp1612
g4
S'1'
sg5
S'1'
sg6
S'5'
sg7
S'MUC'
p1613
sg9
S'GRU'
p1614
ssS'173'
p1615
(dp1616
g4
S'1'
sg5
S'2'
sg6
S'5'
sg7
S'CTU'
p1617
sg9
S'LGW'
p1618
ssS'172'
p1619
(dp1620
g4
S'2'
sg5
S'1'
sg6
S'3'
sg7
S'SEA'
p1621
sg9
S'SYD'
p1622
ssS'171'
p1623
(dp1624
g4
S'0'
sg5
S'4'
sg6
S'5'
sg7
S'YYZ'
p1625
sg9
S'LGW'
p1626
ssS'170'
p1627
(dp1628
g4
S'0'
sg5
S'1'
sg6
S'6'
sg7
S'FCO'
p1629
sg9
S'MCO'
p1630
ssS'977'
p1631
(dp1632
g4
S'2'
sg5
S'3'
sg6
S'3'
sg7
S'BOM'
p1633
sg9
S'SYD'
p1634
ssS'656'
p1635
(dp1636
g4
S'2'
sg5
S'1'
sg6
S'5'
sg7
S'SEA'
p1637
sg9
S'MCO'
p1638
ssS'975'
p1639
(dp1640
g4
S'2'
sg5
S'2'
sg6
S'4'
sg7
S'FCO'
p1641
sg9
S'SYD'
p1642
ssS'974'
p1643
(dp1644
g4
S'0'
sg5
S'1'
sg6
S'4'
sg7
S'SEA'
p1645
sg9
S'GRU'
p1646
ssS'973'
p1647
(dp1648
g4
S'0'
sg5
S'2'
sg6
S'4'
sg7
S'BOM'
p1649
sg9
S'SHA'
p1650
ssS'972'
p1651
(dp1652
g4
S'1'
sg5
S'4'
sg6
S'4'
sg7
S'CTU'
p1653
sg9
S'GRU'
p1654
ssS'971'
p1655
(dp1656
g4
S'1'
sg5
S'3'
sg6
S'6'
sg7
S'YYZ'
p1657
sg9
S'SHA'
p1658
ssS'657'
p1659
(dp1660
g4
S'2'
sg5
S'4'
sg6
S'5'
sg7
S'FCO'
p1661
sg9
S'LGW'
p1662
ssS'654'
p1663
(dp1664
g4
S'0'
sg5
S'4'
sg6
S'5'
sg7
S'MUC'
p1665
sg9
S'LGW'
p1666
ssS'979'
p1667
(dp1668
g4
S'0'
sg5
S'4'
sg6
S'5'
sg7
S'CTU'
p1669
sg9
S'BCN'
p1670
ssS'978'
p1671
(dp1672
g4
S'0'
sg5
S'3'
sg6
S'6'
sg7
S'BOM'
p1673
sg9
S'SZX'
p1674
ssS'182'
p1675
(dp1676
g4
S'2'
sg5
S'3'
sg6
S'3'
sg7
S'BOM'
p1677
sg9
S'SZX'
p1678
ssS'183'
p1679
(dp1680
g4
S'0'
sg5
S'1'
sg6
S'3'
sg7
S'BOM'
p1681
sg9
S'SYD'
p1682
ssS'180'
p1683
(dp1684
g4
S'0'
sg5
S'3'
sg6
S'5'
sg7
S'FCO'
p1685
sg9
S'LGW'
p1686
ssS'181'
p1687
(dp1688
g4
S'2'
sg5
S'2'
sg6
S'6'
sg7
S'SEA'
p1689
sg9
S'GRU'
p1690
ssS'186'
p1691
(dp1692
g4
S'0'
sg5
S'2'
sg6
S'5'
sg7
S'BOM'
p1693
sg9
S'BCN'
p1694
ssS'187'
p1695
(dp1696
g4
S'0'
sg5
S'3'
sg6
S'6'
sg7
S'SEA'
p1697
sg9
S'LGW'
p1698
ssS'184'
p1699
(dp1700
g4
S'0'
sg5
S'2'
sg6
S'4'
sg7
S'MUC'
p1701
sg9
S'SZX'
p1702
ssS'185'
p1703
(dp1704
g4
S'2'
sg5
S'2'
sg6
S'3'
sg7
S'MUC'
p1705
sg9
S'SYD'
p1706
ssS'886'
p1707
(dp1708
g4
S'1'
sg5
S'4'
sg6
S'5'
sg7
S'FCO'
p1709
sg9
S'SZX'
p1710
ssS'652'
p1711
(dp1712
g4
S'0'
sg5
S'4'
sg6
S'4'
sg7
S'YYZ'
p1713
sg9
S'SHA'
p1714
ssS'188'
p1715
(dp1716
g4
S'2'
sg5
S'1'
sg6
S'4'
sg7
S'BOM'
p1717
sg9
S'GRU'
p1718
ssS'189'
p1719
(dp1720
g4
S'1'
sg5
S'4'
sg6
S'4'
sg7
S'MUC'
p1721
sg9
S'SYD'
p1722
ssS'658'
p1723
(dp1724
g4
S'2'
sg5
S'2'
sg6
S'5'
sg7
S'BOM'
p1725
sg9
S'MCO'
p1726
ssS'653'
p1727
(dp1728
g4
S'1'
sg5
S'3'
sg6
S'3'
sg7
S'YYZ'
p1729
sg9
S'BCN'
p1730
ssS'650'
p1731
(dp1732
g4
S'0'
sg5
S'4'
sg6
S'4'
sg7
S'YYZ'
p1733
sg9
S'SHA'
p1734
ssS'651'
p1735
(dp1736
g4
S'0'
sg5
S'2'
sg6
S'4'
sg7
S'SEA'
p1737
sg9
S'SHA'
p1738
ssS'764'
p1739
(dp1740
g4
S'2'
sg5
S'1'
sg6
S'3'
sg7
S'SEA'
p1741
sg9
S'GRU'
p1742
ssS'11'
p1743
(dp1744
g4
S'1'
sg5
S'2'
sg6
S'5'
sg7
S'CTU'
p1745
sg9
S'SZX'
p1746
ssS'10'
p1747
(dp1748
g4
S'2'
sg5
S'1'
sg6
S'5'
sg7
S'CTU'
p1749
sg9
S'GRU'
p1750
ssS'13'
p1751
(dp1752
g4
S'1'
sg5
S'2'
sg6
S'4'
sg7
S'SEA'
p1753
sg9
S'BCN'
p1754
ssS'12'
p1755
(dp1756
g4
S'0'
sg5
S'3'
sg6
S'5'
sg7
S'MUC'
p1757
sg9
S'GRU'
p1758
ssS'15'
p1759
(dp1760
g4
S'0'
sg5
S'3'
sg6
S'5'
sg7
S'FCO'
p1761
sg9
S'BCN'
p1762
ssS'14'
p1763
(dp1764
g4
S'1'
sg5
S'3'
sg6
S'4'
sg7
S'YYZ'
p1765
sg9
S'SYD'
p1766
ssS'17'
p1767
(dp1768
g4
S'2'
sg5
S'4'
sg6
S'3'
sg7
S'CTU'
p1769
sg9
S'SHA'
p1770
ssS'16'
p1771
(dp1772
g4
S'1'
sg5
S'2'
sg6
S'6'
sg7
S'SEA'
p1773
sg9
S'SHA'
p1774
ssS'19'
p1775
(dp1776
g4
S'2'
sg5
S'4'
sg6
S'3'
sg7
S'FCO'
p1777
sg9
S'MCO'
p1778
ssS'18'
p1779
(dp1780
g4
S'2'
sg5
S'3'
sg6
S'6'
sg7
S'SEA'
p1781
sg9
S'SHA'
p1782
ssS'863'
p1783
(dp1784
g4
S'2'
sg5
S'3'
sg6
S'6'
sg7
S'CTU'
p1785
sg9
S'BCN'
p1786
ssS'862'
p1787
(dp1788
g4
S'1'
sg5
S'1'
sg6
S'4'
sg7
S'CTU'
p1789
sg9
S'LGW'
p1790
ssS'865'
p1791
(dp1792
g4
S'1'
sg5
S'1'
sg6
S'6'
sg7
S'BOM'
p1793
sg9
S'SZX'
p1794
ssS'864'
p1795
(dp1796
g4
S'2'
sg5
S'4'
sg6
S'4'
sg7
S'SEA'
p1797
sg9
S'LGW'
p1798
ssS'867'
p1799
(dp1800
g4
S'1'
sg5
S'1'
sg6
S'4'
sg7
S'BOM'
p1801
sg9
S'GRU'
p1802
ssS'866'
p1803
(dp1804
g4
S'2'
sg5
S'3'
sg6
S'3'
sg7
S'BOM'
p1805
sg9
S'BCN'
p1806
ssS'884'
p1807
(dp1808
g4
S'0'
sg5
S'3'
sg6
S'3'
sg7
S'BOM'
p1809
sg9
S'SYD'
p1810
ssS'938'
p1811
(dp1812
g4
S'0'
sg5
S'3'
sg6
S'4'
sg7
S'CTU'
p1813
sg9
S'SYD'
p1814
ssS'659'
p1815
(dp1816
g4
S'0'
sg5
S'2'
sg6
S'5'
sg7
S'FCO'
p1817
sg9
S'SYD'
p1818
ssS'883'
p1819
(dp1820
g4
S'2'
sg5
S'1'
sg6
S'4'
sg7
S'YYZ'
p1821
sg9
S'SYD'
p1822
ssS'753'
p1823
(dp1824
g4
S'2'
sg5
S'3'
sg6
S'3'
sg7
S'BOM'
p1825
sg9
S'SHA'
p1826
ssS'881'
p1827
(dp1828
g4
S'2'
sg5
S'4'
sg6
S'5'
sg7
S'SEA'
p1829
sg9
S'MCO'
p1830
ssS'880'
p1831
(dp1832
g4
S'2'
sg5
S'1'
sg6
S'5'
sg7
S'CTU'
p1833
sg9
S'SZX'
p1834
ssS'887'
p1835
(dp1836
g4
S'1'
sg5
S'3'
sg6
S'4'
sg7
S'YYZ'
p1837
sg9
S'SYD'
p1838
ssS'831'
p1839
(dp1840
g4
S'0'
sg5
S'1'
sg6
S'3'
sg7
S'SEA'
p1841
sg9
S'GRU'
p1842
ssS'885'
p1843
(dp1844
g4
S'0'
sg5
S'4'
sg6
S'3'
sg7
S'CTU'
p1845
sg9
S'BCN'
p1846
ssS'752'
p1847
(dp1848
g4
S'1'
sg5
S'3'
sg6
S'5'
sg7
S'SEA'
p1849
sg9
S'BCN'
p1850
ssS'928'
p1851
(dp1852
g4
S'1'
sg5
S'2'
sg6
S'5'
sg7
S'SEA'
p1853
sg9
S'SHA'
p1854
ssS'62'
p1855
(dp1856
g4
S'2'
sg5
S'1'
sg6
S'4'
sg7
S'SEA'
p1857
sg9
S'MCO'
p1858
ssS'888'
p1859
(dp1860
g4
S'1'
sg5
S'2'
sg6
S'5'
sg7
S'SEA'
p1861
sg9
S'BCN'
p1862
ssS'950'
p1863
(dp1864
g4
S'2'
sg5
S'3'
sg6
S'4'
sg7
S'FCO'
p1865
sg9
S'SHA'
p1866
ssS'756'
p1867
(dp1868
g4
S'0'
sg5
S'4'
sg6
S'3'
sg7
S'FCO'
p1869
sg9
S'SZX'
p1870
ssS'929'
p1871
(dp1872
g4
S'0'
sg5
S'1'
sg6
S'3'
sg7
S'BOM'
p1873
sg9
S'SHA'
p1874
ssS'63'
p1875
(dp1876
g4
S'1'
sg5
S'3'
sg6
S'5'
sg7
S'BOM'
p1877
sg9
S'SZX'
p1878
ssS'809'
p1879
(dp1880
g4
S'0'
sg5
S'2'
sg6
S'3'
sg7
S'FCO'
p1881
sg9
S'MCO'
p1882
ssS'322'
p1883
(dp1884
g4
S'0'
sg5
S'4'
sg6
S'6'
sg7
S'CTU'
p1885
sg9
S'SHA'
p1886
ssS'323'
p1887
(dp1888
g4
S'2'
sg5
S'3'
sg6
S'3'
sg7
S'FCO'
p1889
sg9
S'SHA'
p1890
ssS'320'
p1891
(dp1892
g4
S'1'
sg5
S'1'
sg6
S'3'
sg7
S'YYZ'
p1893
sg9
S'GRU'
p1894
ssS'321'
p1895
(dp1896
g4
S'1'
sg5
S'2'
sg6
S'4'
sg7
S'MUC'
p1897
sg9
S'SYD'
p1898
ssS'326'
p1899
(dp1900
g4
S'0'
sg5
S'1'
sg6
S'4'
sg7
S'YYZ'
p1901
sg9
S'MCO'
p1902
ssS'327'
p1903
(dp1904
g4
S'2'
sg5
S'4'
sg6
S'5'
sg7
S'SEA'
p1905
sg9
S'SHA'
p1906
ssS'324'
p1907
(dp1908
g4
S'0'
sg5
S'1'
sg6
S'5'
sg7
S'MUC'
p1909
sg9
S'SYD'
p1910
ssS'325'
p1911
(dp1912
g4
S'1'
sg5
S'4'
sg6
S'4'
sg7
S'BOM'
p1913
sg9
S'BCN'
p1914
ssS'328'
p1915
(dp1916
g4
S'2'
sg5
S'2'
sg6
S'4'
sg7
S'BOM'
p1917
sg9
S'LGW'
p1918
ssS'329'
p1919
(dp1920
g4
S'2'
sg5
S'4'
sg6
S'4'
sg7
S'SEA'
p1921
sg9
S'SYD'
p1922
ssS'759'
p1923
(dp1924
g4
S'0'
sg5
S'4'
sg6
S'4'
sg7
S'YYZ'
p1925
sg9
S'LGW'
p1926
ssS'201'
p1927
(dp1928
g4
S'0'
sg5
S'3'
sg6
S'4'
sg7
S'BOM'
p1929
sg9
S'GRU'
p1930
ssS'200'
p1931
(dp1932
g4
S'2'
sg5
S'4'
sg6
S'3'
sg7
S'SEA'
p1933
sg9
S'SHA'
p1934
ssS'203'
p1935
(dp1936
g4
S'1'
sg5
S'3'
sg6
S'5'
sg7
S'SEA'
p1937
sg9
S'SZX'
p1938
ssS'202'
p1939
(dp1940
g4
S'2'
sg5
S'1'
sg6
S'4'
sg7
S'BOM'
p1941
sg9
S'LGW'
p1942
ssS'205'
p1943
(dp1944
g4
S'1'
sg5
S'4'
sg6
S'5'
sg7
S'MUC'
p1945
sg9
S'GRU'
p1946
ssS'204'
p1947
(dp1948
g4
S'1'
sg5
S'3'
sg6
S'3'
sg7
S'CTU'
p1949
sg9
S'SZX'
p1950
ssS'207'
p1951
(dp1952
g4
S'2'
sg5
S'1'
sg6
S'6'
sg7
S'SEA'
p1953
sg9
S'LGW'
p1954
ssS'206'
p1955
(dp1956
g4
S'2'
sg5
S'3'
sg6
S'6'
sg7
S'MUC'
p1957
sg9
S'LGW'
p1958
ssS'209'
p1959
(dp1960
g4
S'0'
sg5
S'2'
sg6
S'3'
sg7
S'YYZ'
p1961
sg9
S'SHA'
p1962
ssS'208'
p1963
(dp1964
g4
S'1'
sg5
S'4'
sg6
S'6'
sg7
S'MUC'
p1965
sg9
S'SZX'
p1966
ssS'779'
p1967
(dp1968
g4
S'2'
sg5
S'4'
sg6
S'6'
sg7
S'CTU'
p1969
sg9
S'SYD'
p1970
ssS'778'
p1971
(dp1972
g4
S'1'
sg5
S'4'
sg6
S'3'
sg7
S'FCO'
p1973
sg9
S'MCO'
p1974
ssS'889'
p1975
(dp1976
g4
S'2'
sg5
S'4'
sg6
S'3'
sg7
S'FCO'
p1977
sg9
S'SZX'
p1978
ssS'77'
p1979
(dp1980
g4
S'1'
sg5
S'1'
sg6
S'6'
sg7
S'BOM'
p1981
sg9
S'SZX'
p1982
ssS'76'
p1983
(dp1984
g4
S'2'
sg5
S'1'
sg6
S'3'
sg7
S'MUC'
p1985
sg9
S'GRU'
p1986
ssS'75'
p1987
(dp1988
g4
S'2'
sg5
S'3'
sg6
S'4'
sg7
S'SEA'
p1989
sg9
S'MCO'
p1990
ssS'74'
p1991
(dp1992
g4
S'1'
sg5
S'4'
sg6
S'6'
sg7
S'YYZ'
p1993
sg9
S'SYD'
p1994
ssS'73'
p1995
(dp1996
g4
S'1'
sg5
S'1'
sg6
S'5'
sg7
S'YYZ'
p1997
sg9
S'MCO'
p1998
ssS'72'
p1999
(dp2000
g4
S'0'
sg5
S'2'
sg6
S'3'
sg7
S'SEA'
p2001
sg9
S'MCO'
p2002
ssS'71'
p2003
(dp2004
g4
S'0'
sg5
S'4'
sg6
S'5'
sg7
S'YYZ'
p2005
sg9
S'MCO'
p2006
ssS'70'
p2007
(dp2008
g4
S'2'
sg5
S'3'
sg6
S'4'
sg7
S'MUC'
p2009
sg9
S'BCN'
p2010
ssS'655'
p2011
(dp2012
g4
S'2'
sg5
S'3'
sg6
S'6'
sg7
S'BOM'
p2013
sg9
S'SYD'
p2014
ssS'79'
p2015
(dp2016
g4
S'1'
sg5
S'2'
sg6
S'6'
sg7
S'CTU'
p2017
sg9
S'MCO'
p2018
ssS'78'
p2019
(dp2020
g4
S'0'
sg5
S'1'
sg6
S'3'
sg7
S'BOM'
p2021
sg9
S'LGW'
p2022
ssS'2'
(dp2023
g4
S'1'
sg5
S'1'
sg6
S'6'
sg7
S'CTU'
p2024
sg9
S'LGW'
p2025
ssS'805'
p2026
(dp2027
g4
S'2'
sg5
S'2'
sg6
S'5'
sg7
S'MUC'
p2028
sg9
S'BCN'
p2029
ssS'804'
p2030
(dp2031
g4
S'0'
sg5
S'1'
sg6
S'5'
sg7
S'BOM'
p2032
sg9
S'GRU'
p2033
ssS'669'
p2034
(dp2035
g4
S'1'
sg5
S'4'
sg6
S'5'
sg7
S'FCO'
p2036
sg9
S'GRU'
p2037
ssS'668'
p2038
(dp2039
g4
S'0'
sg5
S'1'
sg6
S'5'
sg7
S'SEA'
p2040
sg9
S'BCN'
p2041
ssS'667'
p2042
(dp2043
g4
S'1'
sg5
S'4'
sg6
S'5'
sg7
S'YYZ'
p2044
sg9
S'BCN'
p2045
ssS'666'
p2046
(dp2047
g4
S'2'
sg5
S'4'
sg6
S'3'
sg7
S'BOM'
p2048
sg9
S'GRU'
p2049
ssS'665'
p2050
(dp2051
g4
S'2'
sg5
S'2'
sg6
S'6'
sg7
S'CTU'
p2052
sg9
S'SHA'
p2053
ssS'664'
p2054
(dp2055
g4
S'1'
sg5
S'1'
sg6
S'5'
sg7
S'MUC'
p2056
sg9
S'MCO'
p2057
ssS'663'
p2058
(dp2059
g4
S'0'
sg5
S'4'
sg6
S'3'
sg7
S'CTU'
p2060
sg9
S'SZX'
p2061
ssS'662'
p2062
(dp2063
g4
S'1'
sg5
S'4'
sg6
S'4'
sg7
S'FCO'
p2064
sg9
S'GRU'
p2065
ssS'661'
p2066
(dp2067
g4
S'2'
sg5
S'3'
sg6
S'6'
sg7
S'MUC'
p2068
sg9
S'SHA'
p2069
ssS'660'
p2070
(dp2071
g4
S'0'
sg5
S'2'
sg6
S'3'
sg7
S'BOM'
p2072
sg9
S'GRU'
p2073
ssS'769'
p2074
(dp2075
g4
S'0'
sg5
S'2'
sg6
S'3'
sg7
S'SEA'
p2076
sg9
S'LGW'
p2077
ssS'692'
p2078
(dp2079
g4
S'2'
sg5
S'4'
sg6
S'4'
sg7
S'FCO'
p2080
sg9
S'LGW'
p2081
ssS'693'
p2082
(dp2083
g4
S'2'
sg5
S'2'
sg6
S'6'
sg7
S'FCO'
p2084
sg9
S'SZX'
p2085
ssS'690'
p2086
(dp2087
g4
S'2'
sg5
S'1'
sg6
S'6'
sg7
S'YYZ'
p2088
sg9
S'SHA'
p2089
ssS'691'
p2090
(dp2091
g4
S'0'
sg5
S'3'
sg6
S'6'
sg7
S'MUC'
p2092
sg9
S'SYD'
p2093
ssS'696'
p2094
(dp2095
g4
S'2'
sg5
S'4'
sg6
S'4'
sg7
S'BOM'
p2096
sg9
S'GRU'
p2097
ssS'697'
p2098
(dp2099
g4
S'2'
sg5
S'3'
sg6
S'3'
sg7
S'BOM'
p2100
sg9
S'MCO'
p2101
ssS'694'
p2102
(dp2103
g4
S'1'
sg5
S'4'
sg6
S'5'
sg7
S'BOM'
p2104
sg9
S'SZX'
p2105
ssS'695'
p2106
(dp2107
g4
S'2'
sg5
S'2'
sg6
S'6'
sg7
S'CTU'
p2108
sg9
S'SZX'
p2109
ssS'698'
p2110
(dp2111
g4
S'2'
sg5
S'2'
sg6
S'6'
sg7
S'FCO'
p2112
sg9
S'BCN'
p2113
ssS'699'
p2114
(dp2115
g4
S'1'
sg5
S'3'
sg6
S'3'
sg7
S'CTU'
p2116
sg9
S'SZX'
p2117
ssS'542'
p2118
(dp2119
g4
S'1'
sg5
S'3'
sg6
S'6'
sg7
S'SEA'
p2120
sg9
S'GRU'
p2121
ssS'543'
p2122
(dp2123
g4
S'0'
sg5
S'3'
sg6
S'6'
sg7
S'FCO'
p2124
sg9
S'LGW'
p2125
ssS'540'
p2126
(dp2127
g4
S'1'
sg5
S'3'
sg6
S'4'
sg7
S'MUC'
p2128
sg9
S'GRU'
p2129
ssS'541'
p2130
(dp2131
g4
S'1'
sg5
S'1'
sg6
S'4'
sg7
S'MUC'
p2132
sg9
S'SZX'
p2133
ssS'546'
p2134
(dp2135
g4
S'2'
sg5
S'3'
sg6
S'5'
sg7
S'CTU'
p2136
sg9
S'SZX'
p2137
ssS'547'
p2138
(dp2139
g4
S'1'
sg5
S'4'
sg6
S'6'
sg7
S'YYZ'
p2140
sg9
S'SZX'
p2141
ssS'544'
p2142
(dp2143
g4
S'2'
sg5
S'2'
sg6
S'4'
sg7
S'FCO'
p2144
sg9
S'LGW'
p2145
ssS'545'
p2146
(dp2147
g4
S'0'
sg5
S'1'
sg6
S'5'
sg7
S'SEA'
p2148
sg9
S'GRU'
p2149
ssS'8'
(dp2150
g4
S'2'
sg5
S'3'
sg6
S'5'
sg7
S'CTU'
p2151
sg9
S'SYD'
p2152
ssS'548'
p2153
(dp2154
g4
S'0'
sg5
S'3'
sg6
S'4'
sg7
S'SEA'
p2155
sg9
S'SZX'
p2156
ssS'549'
p2157
(dp2158
g4
S'0'
sg5
S'2'
sg6
S'6'
sg7
S'SEA'
p2159
sg9
S'BCN'
p2160
ssS'68'
p2161
(dp2162
g4
S'2'
sg5
S'2'
sg6
S'4'
sg7
S'BOM'
p2163
sg9
S'SYD'
p2164
ssS'598'
p2165
(dp2166
g4
S'1'
sg5
S'2'
sg6
S'6'
sg7
S'YYZ'
p2167
sg9
S'SHA'
p2168
ssS'995'
p2169
(dp2170
g4
S'1'
sg5
S'3'
sg6
S'6'
sg7
S'BOM'
p2171
sg9
S'GRU'
p2172
ssS'869'
p2173
(dp2174
g4
S'1'
sg5
S'2'
sg6
S'6'
sg7
S'SEA'
p2175
sg9
S'GRU'
p2176
ssS'997'
p2177
(dp2178
g4
S'1'
sg5
S'4'
sg6
S'3'
sg7
S'MUC'
p2179
sg9
S'SZX'
p2180
ssS'996'
p2181
(dp2182
g4
S'0'
sg5
S'4'
sg6
S'6'
sg7
S'FCO'
p2183
sg9
S'BCN'
p2184
ssS'991'
p2185
(dp2186
g4
S'1'
sg5
S'4'
sg6
S'6'
sg7
S'YYZ'
p2187
sg9
S'MCO'
p2188
ssS'990'
p2189
(dp2190
g4
S'2'
sg5
S'4'
sg6
S'4'
sg7
S'BOM'
p2191
sg9
S'BCN'
p2192
ssS'993'
p2193
(dp2194
g4
S'0'
sg5
S'3'
sg6
S'5'
sg7
S'BOM'
p2195
sg9
S'GRU'
p2196
ssS'868'
p2197
(dp2198
g4
S'1'
sg5
S'2'
sg6
S'6'
sg7
S'BOM'
p2199
sg9
S'LGW'
p2200
ssS'999'
p2201
(dp2202
g4
S'2'
sg5
S'2'
sg6
S'3'
sg7
S'BOM'
p2203
sg9
S'SYD'
p2204
ssS'998'
p2205
(dp2206
g4
S'1'
sg5
S'3'
sg6
S'6'
sg7
S'MUC'
p2207
sg9
S'BCN'
p2208
ssS'120'
p2209
(dp2210
g4
S'2'
sg5
S'2'
sg6
S'4'
sg7
S'MUC'
p2211
sg9
S'MCO'
p2212
ssS'121'
p2213
(dp2214
g4
S'1'
sg5
S'4'
sg6
S'6'
sg7
S'BOM'
p2215
sg9
S'BCN'
p2216
ssS'122'
p2217
(dp2218
g4
S'1'
sg5
S'2'
sg6
S'3'
sg7
S'YYZ'
p2219
sg9
S'LGW'
p2220
ssS'123'
p2221
(dp2222
g4
S'2'
sg5
S'2'
sg6
S'5'
sg7
S'FCO'
p2223
sg9
S'SYD'
p2224
ssS'124'
p2225
(dp2226
g4
S'0'
sg5
S'1'
sg6
S'4'
sg7
S'CTU'
p2227
sg9
S'SZX'
p2228
ssS'125'
p2229
(dp2230
g4
S'2'
sg5
S'3'
sg6
S'6'
sg7
S'MUC'
p2231
sg9
S'SZX'
p2232
ssS'126'
p2233
(dp2234
g4
S'0'
sg5
S'4'
sg6
S'3'
sg7
S'MUC'
p2235
sg9
S'GRU'
p2236
ssS'127'
p2237
(dp2238
g4
S'2'
sg5
S'4'
sg6
S'3'
sg7
S'BOM'
p2239
sg9
S'LGW'
p2240
ssS'128'
p2241
(dp2242
g4
S'2'
sg5
S'4'
sg6
S'6'
sg7
S'CTU'
p2243
sg9
S'BCN'
p2244
ssS'129'
p2245
(dp2246
g4
S'2'
sg5
S'2'
sg6
S'4'
sg7
S'CTU'
p2247
sg9
S'SYD'
p2248
ssS'765'
p2249
(dp2250
g4
S'0'
sg5
S'1'
sg6
S'5'
sg7
S'BOM'
p2251
sg9
S'SHA'
p2252
ssS'69'
p2253
(dp2254
g4
S'0'
sg5
S'2'
sg6
S'6'
sg7
S'SEA'
p2255
sg9
S'SYD'
p2256
ssS'414'
p2257
(dp2258
g4
S'0'
sg5
S'2'
sg6
S'4'
sg7
S'FCO'
p2259
sg9
S'SYD'
p2260
ssS'415'
p2261
(dp2262
g4
S'0'
sg5
S'3'
sg6
S'5'
sg7
S'YYZ'
p2263
sg9
S'SYD'
p2264
ssS'416'
p2265
(dp2266
g4
S'2'
sg5
S'2'
sg6
S'3'
sg7
S'BOM'
p2267
sg9
S'SYD'
p2268
ssS'417'
p2269
(dp2270
g4
S'0'
sg5
S'1'
sg6
S'6'
sg7
S'BOM'
p2271
sg9
S'SZX'
p2272
ssS'410'
p2273
(dp2274
g4
S'0'
sg5
S'1'
sg6
S'4'
sg7
S'SEA'
p2275
sg9
S'SYD'
p2276
ssS'411'
p2277
(dp2278
g4
S'2'
sg5
S'3'
sg6
S'5'
sg7
S'CTU'
p2279
sg9
S'SHA'
p2280
ssS'412'
p2281
(dp2282
g4
S'2'
sg5
S'2'
sg6
S'3'
sg7
S'BOM'
p2283
sg9
S'MCO'
p2284
ssS'413'
p2285
(dp2286
g4
S'1'
sg5
S'3'
sg6
S'5'
sg7
S'CTU'
p2287
sg9
S'SYD'
p2288
ssS'920'
p2289
(dp2290
g4
S'0'
sg5
S'1'
sg6
S'4'
sg7
S'BOM'
p2291
sg9
S'SYD'
p2292
ssS'498'
p2293
(dp2294
g4
S'0'
sg5
S'2'
sg6
S'3'
sg7
S'BOM'
p2295
sg9
S'SZX'
p2296
ssS'922'
p2297
(dp2298
g4
S'2'
sg5
S'2'
sg6
S'3'
sg7
S'BOM'
p2299
sg9
S'SZX'
p2300
ssS'923'
p2301
(dp2302
g4
S'0'
sg5
S'4'
sg6
S'3'
sg7
S'YYZ'
p2303
sg9
S'SHA'
p2304
ssS'418'
p2305
(dp2306
g4
S'2'
sg5
S'2'
sg6
S'6'
sg7
S'CTU'
p2307
sg9
S'LGW'
p2308
ssS'419'
p2309
(dp2310
g4
S'2'
sg5
S'3'
sg6
S'5'
sg7
S'CTU'
p2311
sg9
S'SYD'
p2312
ssS'776'
p2313
(dp2314
g4
S'1'
sg5
S'1'
sg6
S'5'
sg7
S'MUC'
p2315
sg9
S'SHA'
p2316
ssS'499'
p2317
(dp2318
g4
S'1'
sg5
S'1'
sg6
S'6'
sg7
S'BOM'
p2319
sg9
S'LGW'
p2320
ssS'319'
p2321
(dp2322
g4
S'2'
sg5
S'4'
sg6
S'4'
sg7
S'MUC'
p2323
sg9
S'LGW'
p2324
ssS'318'
p2325
(dp2326
g4
S'1'
sg5
S'1'
sg6
S'3'
sg7
S'YYZ'
p2327
sg9
S'SZX'
p2328
ssS'313'
p2329
(dp2330
g4
S'2'
sg5
S'2'
sg6
S'3'
sg7
S'MUC'
p2331
sg9
S'SYD'
p2332
ssS'312'
p2333
(dp2334
g4
S'2'
sg5
S'4'
sg6
S'5'
sg7
S'BOM'
p2335
sg9
S'LGW'
p2336
ssS'311'
p2337
(dp2338
g4
S'0'
sg5
S'4'
sg6
S'5'
sg7
S'YYZ'
p2339
sg9
S'BCN'
p2340
ssS'310'
p2341
(dp2342
g4
S'0'
sg5
S'2'
sg6
S'6'
sg7
S'YYZ'
p2343
sg9
S'SZX'
p2344
ssS'317'
p2345
(dp2346
g4
S'1'
sg5
S'1'
sg6
S'5'
sg7
S'YYZ'
p2347
sg9
S'LGW'
p2348
ssS'316'
p2349
(dp2350
g4
S'2'
sg5
S'1'
sg6
S'6'
sg7
S'CTU'
p2351
sg9
S'LGW'
p2352
ssS'315'
p2353
(dp2354
g4
S'0'
sg5
S'3'
sg6
S'4'
sg7
S'CTU'
p2355
sg9
S'MCO'
p2356
ssS'314'
p2357
(dp2358
g4
S'0'
sg5
S'3'
sg6
S'3'
sg7
S'FCO'
p2359
sg9
S'MCO'
p2360
ssS'861'
p2361
(dp2362
g4
S'0'
sg5
S'2'
sg6
S'3'
sg7
S'MUC'
p2363
sg9
S'SYD'
p2364
ssS'921'
p2365
(dp2366
g4
S'0'
sg5
S'4'
sg6
S'5'
sg7
S'YYZ'
p2367
sg9
S'BCN'
p2368
ssS'496'
p2369
(dp2370
g4
S'1'
sg5
S'3'
sg6
S'4'
sg7
S'BOM'
p2371
sg9
S'SYD'
p2372
ssS'832'
p2373
(dp2374
g4
S'2'
sg5
S'4'
sg6
S'3'
sg7
S'MUC'
p2375
sg9
S'MCO'
p2376
ssS'833'
p2377
(dp2378
g4
S'2'
sg5
S'1'
sg6
S'3'
sg7
S'CTU'
p2379
sg9
S'SZX'
p2380
ssS'830'
p2381
(dp2382
g4
S'0'
sg5
S'3'
sg6
S'6'
sg7
S'MUC'
p2383
sg9
S'SHA'
p2384
ssS'497'
p2385
(dp2386
g4
S'1'
sg5
S'4'
sg6
S'4'
sg7
S'MUC'
p2387
sg9
S'MCO'
p2388
ssS'836'
p2389
(dp2390
g4
S'0'
sg5
S'3'
sg6
S'3'
sg7
S'FCO'
p2391
sg9
S'SZX'
p2392
ssS'837'
p2393
(dp2394
g4
S'0'
sg5
S'1'
sg6
S'4'
sg7
S'YYZ'
p2395
sg9
S'LGW'
p2396
ssS'834'
p2397
(dp2398
g4
S'2'
sg5
S'4'
sg6
S'3'
sg7
S'YYZ'
p2399
sg9
S'SHA'
p2400
ssS'835'
p2401
(dp2402
g4
S'0'
sg5
S'2'
sg6
S'3'
sg7
S'YYZ'
p2403
sg9
S'LGW'
p2404
ssS'838'
p2405
(dp2406
g4
S'1'
sg5
S'3'
sg6
S'4'
sg7
S'CTU'
p2407
sg9
S'SYD'
p2408
ssS'839'
p2409
(dp2410
g4
S'2'
sg5
S'1'
sg6
S'5'
sg7
S'SEA'
p2411
sg9
S'GRU'
p2412
ssS'808'
p2413
(dp2414
g4
S'0'
sg5
S'4'
sg6
S'4'
sg7
S'BOM'
p2415
sg9
S'SZX'
p2416
ssS'3'
(dp2417
g4
S'0'
sg5
S'3'
sg6
S'6'
sg7
S'CTU'
p2418
sg9
S'LGW'
p2419
ssS'368'
p2420
(dp2421
g4
S'2'
sg5
S'3'
sg6
S'3'
sg7
S'CTU'
p2422
sg9
S'MCO'
p2423
ssS'369'
p2424
(dp2425
g4
S'2'
sg5
S'3'
sg6
S'5'
sg7
S'YYZ'
p2426
sg9
S'GRU'
p2427
ssS'366'
p2428
(dp2429
g4
S'1'
sg5
S'1'
sg6
S'4'
sg7
S'YYZ'
p2430
sg9
S'BCN'
p2431
ssS'367'
p2432
(dp2433
g4
S'1'
sg5
S'1'
sg6
S'3'
sg7
S'SEA'
p2434
sg9
S'BCN'
p2435
ssS'364'
p2436
(dp2437
g4
S'2'
sg5
S'4'
sg6
S'6'
sg7
S'YYZ'
p2438
sg9
S'LGW'
p2439
ssS'365'
p2440
(dp2441
g4
S'1'
sg5
S'1'
sg6
S'3'
sg7
S'CTU'
p2442
sg9
S'SHA'
p2443
ssS'362'
p2444
(dp2445
g4
S'0'
sg5
S'2'
sg6
S'3'
sg7
S'YYZ'
p2446
sg9
S'SHA'
p2447
ssS'363'
p2448
(dp2449
g4
S'2'
sg5
S'3'
sg6
S'5'
sg7
S'MUC'
p2450
sg9
S'GRU'
p2451
ssS'360'
p2452
(dp2453
g4
S'2'
sg5
S'2'
sg6
S'6'
sg7
S'MUC'
p2454
sg9
S'BCN'
p2455
ssS'361'
p2456
(dp2457
g4
S'1'
sg5
S'1'
sg6
S'5'
sg7
S'SEA'
p2458
sg9
S'SHA'
p2459
ssS'959'
p2460
(dp2461
g4
S'0'
sg5
S'4'
sg6
S'3'
sg7
S'FCO'
p2462
sg9
S'BCN'
p2463
ssS'952'
p2464
(dp2465
g4
S'2'
sg5
S'2'
sg6
S'3'
sg7
S'CTU'
p2466
sg9
S'GRU'
p2467
ssS'882'
p2468
(dp2469
g4
S'2'
sg5
S'3'
sg6
S'3'
sg7
S'MUC'
p2470
sg9
S'LGW'
p2471
ssS'380'
p2472
(dp2473
g4
S'2'
sg5
S'1'
sg6
S'3'
sg7
S'CTU'
p2474
sg9
S'SHA'
p2475
ssS'381'
p2476
(dp2477
g4
S'0'
sg5
S'1'
sg6
S'5'
sg7
S'FCO'
p2478
sg9
S'MCO'
p2479
ssS'382'
p2480
(dp2481
g4
S'0'
sg5
S'4'
sg6
S'3'
sg7
S'CTU'
p2482
sg9
S'SZX'
p2483
ssS'383'
p2484
(dp2485
g4
S'1'
sg5
S'2'
sg6
S'5'
sg7
S'BOM'
p2486
sg9
S'SYD'
p2487
ssS'384'
p2488
(dp2489
g4
S'1'
sg5
S'2'
sg6
S'5'
sg7
S'CTU'
p2490
sg9
S'SZX'
p2491
ssS'385'
p2492
(dp2493
g4
S'1'
sg5
S'3'
sg6
S'4'
sg7
S'BOM'
p2494
sg9
S'BCN'
p2495
ssS'386'
p2496
(dp2497
g4
S'0'
sg5
S'3'
sg6
S'5'
sg7
S'BOM'
p2498
sg9
S'SZX'
p2499
ssS'387'
p2500
(dp2501
g4
S'2'
sg5
S'2'
sg6
S'6'
sg7
S'BOM'
p2502
sg9
S'SHA'
p2503
ssS'388'
p2504
(dp2505
g4
S'2'
sg5
S'3'
sg6
S'6'
sg7
S'BOM'
p2506
sg9
S'BCN'
p2507
ssS'389'
p2508
(dp2509
g4
S'0'
sg5
S'4'
sg6
S'5'
sg7
S'FCO'
p2510
sg9
S'MCO'
p2511
ssS'784'
p2512
(dp2513
g4
S'1'
sg5
S'2'
sg6
S'3'
sg7
S'SEA'
p2514
sg9
S'SZX'
p2515
ssS'785'
p2516
(dp2517
g4
S'1'
sg5
S'1'
sg6
S'6'
sg7
S'BOM'
p2518
sg9
S'SZX'
p2519
ssS'786'
p2520
(dp2521
g4
S'0'
sg5
S'1'
sg6
S'5'
sg7
S'YYZ'
p2522
sg9
S'BCN'
p2523
ssS'787'
p2524
(dp2525
g4
S'0'
sg5
S'2'
sg6
S'6'
sg7
S'FCO'
p2526
sg9
S'SYD'
p2527
ssS'780'
p2528
(dp2529
g4
S'1'
sg5
S'2'
sg6
S'5'
sg7
S'CTU'
p2530
sg9
S'LGW'
p2531
ssS'781'
p2532
(dp2533
g4
S'0'
sg5
S'2'
sg6
S'6'
sg7
S'YYZ'
p2534
sg9
S'MCO'
p2535
ssS'782'
p2536
(dp2537
g4
S'1'
sg5
S'2'
sg6
S'6'
sg7
S'SEA'
p2538
sg9
S'LGW'
p2539
ssS'783'
p2540
(dp2541
g4
S'1'
sg5
S'2'
sg6
S'5'
sg7
S'CTU'
p2542
sg9
S'SYD'
p2543
ssS'788'
p2544
(dp2545
g4
S'0'
sg5
S'3'
sg6
S'4'
sg7
S'SEA'
p2546
sg9
S'SYD'
p2547
ssS'789'
p2548
(dp2549
g4
S'0'
sg5
S'4'
sg6
S'6'
sg7
S'MUC'
p2550
sg9
S'SZX'
p2551
ssS'860'
p2552
(dp2553
g4
S'1'
sg5
S'2'
sg6
S'6'
sg7
S'MUC'
p2554
sg9
S'SYD'
p2555
ssS'605'
p2556
(dp2557
g4
S'1'
sg5
S'4'
sg6
S'4'
sg7
S'YYZ'
p2558
sg9
S'SZX'
p2559
ssS'579'
p2560
(dp2561
g4
S'0'
sg5
S'1'
sg6
S'3'
sg7
S'BOM'
p2562
sg9
S'SZX'
p2563
ssS'578'
p2564
(dp2565
g4
S'2'
sg5
S'1'
sg6
S'5'
sg7
S'CTU'
p2566
sg9
S'BCN'
p2567
ssS'604'
p2568
(dp2569
g4
S'1'
sg5
S'3'
sg6
S'3'
sg7
S'CTU'
p2570
sg9
S'SZX'
p2571
ssS'573'
p2572
(dp2573
g4
S'0'
sg5
S'4'
sg6
S'3'
sg7
S'SEA'
p2574
sg9
S'SHA'
p2575
ssS'572'
p2576
(dp2577
g4
S'1'
sg5
S'3'
sg6
S'6'
sg7
S'MUC'
p2578
sg9
S'GRU'
p2579
ssS'571'
p2580
(dp2581
g4
S'1'
sg5
S'2'
sg6
S'3'
sg7
S'MUC'
p2582
sg9
S'SYD'
p2583
ssS'570'
p2584
(dp2585
g4
S'1'
sg5
S'3'
sg6
S'6'
sg7
S'FCO'
p2586
sg9
S'GRU'
p2587
ssS'577'
p2588
(dp2589
g4
S'0'
sg5
S'4'
sg6
S'4'
sg7
S'MUC'
p2590
sg9
S'GRU'
p2591
ssS'576'
p2592
(dp2593
g4
S'2'
sg5
S'3'
sg6
S'6'
sg7
S'SEA'
p2594
sg9
S'GRU'
p2595
ssS'575'
p2596
(dp2597
g4
S'1'
sg5
S'3'
sg6
S'4'
sg7
S'CTU'
p2598
sg9
S'SHA'
p2599
ssS'574'
p2600
(dp2601
g4
S'1'
sg5
S'3'
sg6
S'5'
sg7
S'MUC'
p2602
sg9
S'SHA'
p2603
ssS'60'
p2604
(dp2605
g4
S'2'
sg5
S'2'
sg6
S'5'
sg7
S'BOM'
p2606
sg9
S'LGW'
p2607
ssS'61'
p2608
(dp2609
g4
S'2'
sg5
S'1'
sg6
S'5'
sg7
S'SEA'
p2610
sg9
S'BCN'
p2611
ssS'258'
p2612
(dp2613
g4
S'0'
sg5
S'1'
sg6
S'3'
sg7
S'YYZ'
p2614
sg9
S'SHA'
p2615
ssS'259'
p2616
(dp2617
g4
S'0'
sg5
S'3'
sg6
S'3'
sg7
S'YYZ'
p2618
sg9
S'SZX'
p2619
ssS'64'
p2620
(dp2621
g4
S'0'
sg5
S'1'
sg6
S'4'
sg7
S'SEA'
p2622
sg9
S'SYD'
p2623
ssS'65'
p2624
(dp2625
g4
S'0'
sg5
S'3'
sg6
S'3'
sg7
S'YYZ'
p2626
sg9
S'SZX'
p2627
ssS'66'
p2628
(dp2629
g4
S'1'
sg5
S'2'
sg6
S'4'
sg7
S'YYZ'
p2630
sg9
S'LGW'
p2631
ssS'67'
p2632
(dp2633
g4
S'1'
sg5
S'3'
sg6
S'6'
sg7
S'BOM'
p2634
sg9
S'LGW'
p2635
ssS'252'
p2636
(dp2637
g4
S'0'
sg5
S'1'
sg6
S'6'
sg7
S'FCO'
p2638
sg9
S'SHA'
p2639
ssS'253'
p2640
(dp2641
g4
S'0'
sg5
S'4'
sg6
S'5'
sg7
S'FCO'
p2642
sg9
S'LGW'
p2643
ssS'250'
p2644
(dp2645
g4
S'2'
sg5
S'1'
sg6
S'3'
sg7
S'BOM'
p2646
sg9
S'SZX'
p2647
ssS'251'
p2648
(dp2649
g4
S'0'
sg5
S'3'
sg6
S'6'
sg7
S'FCO'
p2650
sg9
S'GRU'
p2651
ssS'256'
p2652
(dp2653
g4
S'1'
sg5
S'1'
sg6
S'3'
sg7
S'FCO'
p2654
sg9
S'MCO'
p2655
ssS'257'
p2656
(dp2657
g4
S'2'
sg5
S'3'
sg6
S'5'
sg7
S'CTU'
p2658
sg9
S'SHA'
p2659
ssS'254'
p2660
(dp2661
g4
S'2'
sg5
S'1'
sg6
S'6'
sg7
S'YYZ'
p2662
sg9
S'LGW'
p2663
ssS'255'
p2664
(dp2665
g4
S'2'
sg5
S'2'
sg6
S'3'
sg7
S'FCO'
p2666
sg9
S'SYD'
p2667
ssS'603'
p2668
(dp2669
g4
S'1'
sg5
S'1'
sg6
S'6'
sg7
S'BOM'
p2670
sg9
S'BCN'
p2671
ssS'602'
p2672
(dp2673
g4
S'0'
sg5
S'3'
sg6
S'5'
sg7
S'FCO'
p2674
sg9
S'LGW'
p2675
ssS'939'
p2676
(dp2677
g4
S'1'
sg5
S'1'
sg6
S'3'
sg7
S'CTU'
p2678
sg9
S'BCN'
p2679
ssS'731'
p2680
(dp2681
g4
S'1'
sg5
S'2'
sg6
S'4'
sg7
S'FCO'
p2682
sg9
S'GRU'
p2683
ssS'730'
p2684
(dp2685
g4
S'2'
sg5
S'3'
sg6
S'5'
sg7
S'BOM'
p2686
sg9
S'SHA'
p2687
ssS'733'
p2688
(dp2689
g4
S'0'
sg5
S'1'
sg6
S'4'
sg7
S'FCO'
p2690
sg9
S'LGW'
p2691
ssS'732'
p2692
(dp2693
g4
S'1'
sg5
S'4'
sg6
S'6'
sg7
S'YYZ'
p2694
sg9
S'SYD'
p2695
ssS'735'
p2696
(dp2697
g4
S'1'
sg5
S'2'
sg6
S'3'
sg7
S'MUC'
p2698
sg9
S'SHA'
p2699
ssS'734'
p2700
(dp2701
g4
S'2'
sg5
S'3'
sg6
S'5'
sg7
S'YYZ'
p2702
sg9
S'SHA'
p2703
ssS'508'
p2704
(dp2705
g4
S'0'
sg5
S'2'
sg6
S'3'
sg7
S'FCO'
p2706
sg9
S'SHA'
p2707
ssS'509'
p2708
(dp2709
g4
S'0'
sg5
S'3'
sg6
S'3'
sg7
S'FCO'
p2710
sg9
S'GRU'
p2711
ssS'506'
p2712
(dp2713
g4
S'2'
sg5
S'2'
sg6
S'3'
sg7
S'CTU'
p2714
sg9
S'LGW'
p2715
ssS'507'
p2716
(dp2717
g4
S'0'
sg5
S'1'
sg6
S'5'
sg7
S'CTU'
p2718
sg9
S'LGW'
p2719
ssS'504'
p2720
(dp2721
g4
S'1'
sg5
S'1'
sg6
S'3'
sg7
S'SEA'
p2722
sg9
S'BCN'
p2723
ssS'505'
p2724
(dp2725
g4
S'1'
sg5
S'4'
sg6
S'5'
sg7
S'YYZ'
p2726
sg9
S'SHA'
p2727
ssS'502'
p2728
(dp2729
g4
S'2'
sg5
S'3'
sg6
S'5'
sg7
S'MUC'
p2730
sg9
S'LGW'
p2731
ssS'503'
p2732
(dp2733
g4
S'2'
sg5
S'1'
sg6
S'3'
sg7
S'MUC'
p2734
sg9
S'MCO'
p2735
ssS'500'
p2736
(dp2737
g4
S'2'
sg5
S'2'
sg6
S'3'
sg7
S'FCO'
p2738
sg9
S'MCO'
p2739
ssS'501'
p2740
(dp2741
g4
S'0'
sg5
S'4'
sg6
S'3'
sg7
S'SEA'
p2742
sg9
S'SZX'
p2743
ssS'630'
p2744
(dp2745
g4
S'2'
sg5
S'3'
sg6
S'3'
sg7
S'SEA'
p2746
sg9
S'SHA'
p2747
ssS'631'
p2748
(dp2749
g4
S'1'
sg5
S'3'
sg6
S'4'
sg7
S'FCO'
p2750
sg9
S'SHA'
p2751
ssS'632'
p2752
(dp2753
g4
S'1'
sg5
S'1'
sg6
S'5'
sg7
S'MUC'
p2754
sg9
S'MCO'
p2755
ssS'633'
p2756
(dp2757
g4
S'1'
sg5
S'1'
sg6
S'6'
sg7
S'CTU'
p2758
sg9
S'LGW'
p2759
ssS'469'
p2760
(dp2761
g4
S'0'
sg5
S'2'
sg6
S'3'
sg7
S'CTU'
p2762
sg9
S'SHA'
p2763
ssS'468'
p2764
(dp2765
g4
S'1'
sg5
S'3'
sg6
S'6'
sg7
S'MUC'
p2766
sg9
S'BCN'
p2767
ssS'636'
p2768
(dp2769
g4
S'1'
sg5
S'3'
sg6
S'6'
sg7
S'CTU'
p2770
sg9
S'GRU'
p2771
ssS'637'
p2772
(dp2773
g4
S'0'
sg5
S'4'
sg6
S'3'
sg7
S'MUC'
p2774
sg9
S'BCN'
p2775
ssS'465'
p2776
(dp2777
g4
S'0'
sg5
S'4'
sg6
S'6'
sg7
S'CTU'
p2778
sg9
S'LGW'
p2779
ssS'464'
p2780
(dp2781
g4
S'1'
sg5
S'3'
sg6
S'5'
sg7
S'FCO'
p2782
sg9
S'SYD'
p2783
ssS'467'
p2784
(dp2785
g4
S'2'
sg5
S'1'
sg6
S'5'
sg7
S'YYZ'
p2786
sg9
S'SYD'
p2787
ssS'466'
p2788
(dp2789
g4
S'0'
sg5
S'2'
sg6
S'3'
sg7
S'SEA'
p2790
sg9
S'SHA'
p2791
ssS'461'
p2792
(dp2793
g4
S'0'
sg5
S'1'
sg6
S'3'
sg7
S'CTU'
p2794
sg9
S'BCN'
p2795
ssS'460'
p2796
(dp2797
g4
S'1'
sg5
S'2'
sg6
S'4'
sg7
S'FCO'
p2798
sg9
S'LGW'
p2799
ssS'463'
p2800
(dp2801
g4
S'0'
sg5
S'3'
sg6
S'6'
sg7
S'BOM'
p2802
sg9
S'SZX'
p2803
ssS'462'
p2804
(dp2805
g4
S'0'
sg5
S'1'
sg6
S'5'
sg7
S'YYZ'
p2806
sg9
S'SYD'
p2807
ssS'901'
p2808
(dp2809
g4
S'2'
sg5
S'3'
sg6
S'6'
sg7
S'CTU'
p2810
sg9
S'SHA'
p2811
ssS'168'
p2812
(dp2813
g4
S'2'
sg5
S'3'
sg6
S'5'
sg7
S'YYZ'
p2814
sg9
S'SHA'
p2815
ssS'169'
p2816
(dp2817
g4
S'0'
sg5
S'4'
sg6
S'5'
sg7
S'BOM'
p2818
sg9
S'GRU'
p2819
ssS'164'
p2820
(dp2821
g4
S'0'
sg5
S'4'
sg6
S'5'
sg7
S'YYZ'
p2822
sg9
S'BCN'
p2823
ssS'165'
p2824
(dp2825
g4
S'0'
sg5
S'3'
sg6
S'6'
sg7
S'SEA'
p2826
sg9
S'LGW'
p2827
ssS'166'
p2828
(dp2829
g4
S'0'
sg5
S'4'
sg6
S'3'
sg7
S'SEA'
p2830
sg9
S'GRU'
p2831
ssS'167'
p2832
(dp2833
g4
S'1'
sg5
S'1'
sg6
S'6'
sg7
S'BOM'
p2834
sg9
S'SZX'
p2835
ssS'160'
p2836
(dp2837
g4
S'1'
sg5
S'1'
sg6
S'5'
sg7
S'FCO'
p2838
sg9
S'LGW'
p2839
ssS'161'
p2840
(dp2841
g4
S'2'
sg5
S'3'
sg6
S'4'
sg7
S'BOM'
p2842
sg9
S'MCO'
p2843
ssS'162'
p2844
(dp2845
g4
S'2'
sg5
S'3'
sg6
S'3'
sg7
S'MUC'
p2846
sg9
S'LGW'
p2847
ssS'163'
p2848
(dp2849
g4
S'0'
sg5
S'2'
sg6
S'4'
sg7
S'YYZ'
p2850
sg9
S'SZX'
p2851
ssS'964'
p2852
(dp2853
g4
S'1'
sg5
S'2'
sg6
S'6'
sg7
S'SEA'
p2854
sg9
S'SHA'
p2855
ssS'965'
p2856
(dp2857
g4
S'1'
sg5
S'4'
sg6
S'6'
sg7
S'FCO'
p2858
sg9
S'MCO'
p2859
ssS'966'
p2860
(dp2861
g4
S'2'
sg5
S'1'
sg6
S'4'
sg7
S'CTU'
p2862
sg9
S'LGW'
p2863
ssS'967'
p2864
(dp2865
g4
S'2'
sg5
S'1'
sg6
S'5'
sg7
S'SEA'
p2866
sg9
S'MCO'
p2867
ssS'960'
p2868
(dp2869
g4
S'1'
sg5
S'2'
sg6
S'3'
sg7
S'FCO'
p2870
sg9
S'SZX'
p2871
ssS'961'
p2872
(dp2873
g4
S'0'
sg5
S'1'
sg6
S'3'
sg7
S'MUC'
p2874
sg9
S'SZX'
p2875
ssS'962'
p2876
(dp2877
g4
S'1'
sg5
S'4'
sg6
S'6'
sg7
S'YYZ'
p2878
sg9
S'SZX'
p2879
ssS'963'
p2880
(dp2881
g4
S'0'
sg5
S'3'
sg6
S'4'
sg7
S'FCO'
p2882
sg9
S'SHA'
p2883
ssS'968'
p2884
(dp2885
g4
S'1'
sg5
S'3'
sg6
S'3'
sg7
S'FCO'
p2886
sg9
S'SZX'
p2887
ssS'969'
p2888
(dp2889
g4
S'2'
sg5
S'1'
sg6
S'5'
sg7
S'BOM'
p2890
sg9
S'SZX'
p2891
ssS'936'
p2892
(dp2893
g4
S'1'
sg5
S'2'
sg6
S'5'
sg7
S'SEA'
p2894
sg9
S'MCO'
p2895
ssS'935'
p2896
(dp2897
g4
S'1'
sg5
S'2'
sg6
S'5'
sg7
S'FCO'
p2898
sg9
S'MCO'
p2899
ssS'934'
p2900
(dp2901
g4
S'2'
sg5
S'3'
sg6
S'3'
sg7
S'CTU'
p2902
sg9
S'LGW'
p2903
ssS'908'
p2904
(dp2905
g4
S'0'
sg5
S'2'
sg6
S'4'
sg7
S'YYZ'
p2906
sg9
S'GRU'
p2907
ssS'909'
p2908
(dp2909
g4
S'1'
sg5
S'4'
sg6
S'5'
sg7
S'FCO'
p2910
sg9
S'LGW'
p2911
ssS'600'
p2912
(dp2913
g4
S'2'
sg5
S'1'
sg6
S'5'
sg7
S'CTU'
p2914
sg9
S'BCN'
p2915
ssS'878'
p2916
(dp2917
g4
S'1'
sg5
S'1'
sg6
S'4'
sg7
S'YYZ'
p2918
sg9
S'BCN'
p2919
ssS'879'
p2920
(dp2921
g4
S'2'
sg5
S'2'
sg6
S'6'
sg7
S'CTU'
p2922
sg9
S'BCN'
p2923
ssS'876'
p2924
(dp2925
g4
S'1'
sg5
S'2'
sg6
S'3'
sg7
S'MUC'
p2926
sg9
S'BCN'
p2927
ssS'877'
p2928
(dp2929
g4
S'0'
sg5
S'1'
sg6
S'5'
sg7
S'FCO'
p2930
sg9
S'BCN'
p2931
ssS'874'
p2932
(dp2933
g4
S'1'
sg5
S'4'
sg6
S'3'
sg7
S'YYZ'
p2934
sg9
S'SZX'
p2935
ssS'875'
p2936
(dp2937
g4
S'2'
sg5
S'4'
sg6
S'3'
sg7
S'SEA'
p2938
sg9
S'LGW'
p2939
ssS'872'
p2940
(dp2941
g4
S'1'
sg5
S'1'
sg6
S'6'
sg7
S'YYZ'
p2942
sg9
S'SZX'
p2943
ssS'873'
p2944
(dp2945
g4
S'0'
sg5
S'2'
sg6
S'3'
sg7
S'MUC'
p2946
sg9
S'SZX'
p2947
ssS'870'
p2948
(dp2949
g4
S'1'
sg5
S'4'
sg6
S'6'
sg7
S'FCO'
p2950
sg9
S'SHA'
p2951
ssS'871'
p2952
(dp2953
g4
S'0'
sg5
S'1'
sg6
S'5'
sg7
S'CTU'
p2954
sg9
S'SHA'
p2955
ssS'9'
(dp2956
g4
S'0'
sg5
S'3'
sg6
S'5'
sg7
S'MUC'
p2957
sg9
S'SZX'
p2958
ssS'890'
p2959
(dp2960
g4
S'1'
sg5
S'3'
sg6
S'6'
sg7
S'CTU'
p2961
sg9
S'MCO'
p2962
ssS'891'
p2963
(dp2964
g4
S'0'
sg5
S'3'
sg6
S'3'
sg7
S'MUC'
p2965
sg9
S'BCN'
p2966
ssS'892'
p2967
(dp2968
g4
S'0'
sg5
S'2'
sg6
S'6'
sg7
S'MUC'
p2969
sg9
S'SZX'
p2970
ssS'893'
p2971
(dp2972
g4
S'0'
sg5
S'2'
sg6
S'3'
sg7
S'YYZ'
p2973
sg9
S'SYD'
p2974
ssS'894'
p2975
(dp2976
g4
S'1'
sg5
S'3'
sg6
S'5'
sg7
S'MUC'
p2977
sg9
S'SYD'
p2978
ssS'647'
p2979
(dp2980
g4
S'2'
sg5
S'4'
sg6
S'6'
sg7
S'FCO'
p2981
sg9
S'SZX'
p2982
ssS'896'
p2983
(dp2984
g4
S'2'
sg5
S'4'
sg6
S'6'
sg7
S'CTU'
p2985
sg9
S'MCO'
p2986
ssS'897'
p2987
(dp2988
g4
S'2'
sg5
S'1'
sg6
S'6'
sg7
S'FCO'
p2989
sg9
S'SYD'
p2990
ssS'898'
p2991
(dp2992
g4
S'2'
sg5
S'1'
sg6
S'5'
sg7
S'SEA'
p2993
sg9
S'SYD'
p2994
ssS'899'
p2995
(dp2996
g4
S'2'
sg5
S'4'
sg6
S'5'
sg7
S'MUC'
p2997
sg9
S'BCN'
p2998
ssS'646'
p2999
(dp3000
g4
S'0'
sg5
S'1'
sg6
S'6'
sg7
S'FCO'
p3001
sg9
S'SYD'
p3002
ssS'649'
p3003
(dp3004
g4
S'0'
sg5
S'2'
sg6
S'4'
sg7
S'BOM'
p3005
sg9
S'MCO'
p3006
ssS'648'
p3007
(dp3008
g4
S'2'
sg5
S'3'
sg6
S'4'
sg7
S'FCO'
p3009
sg9
S'BCN'
p3010
ssS'357'
p3011
(dp3012
g4
S'1'
sg5
S'4'
sg6
S'4'
sg7
S'FCO'
p3013
sg9
S'BCN'
p3014
ssS'356'
p3015
(dp3016
g4
S'2'
sg5
S'1'
sg6
S'6'
sg7
S'YYZ'
p3017
sg9
S'SHA'
p3018
ssS'355'
p3019
(dp3020
g4
S'2'
sg5
S'2'
sg6
S'3'
sg7
S'CTU'
p3021
sg9
S'GRU'
p3022
ssS'354'
p3023
(dp3024
g4
S'1'
sg5
S'3'
sg6
S'4'
sg7
S'MUC'
p3025
sg9
S'LGW'
p3026
ssS'353'
p3027
(dp3028
g4
S'2'
sg5
S'1'
sg6
S'4'
sg7
S'CTU'
p3029
sg9
S'SHA'
p3030
ssS'352'
p3031
(dp3032
g4
S'1'
sg5
S'2'
sg6
S'5'
sg7
S'YYZ'
p3033
sg9
S'MCO'
p3034
ssS'351'
p3035
(dp3036
g4
S'2'
sg5
S'1'
sg6
S'5'
sg7
S'BOM'
p3037
sg9
S'BCN'
p3038
ssS'350'
p3039
(dp3040
g4
S'2'
sg5
S'4'
sg6
S'3'
sg7
S'MUC'
p3041
sg9
S'SYD'
p3042
ssS'803'
p3043
(dp3044
g4
S'0'
sg5
S'3'
sg6
S'5'
sg7
S'YYZ'
p3045
sg9
S'SHA'
p3046
ssS'802'
p3047
(dp3048
g4
S'1'
sg5
S'4'
sg6
S'4'
sg7
S'SEA'
p3049
sg9
S'MCO'
p3050
ssS'801'
p3051
(dp3052
g4
S'0'
sg5
S'4'
sg6
S'4'
sg7
S'MUC'
p3053
sg9
S'MCO'
p3054
ssS'800'
p3055
(dp3056
g4
S'2'
sg5
S'2'
sg6
S'5'
sg7
S'YYZ'
p3057
sg9
S'GRU'
p3058
ssS'807'
p3059
(dp3060
g4
S'0'
sg5
S'3'
sg6
S'6'
sg7
S'MUC'
p3061
sg9
S'SZX'
p3062
ssS'806'
p3063
(dp3064
g4
S'1'
sg5
S'2'
sg6
S'4'
sg7
S'SEA'
p3065
sg9
S'MCO'
p3066
ssS'359'
p3067
(dp3068
g4
S'0'
sg5
S'3'
sg6
S'4'
sg7
S'YYZ'
p3069
sg9
S'MCO'
p3070
ssS'358'
p3071
(dp3072
g4
S'1'
sg5
S'2'
sg6
S'4'
sg7
S'YYZ'
p3073
sg9
S'SYD'
p3074
ssS'216'
p3075
(dp3076
g4
S'0'
sg5
S'3'
sg6
S'6'
sg7
S'MUC'
p3077
sg9
S'LGW'
p3078
ssS'217'
p3079
(dp3080
g4
S'0'
sg5
S'1'
sg6
S'4'
sg7
S'CTU'
p3081
sg9
S'MCO'
p3082
ssS'214'
p3083
(dp3084
g4
S'1'
sg5
S'4'
sg6
S'4'
sg7
S'YYZ'
p3085
sg9
S'SYD'
p3086
ssS'215'
p3087
(dp3088
g4
S'2'
sg5
S'1'
sg6
S'3'
sg7
S'MUC'
p3089
sg9
S'BCN'
p3090
ssS'212'
p3091
(dp3092
g4
S'2'
sg5
S'3'
sg6
S'5'
sg7
S'BOM'
p3093
sg9
S'SZX'
p3094
ssS'213'
p3095
(dp3096
g4
S'1'
sg5
S'1'
sg6
S'6'
sg7
S'MUC'
p3097
sg9
S'BCN'
p3098
ssS'210'
p3099
(dp3100
g4
S'1'
sg5
S'3'
sg6
S'4'
sg7
S'BOM'
p3101
sg9
S'LGW'
p3102
ssS'211'
p3103
(dp3104
g4
S'2'
sg5
S'4'
sg6
S'4'
sg7
S'YYZ'
p3105
sg9
S'SHA'
p3106
ssS'762'
p3107
(dp3108
g4
S'1'
sg5
S'2'
sg6
S'3'
sg7
S'MUC'
p3109
sg9
S'SHA'
p3110
ssS'763'
p3111
(dp3112
g4
S'1'
sg5
S'1'
sg6
S'5'
sg7
S'MUC'
p3113
sg9
S'MCO'
p3114
ssS'760'
p3115
(dp3116
g4
S'1'
sg5
S'4'
sg6
S'5'
sg7
S'YYZ'
p3117
sg9
S'MCO'
p3118
ssS'761'
p3119
(dp3120
g4
S'2'
sg5
S'2'
sg6
S'4'
sg7
S'FCO'
p3121
sg9
S'MCO'
p3122
ssS'766'
p3123
(dp3124
g4
S'0'
sg5
S'2'
sg6
S'4'
sg7
S'FCO'
p3125
sg9
S'GRU'
p3126
ssS'767'
p3127
(dp3128
g4
S'0'
sg5
S'2'
sg6
S'5'
sg7
S'SEA'
p3129
sg9
S'LGW'
p3130
ssS'218'
p3131
(dp3132
g4
S'2'
sg5
S'4'
sg6
S'3'
sg7
S'SEA'
p3133
sg9
S'GRU'
p3134
ssS'219'
p3135
(dp3136
g4
S'2'
sg5
S'2'
sg6
S'5'
sg7
S'FCO'
p3137
sg9
S'BCN'
p3138
ssS'957'
p3139
(dp3140
g4
S'2'
sg5
S'2'
sg6
S'5'
sg7
S'BOM'
p3141
sg9
S'SYD'
p3142
ssS'956'
p3143
(dp3144
g4
S'0'
sg5
S'3'
sg6
S'4'
sg7
S'MUC'
p3145
sg9
S'SZX'
p3146
ssS'289'
p3147
(dp3148
g4
S'1'
sg5
S'3'
sg6
S'6'
sg7
S'CTU'
p3149
sg9
S'SZX'
p3150
ssS'288'
p3151
(dp3152
g4
S'2'
sg5
S'3'
sg6
S'5'
sg7
S'FCO'
p3153
sg9
S'SZX'
p3154
ssS'4'
(dp3155
g4
S'1'
sg5
S'4'
sg6
S'4'
sg7
S'YYZ'
p3156
sg9
S'SZX'
p3157
ssS'281'
p3158
(dp3159
g4
S'0'
sg5
S'3'
sg6
S'6'
sg7
S'MUC'
p3160
sg9
S'BCN'
p3161
ssS'280'
p3162
(dp3163
g4
S'1'
sg5
S'4'
sg6
S'6'
sg7
S'CTU'
p3164
sg9
S'MCO'
p3165
ssS'283'
p3166
(dp3167
g4
S'2'
sg5
S'3'
sg6
S'6'
sg7
S'BOM'
p3168
sg9
S'BCN'
p3169
ssS'282'
p3170
(dp3171
g4
S'1'
sg5
S'4'
sg6
S'6'
sg7
S'CTU'
p3172
sg9
S'GRU'
p3173
ssS'285'
p3174
(dp3175
g4
S'0'
sg5
S'3'
sg6
S'3'
sg7
S'FCO'
p3176
sg9
S'BCN'
p3177
ssS'284'
p3178
(dp3179
g4
S'1'
sg5
S'4'
sg6
S'4'
sg7
S'CTU'
p3180
sg9
S'SYD'
p3181
ssS'287'
p3182
(dp3183
g4
S'2'
sg5
S'1'
sg6
S'3'
sg7
S'CTU'
p3184
sg9
S'SZX'
p3185
ssS'286'
p3186
(dp3187
g4
S'1'
sg5
S'2'
sg6
S'6'
sg7
S'FCO'
p3188
sg9
S'GRU'
p3189
ssS'678'
p3190
(dp3191
g4
S'1'
sg5
S'2'
sg6
S'4'
sg7
S'MUC'
p3192
sg9
S'GRU'
p3193
ssS'679'
p3194
(dp3195
g4
S'1'
sg5
S'1'
sg6
S'3'
sg7
S'BOM'
p3196
sg9
S'SHA'
p3197
ssS'674'
p3198
(dp3199
g4
S'0'
sg5
S'2'
sg6
S'5'
sg7
S'CTU'
p3200
sg9
S'BCN'
p3201
ssS'675'
p3202
(dp3203
g4
S'1'
sg5
S'1'
sg6
S'6'
sg7
S'CTU'
p3204
sg9
S'MCO'
p3205
ssS'676'
p3206
(dp3207
g4
S'0'
sg5
S'2'
sg6
S'6'
sg7
S'CTU'
p3208
sg9
S'BCN'
p3209
ssS'677'
p3210
(dp3211
g4
S'0'
sg5
S'4'
sg6
S'3'
sg7
S'CTU'
p3212
sg9
S'GRU'
p3213
ssS'670'
p3214
(dp3215
g4
S'2'
sg5
S'4'
sg6
S'6'
sg7
S'YYZ'
p3216
sg9
S'LGW'
p3217
ssS'671'
p3218
(dp3219
g4
S'2'
sg5
S'2'
sg6
S'6'
sg7
S'BOM'
p3220
sg9
S'LGW'
p3221
ssS'672'
p3222
(dp3223
g4
S'1'
sg5
S'2'
sg6
S'5'
sg7
S'BOM'
p3224
sg9
S'MCO'
p3225
ssS'673'
p3226
(dp3227
g4
S'0'
sg5
S'3'
sg6
S'3'
sg7
S'YYZ'
p3228
sg9
S'SHA'
p3229
ssS'263'
p3230
(dp3231
g4
S'1'
sg5
S'4'
sg6
S'3'
sg7
S'FCO'
p3232
sg9
S'MCO'
p3233
ssS'262'
p3234
(dp3235
g4
S'0'
sg5
S'1'
sg6
S'3'
sg7
S'FCO'
p3236
sg9
S'GRU'
p3237
ssS'261'
p3238
(dp3239
g4
S'2'
sg5
S'2'
sg6
S'5'
sg7
S'BOM'
p3240
sg9
S'GRU'
p3241
ssS'260'
p3242
(dp3243
g4
S'0'
sg5
S'2'
sg6
S'6'
sg7
S'SEA'
p3244
sg9
S'MCO'
p3245
ssS'267'
p3246
(dp3247
g4
S'1'
sg5
S'2'
sg6
S'5'
sg7
S'CTU'
p3248
sg9
S'GRU'
p3249
ssS'266'
p3250
(dp3251
g4
S'1'
sg5
S'2'
sg6
S'4'
sg7
S'FCO'
p3252
sg9
S'SHA'
p3253
ssS'265'
p3254
(dp3255
g4
S'0'
sg5
S'2'
sg6
S'6'
sg7
S'YYZ'
p3256
sg9
S'GRU'
p3257
ssS'264'
p3258
(dp3259
g4
S'2'
sg5
S'4'
sg6
S'4'
sg7
S'YYZ'
p3260
sg9
S'GRU'
p3261
ssS'269'
p3262
(dp3263
g4
S'2'
sg5
S'3'
sg6
S'3'
sg7
S'BOM'
p3264
sg9
S'SYD'
p3265
ssS'268'
p3266
(dp3267
g4
S'1'
sg5
S'4'
sg6
S'6'
sg7
S'MUC'
p3268
sg9
S'SHA'
p3269
ssS'701'
p3270
(dp3271
g4
S'2'
sg5
S'4'
sg6
S'5'
sg7
S'YYZ'
p3272
sg9
S'LGW'
p3273
ssS'59'
p3274
(dp3275
g4
S'2'
sg5
S'2'
sg6
S'4'
sg7
S'YYZ'
p3276
sg9
S'SZX'
p3277
ssS'58'
p3278
(dp3279
g4
S'1'
sg5
S'1'
sg6
S'4'
sg7
S'FCO'
p3280
sg9
S'LGW'
p3281
ssS'55'
p3282
(dp3283
g4
S'2'
sg5
S'1'
sg6
S'5'
sg7
S'BOM'
p3284
sg9
S'LGW'
p3285
ssS'54'
p3286
(dp3287
g4
S'0'
sg5
S'2'
sg6
S'5'
sg7
S'FCO'
p3288
sg9
S'LGW'
p3289
ssS'57'
p3290
(dp3291
g4
S'0'
sg5
S'3'
sg6
S'6'
sg7
S'FCO'
p3292
sg9
S'BCN'
p3293
ssS'56'
p3294
(dp3295
g4
S'1'
sg5
S'1'
sg6
S'4'
sg7
S'YYZ'
p3296
sg9
S'SZX'
p3297
ssS'51'
p3298
(dp3299
g4
S'2'
sg5
S'1'
sg6
S'4'
sg7
S'BOM'
p3300
sg9
S'SYD'
p3301
ssS'50'
p3302
(dp3303
g4
S'2'
sg5
S'1'
sg6
S'6'
sg7
S'YYZ'
p3304
sg9
S'MCO'
p3305
ssS'53'
p3306
(dp3307
g4
S'1'
sg5
S'2'
sg6
S'4'
sg7
S'CTU'
p3308
sg9
S'GRU'
p3309
ssS'52'
p3310
(dp3311
g4
S'2'
sg5
S'4'
sg6
S'5'
sg7
S'FCO'
p3312
sg9
S'BCN'
p3313
ssS'537'
p3314
(dp3315
g4
S'0'
sg5
S'2'
sg6
S'5'
sg7
S'SEA'
p3316
sg9
S'MCO'
p3317
ssS'536'
p3318
(dp3319
g4
S'2'
sg5
S'4'
sg6
S'4'
sg7
S'BOM'
p3320
sg9
S'BCN'
p3321
ssS'535'
p3322
(dp3323
g4
S'1'
sg5
S'4'
sg6
S'6'
sg7
S'FCO'
p3324
sg9
S'LGW'
p3325
ssS'534'
p3326
(dp3327
g4
S'2'
sg5
S'4'
sg6
S'6'
sg7
S'BOM'
p3328
sg9
S'LGW'
p3329
ssS'533'
p3330
(dp3331
g4
S'2'
sg5
S'3'
sg6
S'5'
sg7
S'CTU'
p3332
sg9
S'BCN'
p3333
ssS'532'
p3334
(dp3335
g4
S'1'
sg5
S'1'
sg6
S'6'
sg7
S'MUC'
p3336
sg9
S'SHA'
p3337
ssS'531'
p3338
(dp3339
g4
S'2'
sg5
S'4'
sg6
S'3'
sg7
S'YYZ'
p3340
sg9
S'MCO'
p3341
ssS'530'
p3342
(dp3343
g4
S'2'
sg5
S'4'
sg6
S'3'
sg7
S'BOM'
p3344
sg9
S'SHA'
p3345
ssS'539'
p3346
(dp3347
g4
S'0'
sg5
S'2'
sg6
S'5'
sg7
S'BOM'
p3348
sg9
S'BCN'
p3349
ssS'538'
p3350
(dp3351
g4
S'1'
sg5
S'4'
sg6
S'3'
sg7
S'BOM'
p3352
sg9
S'SZX'
p3353
ssS'987'
p3354
(dp3355
g4
S'1'
sg5
S'3'
sg6
S'5'
sg7
S'BOM'
p3356
sg9
S'GRU'
p3357
ssS'775'
p3358
(dp3359
g4
S'0'
sg5
S'3'
sg6
S'4'
sg7
S'BOM'
p3360
sg9
S'BCN'
p3361
ssS'988'
p3362
(dp3363
g4
S'1'
sg5
S'2'
sg6
S'4'
sg7
S'CTU'
p3364
sg9
S'MCO'
p3365
ssS'989'
p3366
(dp3367
g4
S'1'
sg5
S'4'
sg6
S'3'
sg7
S'MUC'
p3368
sg9
S'LGW'
p3369
ssS'774'
p3370
(dp3371
g4
S'0'
sg5
S'2'
sg6
S'3'
sg7
S'SEA'
p3372
sg9
S'GRU'
p3373
ssS'982'
p3374
(dp3375
g4
S'1'
sg5
S'3'
sg6
S'4'
sg7
S'YYZ'
p3376
sg9
S'LGW'
p3377
ssS'983'
p3378
(dp3379
g4
S'1'
sg5
S'1'
sg6
S'4'
sg7
S'SEA'
p3380
sg9
S'MCO'
p3381
ssS'980'
p3382
(dp3383
g4
S'1'
sg5
S'2'
sg6
S'6'
sg7
S'BOM'
p3384
sg9
S'SHA'
p3385
ssS'981'
p3386
(dp3387
g4
S'1'
sg5
S'4'
sg6
S'6'
sg7
S'CTU'
p3388
sg9
S'SZX'
p3389
ssS'986'
p3390
(dp3391
g4
S'0'
sg5
S'4'
sg6
S'4'
sg7
S'YYZ'
p3392
sg9
S'MCO'
p3393
ssS'777'
p3394
(dp3395
g4
S'2'
sg5
S'4'
sg6
S'5'
sg7
S'YYZ'
p3396
sg9
S'SZX'
p3397
ssS'984'
p3398
(dp3399
g4
S'2'
sg5
S'3'
sg6
S'5'
sg7
S'FCO'
p3400
sg9
S'LGW'
p3401
ssS'985'
p3402
(dp3403
g4
S'2'
sg5
S'1'
sg6
S'5'
sg7
S'MUC'
p3404
sg9
S'SZX'
p3405
ssS'115'
p3406
(dp3407
g4
S'1'
sg5
S'2'
sg6
S'4'
sg7
S'FCO'
p3408
sg9
S'MCO'
p3409
ssS'114'
p3410
(dp3411
g4
S'1'
sg5
S'1'
sg6
S'3'
sg7
S'SEA'
p3412
sg9
S'GRU'
p3413
ssS'117'
p3414
(dp3415
g4
S'1'
sg5
S'3'
sg6
S'4'
sg7
S'MUC'
p3416
sg9
S'LGW'
p3417
ssS'116'
p3418
(dp3419
g4
S'1'
sg5
S'1'
sg6
S'4'
sg7
S'FCO'
p3420
sg9
S'SHA'
p3421
ssS'111'
p3422
(dp3423
g4
S'1'
sg5
S'1'
sg6
S'5'
sg7
S'YYZ'
p3424
sg9
S'SYD'
p3425
ssS'110'
p3426
(dp3427
g4
S'2'
sg5
S'2'
sg6
S'6'
sg7
S'BOM'
p3428
sg9
S'GRU'
p3429
ssS'113'
p3430
(dp3431
g4
S'0'
sg5
S'3'
sg6
S'6'
sg7
S'MUC'
p3432
sg9
S'SZX'
p3433
ssS'112'
p3434
(dp3435
g4
S'2'
sg5
S'1'
sg6
S'3'
sg7
S'MUC'
p3436
sg9
S'SHA'
p3437
ssS'771'
p3438
(dp3439
g4
S'1'
sg5
S'4'
sg6
S'3'
sg7
S'MUC'
p3440
sg9
S'MCO'
p3441
ssS'119'
p3442
(dp3443
g4
S'0'
sg5
S'3'
sg6
S'6'
sg7
S'SEA'
p3444
sg9
S'LGW'
p3445
ssS'118'
p3446
(dp3447
g4
S'2'
sg5
S'3'
sg6
S'3'
sg7
S'MUC'
p3448
sg9
S'BCN'
p3449
ssS'770'
p3450
(dp3451
g4
S'2'
sg5
S'1'
sg6
S'6'
sg7
S'YYZ'
p3452
sg9
S'MCO'
p3453
ssS'773'
p3454
(dp3455
g4
S'1'
sg5
S'2'
sg6
S'5'
sg7
S'FCO'
p3456
sg9
S'LGW'
p3457
ssS'772'
p3458
(dp3459
g4
S'0'
sg5
S'1'
sg6
S'6'
sg7
S'CTU'
p3460
sg9
S'SHA'
p3461
ssS'953'
p3462
(dp3463
g4
S'2'
sg5
S'1'
sg6
S'3'
sg7
S'SEA'
p3464
sg9
S'MCO'
p3465
ssS'429'
p3466
(dp3467
g4
S'2'
sg5
S'4'
sg6
S'3'
sg7
S'CTU'
p3468
sg9
S'SZX'
p3469
ssS'428'
p3470
(dp3471
g4
S'2'
sg5
S'4'
sg6
S'3'
sg7
S'BOM'
p3472
sg9
S'SZX'
p3473
ssS'919'
p3474
(dp3475
g4
S'1'
sg5
S'4'
sg6
S'4'
sg7
S'FCO'
p3476
sg9
S'SHA'
p3477
ssS'918'
p3478
(dp3479
g4
S'0'
sg5
S'3'
sg6
S'5'
sg7
S'FCO'
p3480
sg9
S'MCO'
p3481
ssS'421'
p3482
(dp3483
g4
S'2'
sg5
S'4'
sg6
S'4'
sg7
S'CTU'
p3484
sg9
S'MCO'
p3485
ssS'420'
p3486
(dp3487
g4
S'1'
sg5
S'4'
sg6
S'5'
sg7
S'BOM'
p3488
sg9
S'SYD'
p3489
ssS'423'
p3490
(dp3491
g4
S'1'
sg5
S'3'
sg6
S'4'
sg7
S'CTU'
p3492
sg9
S'GRU'
p3493
ssS'422'
p3494
(dp3495
g4
S'0'
sg5
S'4'
sg6
S'3'
sg7
S'BOM'
p3496
sg9
S'BCN'
p3497
ssS'425'
p3498
(dp3499
g4
S'0'
sg5
S'1'
sg6
S'5'
sg7
S'FCO'
p3500
sg9
S'SYD'
p3501
ssS'424'
p3502
(dp3503
g4
S'2'
sg5
S'4'
sg6
S'3'
sg7
S'SEA'
p3504
sg9
S'SHA'
p3505
ssS'427'
p3506
(dp3507
g4
S'2'
sg5
S'4'
sg6
S'6'
sg7
S'SEA'
p3508
sg9
S'GRU'
p3509
ssS'426'
p3510
(dp3511
g4
S'1'
sg5
S'3'
sg6
S'5'
sg7
S'FCO'
p3512
sg9
S'SHA'
p3513
ssS'308'
p3514
(dp3515
g4
S'1'
sg5
S'4'
sg6
S'4'
sg7
S'BOM'
p3516
sg9
S'BCN'
p3517
ssS'309'
p3518
(dp3519
g4
S'0'
sg5
S'3'
sg6
S'3'
sg7
S'BOM'
p3520
sg9
S'SYD'
p3521
ssS'855'
p3522
(dp3523
g4
S'1'
sg5
S'1'
sg6
S'4'
sg7
S'YYZ'
p3524
sg9
S'MCO'
p3525
ssS'300'
p3526
(dp3527
g4
S'2'
sg5
S'3'
sg6
S'6'
sg7
S'SEA'
p3528
sg9
S'SYD'
p3529
ssS'301'
p3530
(dp3531
g4
S'1'
sg5
S'1'
sg6
S'3'
sg7
S'BOM'
p3532
sg9
S'MCO'
p3533
ssS'302'
p3534
(dp3535
g4
S'2'
sg5
S'3'
sg6
S'6'
sg7
S'YYZ'
p3536
sg9
S'BCN'
p3537
ssS'303'
p3538
(dp3539
g4
S'0'
sg5
S'2'
sg6
S'3'
sg7
S'BOM'
p3540
sg9
S'SHA'
p3541
ssS'304'
p3542
(dp3543
g4
S'1'
sg5
S'3'
sg6
S'6'
sg7
S'MUC'
p3544
sg9
S'LGW'
p3545
ssS'305'
p3546
(dp3547
g4
S'0'
sg5
S'4'
sg6
S'3'
sg7
S'FCO'
p3548
sg9
S'SHA'
p3549
ssS'306'
p3550
(dp3551
g4
S'1'
sg5
S'3'
sg6
S'4'
sg7
S'BOM'
p3552
sg9
S'SHA'
p3553
ssS'307'
p3554
(dp3555
g4
S'1'
sg5
S'2'
sg6
S'3'
sg7
S'YYZ'
p3556
sg9
S'MCO'
p3557
ssS'895'
p3558
(dp3559
g4
S'2'
sg5
S'3'
sg6
S'3'
sg7
S'MUC'
p3560
sg9
S'SHA'
p3561
ssS'825'
p3562
(dp3563
g4
S'1'
sg5
S'4'
sg6
S'3'
sg7
S'MUC'
p3564
sg9
S'MCO'
p3565
ssS'824'
p3566
(dp3567
g4
S'2'
sg5
S'1'
sg6
S'4'
sg7
S'CTU'
p3568
sg9
S'GRU'
p3569
ssS'827'
p3570
(dp3571
g4
S'2'
sg5
S'2'
sg6
S'3'
sg7
S'BOM'
p3572
sg9
S'SHA'
p3573
ssS'847'
p3574
(dp3575
g4
S'2'
sg5
S'4'
sg6
S'3'
sg7
S'BOM'
p3576
sg9
S'SHA'
p3577
ssS'846'
p3578
(dp3579
g4
S'2'
sg5
S'3'
sg6
S'3'
sg7
S'MUC'
p3580
sg9
S'MCO'
p3581
ssS'845'
p3582
(dp3583
g4
S'0'
sg5
S'3'
sg6
S'5'
sg7
S'FCO'
p3584
sg9
S'MCO'
p3585
ssS'826'
p3586
(dp3587
g4
S'2'
sg5
S'4'
sg6
S'3'
sg7
S'MUC'
p3588
sg9
S'SHA'
p3589
ssS'843'
p3590
(dp3591
g4
S'1'
sg5
S'2'
sg6
S'4'
sg7
S'SEA'
p3592
sg9
S'LGW'
p3593
ssS'842'
p3594
(dp3595
g4
S'1'
sg5
S'1'
sg6
S'4'
sg7
S'BOM'
p3596
sg9
S'SZX'
p3597
ssS'841'
p3598
(dp3599
g4
S'2'
sg5
S'3'
sg6
S'6'
sg7
S'BOM'
p3600
sg9
S'MCO'
p3601
ssS'840'
p3602
(dp3603
g4
S'0'
sg5
S'1'
sg6
S'5'
sg7
S'SEA'
p3604
sg9
S'SYD'
p3605
ssS'821'
p3606
(dp3607
g4
S'0'
sg5
S'3'
sg6
S'6'
sg7
S'YYZ'
p3608
sg9
S'SHA'
p3609
ssS'853'
p3610
(dp3611
g4
S'0'
sg5
S'4'
sg6
S'5'
sg7
S'MUC'
p3612
sg9
S'BCN'
p3613
ssS'849'
p3614
(dp3615
g4
S'0'
sg5
S'1'
sg6
S'4'
sg7
S'SEA'
p3616
sg9
S'GRU'
p3617
ssS'820'
p3618
(dp3619
g4
S'2'
sg5
S'1'
sg6
S'3'
sg7
S'FCO'
p3620
sg9
S'SZX'
p3621
ssS'823'
p3622
(dp3623
g4
S'0'
sg5
S'3'
sg6
S'5'
sg7
S'MUC'
p3624
sg9
S'LGW'
p3625
ssS'822'
p3626
(dp3627
g4
S'0'
sg5
S'4'
sg6
S'6'
sg7
S'BOM'
p3628
sg9
S'SHA'
p3629
ssS'954'
p3630
(dp3631
g4
S'2'
sg5
S'3'
sg6
S'3'
sg7
S'MUC'
p3632
sg9
S'SYD'
p3633
ssS'568'
p3634
(dp3635
g4
S'2'
sg5
S'4'
sg6
S'3'
sg7
S'FCO'
p3636
sg9
S'GRU'
p3637
ssS'569'
p3638
(dp3639
g4
S'1'
sg5
S'2'
sg6
S'4'
sg7
S'BOM'
p3640
sg9
S'BCN'
p3641
ssS'751'
p3642
(dp3643
g4
S'0'
sg5
S'3'
sg6
S'5'
sg7
S'FCO'
p3644
sg9
S'GRU'
p3645
ssS'750'
p3646
(dp3647
g4
S'1'
sg5
S'3'
sg6
S'5'
sg7
S'YYZ'
p3648
sg9
S'BCN'
p3649
ssS'757'
p3650
(dp3651
g4
S'2'
sg5
S'1'
sg6
S'4'
sg7
S'SEA'
p3652
sg9
S'LGW'
p3653
ssS'737'
p3654
(dp3655
g4
S'1'
sg5
S'1'
sg6
S'6'
sg7
S'YYZ'
p3656
sg9
S'BCN'
p3657
ssS'755'
p3658
(dp3659
g4
S'2'
sg5
S'4'
sg6
S'5'
sg7
S'CTU'
p3660
sg9
S'SYD'
p3661
ssS'754'
p3662
(dp3663
g4
S'2'
sg5
S'3'
sg6
S'5'
sg7
S'MUC'
p3664
sg9
S'GRU'
p3665
ssS'560'
p3666
(dp3667
g4
S'2'
sg5
S'4'
sg6
S'5'
sg7
S'SEA'
p3668
sg9
S'SHA'
p3669
ssS'561'
p3670
(dp3671
g4
S'2'
sg5
S'4'
sg6
S'4'
sg7
S'MUC'
p3672
sg9
S'SYD'
p3673
ssS'562'
p3674
(dp3675
g4
S'0'
sg5
S'1'
sg6
S'4'
sg7
S'MUC'
p3676
sg9
S'GRU'
p3677
ssS'563'
p3678
(dp3679
g4
S'2'
sg5
S'3'
sg6
S'5'
sg7
S'BOM'
p3680
sg9
S'SHA'
p3681
ssS'564'
p3682
(dp3683
g4
S'1'
sg5
S'2'
sg6
S'6'
sg7
S'FCO'
p3684
sg9
S'SZX'
p3685
ssS'565'
p3686
(dp3687
g4
S'2'
sg5
S'1'
sg6
S'3'
sg7
S'SEA'
p3688
sg9
S'SZX'
p3689
ssS'566'
p3690
(dp3691
g4
S'1'
sg5
S'3'
sg6
S'3'
sg7
S'YYZ'
p3692
sg9
S'GRU'
p3693
ssS'567'
p3694
(dp3695
g4
S'0'
sg5
S'1'
sg6
S'6'
sg7
S'YYZ'
p3696
sg9
S'LGW'
p3697
ssS'739'
p3698
(dp3699
g4
S'2'
sg5
S'1'
sg6
S'6'
sg7
S'SEA'
p3700
sg9
S'SYD'
p3701
ssS'229'
p3702
(dp3703
g4
S'0'
sg5
S'3'
sg6
S'6'
sg7
S'MUC'
p3704
sg9
S'BCN'
p3705
ssS'228'
p3706
(dp3707
g4
S'2'
sg5
S'4'
sg6
S'4'
sg7
S'FCO'
p3708
sg9
S'SYD'
p3709
ssS'227'
p3710
(dp3711
g4
S'1'
sg5
S'3'
sg6
S'5'
sg7
S'BOM'
p3712
sg9
S'LGW'
p3713
ssS'226'
p3714
(dp3715
g4
S'2'
sg5
S'3'
sg6
S'3'
sg7
S'SEA'
p3716
sg9
S'GRU'
p3717
ssS'225'
p3718
(dp3719
g4
S'0'
sg5
S'1'
sg6
S'4'
sg7
S'MUC'
p3720
sg9
S'SHA'
p3721
ssS'224'
p3722
(dp3723
g4
S'2'
sg5
S'3'
sg6
S'5'
sg7
S'CTU'
p3724
sg9
S'LGW'
p3725
ssS'223'
p3726
(dp3727
g4
S'2'
sg5
S'2'
sg6
S'6'
sg7
S'SEA'
p3728
sg9
S'MCO'
p3729
ssS'222'
p3730
(dp3731
g4
S'2'
sg5
S'2'
sg6
S'3'
sg7
S'FCO'
p3732
sg9
S'SHA'
p3733
ssS'221'
p3734
(dp3735
g4
S'0'
sg5
S'2'
sg6
S'6'
sg7
S'FCO'
p3736
sg9
S'GRU'
p3737
ssS'220'
p3738
(dp3739
g4
S'2'
sg5
S'3'
sg6
S'5'
sg7
S'YYZ'
p3740
sg9
S'MCO'
p3741
ssS'88'
p3742
(dp3743
g4
S'2'
sg5
S'2'
sg6
S'6'
sg7
S'MUC'
p3744
sg9
S'SYD'
p3745
ssS'726'
p3746
(dp3747
g4
S'1'
sg5
S'4'
sg6
S'3'
sg7
S'MUC'
p3748
sg9
S'LGW'
p3749
ssS'727'
p3750
(dp3751
g4
S'1'
sg5
S'4'
sg6
S'5'
sg7
S'CTU'
p3752
sg9
S'BCN'
p3753
ssS'724'
p3754
(dp3755
g4
S'2'
sg5
S'4'
sg6
S'3'
sg7
S'FCO'
p3756
sg9
S'GRU'
p3757
ssS'725'
p3758
(dp3759
g4
S'2'
sg5
S'4'
sg6
S'4'
sg7
S'MUC'
p3760
sg9
S'SYD'
p3761
ssS'722'
p3762
(dp3763
g4
S'0'
sg5
S'4'
sg6
S'3'
sg7
S'BOM'
p3764
sg9
S'GRU'
p3765
ssS'723'
p3766
(dp3767
g4
S'2'
sg5
S'3'
sg6
S'4'
sg7
S'MUC'
p3768
sg9
S'SYD'
p3769
ssS'720'
p3770
(dp3771
g4
S'1'
sg5
S'4'
sg6
S'3'
sg7
S'CTU'
p3772
sg9
S'GRU'
p3773
ssS'721'
p3774
(dp3775
g4
S'2'
sg5
S'1'
sg6
S'6'
sg7
S'BOM'
p3776
sg9
S'GRU'
p3777
ssS'728'
p3778
(dp3779
g4
S'1'
sg5
S'3'
sg6
S'4'
sg7
S'CTU'
p3780
sg9
S'LGW'
p3781
ssS'729'
p3782
(dp3783
g4
S'0'
sg5
S'3'
sg6
S'6'
sg7
S'SEA'
p3784
sg9
S'SYD'
p3785
ssS'151'
p3786
(dp3787
g4
S'2'
sg5
S'4'
sg6
S'4'
sg7
S'CTU'
p3788
sg9
S'SYD'
p3789
ssS'150'
p3790
(dp3791
g4
S'0'
sg5
S'1'
sg6
S'3'
sg7
S'YYZ'
p3792
sg9
S'MCO'
p3793
ssS'153'
p3794
(dp3795
g4
S'2'
sg5
S'2'
sg6
S'5'
sg7
S'YYZ'
p3796
sg9
S'MCO'
p3797
ssS'152'
p3798
(dp3799
g4
S'2'
sg5
S'1'
sg6
S'6'
sg7
S'SEA'
p3800
sg9
S'BCN'
p3801
ssS'155'
p3802
(dp3803
g4
S'2'
sg5
S'4'
sg6
S'6'
sg7
S'CTU'
p3804
sg9
S'LGW'
p3805
ssS'154'
p3806
(dp3807
g4
S'0'
sg5
S'4'
sg6
S'3'
sg7
S'SEA'
p3808
sg9
S'SHA'
p3809
ssS'157'
p3810
(dp3811
g4
S'1'
sg5
S'1'
sg6
S'5'
sg7
S'YYZ'
p3812
sg9
S'GRU'
p3813
ssS'156'
p3814
(dp3815
g4
S'0'
sg5
S'4'
sg6
S'5'
sg7
S'BOM'
p3816
sg9
S'GRU'
p3817
ssS'159'
p3818
(dp3819
g4
S'1'
sg5
S'4'
sg6
S'3'
sg7
S'MUC'
p3820
sg9
S'SHA'
p3821
ssS'158'
p3822
(dp3823
g4
S'2'
sg5
S'3'
sg6
S'4'
sg7
S'BOM'
p3824
sg9
S'LGW'
p3825
ssS'609'
p3826
(dp3827
g4
S'0'
sg5
S'2'
sg6
S'5'
sg7
S'SEA'
p3828
sg9
S'SHA'
p3829
ssS'608'
p3830
(dp3831
g4
S'0'
sg5
S'2'
sg6
S'6'
sg7
S'BOM'
p3832
sg9
S'SYD'
p3833
ssS'976'
p3834
(dp3835
g4
S'2'
sg5
S'4'
sg6
S'5'
sg7
S'MUC'
p3836
sg9
S'LGW'
p3837
ssS'634'
p3838
(dp3839
g4
S'1'
sg5
S'3'
sg6
S'6'
sg7
S'BOM'
p3840
sg9
S'GRU'
p3841
ssS'80'
p3842
(dp3843
g4
S'1'
sg5
S'1'
sg6
S'3'
sg7
S'MUC'
p3844
sg9
S'GRU'
p3845
ssS'635'
p3846
(dp3847
g4
S'1'
sg5
S'1'
sg6
S'4'
sg7
S'CTU'
p3848
sg9
S'SZX'
p3849
ssS'749'
p3850
(dp3851
g4
S'2'
sg5
S'3'
sg6
S'3'
sg7
S'CTU'
p3852
sg9
S'GRU'
p3853
ssS'958'
p3854
(dp3855
g4
S'2'
sg5
S'3'
sg6
S'6'
sg7
S'CTU'
p3856
sg9
S'SYD'
p3857
ssS'81'
p3858
(dp3859
g4
S'2'
sg5
S'2'
sg6
S'5'
sg7
S'FCO'
p3860
sg9
S'SHA'
p3861
ssS'48'
p3862
(dp3863
g4
S'1'
sg5
S'4'
sg6
S'4'
sg7
S'SEA'
p3864
sg9
S'GRU'
p3865
ssS'49'
p3866
(dp3867
g4
S'2'
sg5
S'2'
sg6
S'6'
sg7
S'BOM'
p3868
sg9
S'GRU'
p3869
ssS'46'
p3870
(dp3871
g4
S'1'
sg5
S'4'
sg6
S'4'
sg7
S'FCO'
p3872
sg9
S'GRU'
p3873
ssS'47'
p3874
(dp3875
g4
S'2'
sg5
S'2'
sg6
S'6'
sg7
S'SEA'
p3876
sg9
S'GRU'
p3877
ssS'44'
p3878
(dp3879
g4
S'1'
sg5
S'4'
sg6
S'4'
sg7
S'MUC'
p3880
sg9
S'SZX'
p3881
ssS'45'
p3882
(dp3883
g4
S'1'
sg5
S'3'
sg6
S'5'
sg7
S'YYZ'
p3884
sg9
S'SZX'
p3885
ssS'42'
p3886
(dp3887
g4
S'0'
sg5
S'2'
sg6
S'3'
sg7
S'CTU'
p3888
sg9
S'MCO'
p3889
ssS'43'
p3890
(dp3891
g4
S'0'
sg5
S'2'
sg6
S'3'
sg7
S'BOM'
p3892
sg9
S'SYD'
p3893
ssS'40'
p3894
(dp3895
g4
S'0'
sg5
S'3'
sg6
S'5'
sg7
S'CTU'
p3896
sg9
S'GRU'
p3897
ssS'41'
p3898
(dp3899
g4
S'1'
sg5
S'3'
sg6
S'5'
sg7
S'BOM'
p3900
sg9
S'BCN'
p3901
ssS'638'
p3902
(dp3903
g4
S'2'
sg5
S'3'
sg6
S'4'
sg7
S'BOM'
p3904
sg9
S'SYD'
p3905
ssS'5'
(dp3906
g4
S'0'
sg5
S'2'
sg6
S'6'
sg7
S'CTU'
p3907
sg9
S'SHA'
p3908
ssS'639'
p3909
(dp3910
g4
S'2'
sg5
S'4'
sg6
S'3'
sg7
S'BOM'
p3911
sg9
S'GRU'
p3912
ssS'489'
p3913
(dp3914
g4
S'1'
sg5
S'1'
sg6
S'3'
sg7
S'BOM'
p3915
sg9
S'SYD'
p3916
ssS'488'
p3917
(dp3918
g4
S'1'
sg5
S'1'
sg6
S'4'
sg7
S'YYZ'
p3919
sg9
S'LGW'
p3920
ssS'487'
p3921
(dp3922
g4
S'1'
sg5
S'2'
sg6
S'5'
sg7
S'FCO'
p3923
sg9
S'SYD'
p3924
ssS'486'
p3925
(dp3926
g4
S'0'
sg5
S'2'
sg6
S'6'
sg7
S'CTU'
p3927
sg9
S'MCO'
p3928
ssS'485'
p3929
(dp3930
g4
S'1'
sg5
S'3'
sg6
S'5'
sg7
S'SEA'
p3931
sg9
S'SHA'
p3932
ssS'484'
p3933
(dp3934
g4
S'0'
sg5
S'3'
sg6
S'3'
sg7
S'CTU'
p3935
sg9
S'LGW'
p3936
ssS'483'
p3937
(dp3938
g4
S'1'
sg5
S'2'
sg6
S'5'
sg7
S'BOM'
p3939
sg9
S'SHA'
p3940
ssS'482'
p3941
(dp3942
g4
S'0'
sg5
S'4'
sg6
S'6'
sg7
S'CTU'
p3943
sg9
S'SZX'
p3944
ssS'481'
p3945
(dp3946
g4
S'0'
sg5
S'3'
sg6
S'3'
sg7
S'MUC'
p3947
sg9
S'LGW'
p3948
ssS'480'
p3949
(dp3950
g4
S'0'
sg5
S'2'
sg6
S'6'
sg7
S'BOM'
p3951
sg9
S'BCN'
p3952
ssS'955'
p3953
(dp3954
g4
S'1'
sg5
S'2'
sg6
S'5'
sg7
S'SEA'
p3955
sg9
S'GRU'
p3956
ssS'472'
p3957
(dp3958
g4
S'2'
sg5
S'2'
sg6
S'4'
sg7
S'SEA'
p3959
sg9
S'MCO'
p3960
ssS'473'
p3961
(dp3962
g4
S'0'
sg5
S'4'
sg6
S'4'
sg7
S'CTU'
p3963
sg9
S'SZX'
p3964
ssS'470'
p3965
(dp3966
g4
S'1'
sg5
S'4'
sg6
S'5'
sg7
S'CTU'
p3967
sg9
S'SZX'
p3968
ssS'471'
p3969
(dp3970
g4
S'2'
sg5
S'3'
sg6
S'4'
sg7
S'SEA'
p3971
sg9
S'SYD'
p3972
ssS'476'
p3973
(dp3974
g4
S'2'
sg5
S'4'
sg6
S'3'
sg7
S'YYZ'
p3975
sg9
S'SHA'
p3976
ssS'477'
p3977
(dp3978
g4
S'1'
sg5
S'1'
sg6
S'6'
sg7
S'YYZ'
p3979
sg9
S'SZX'
p3980
ssS'474'
p3981
(dp3982
g4
S'0'
sg5
S'2'
sg6
S'5'
sg7
S'CTU'
p3983
sg9
S'BCN'
p3984
ssS'475'
p3985
(dp3986
g4
S'1'
sg5
S'2'
sg6
S'6'
sg7
S'SEA'
p3987
sg9
S'MCO'
p3988
ssS'478'
p3989
(dp3990
g4
S'0'
sg5
S'3'
sg6
S'6'
sg7
S'BOM'
p3991
sg9
S'BCN'
p3992
ssS'479'
p3993
(dp3994
g4
S'0'
sg5
S'2'
sg6
S'6'
sg7
S'FCO'
p3995
sg9
S'MCO'
p3996
ss.