(dp1
S'344'
p2
(dp3
S'origin1'
p4
S'BOM'
p5
sS'flightDate1'
p6
S'2'
sS'travelers'
p7
S'3'
sS'flightDate2'
p8
S'3'
sS'flexible'
p9
S'false'
p10
sS'destination1'
p11
S'BCN'
p12
ssS'0'
(dp13
g4
S'CTU'
p14
sg6
S'0'
sg7
S'1'
sg8
S'4'
sg9
S'false'
p15
sg11
S'MCO'
p16
ssS'346'
p17
(dp18
g4
S'MUC'
p19
sg6
S'0'
sg7
S'2'
sg8
S'3'
sg9
S'true'
p20
sg11
S'BCN'
p21
ssS'347'
p22
(dp23
g4
S'BOM'
p24
sg6
S'1'
sg7
S'2'
sg8
S'6'
sg9
S'true'
p25
sg11
S'SZX'
p26
ssS'340'
p27
(dp28
g4
S'YYZ'
p29
sg6
S'0'
sg7
S'1'
sg8
S'4'
sg9
S'false'
p30
sg11
S'GRU'
p31
ssS'341'
p32
(dp33
g4
S'FCO'
p34
sg6
S'0'
sg7
S'1'
sg8
S'6'
sg9
S'false'
p35
sg11
S'SZX'
p36
ssS'342'
p37
(dp38
g4
S'CTU'
p39
sg6
S'0'
sg7
S'2'
sg8
S'4'
sg9
S'true'
p40
sg11
S'SHA'
p41
ssS'343'
p42
(dp43
g4
S'SEA'
p44
sg6
S'1'
sg7
S'2'
sg8
S'4'
sg9
S'false'
p45
sg11
S'SHA'
p46
ssS'810'
p47
(dp48
g4
S'CTU'
p49
sg6
S'2'
sg7
S'4'
sg8
S'3'
sg9
S'false'
p50
sg11
S'GRU'
p51
ssS'811'
p52
(dp53
g4
S'MUC'
p54
sg6
S'0'
sg7
S'2'
sg8
S'3'
sg9
S'false'
p55
sg11
S'SHA'
p56
ssS'812'
p57
(dp58
g4
S'FCO'
p59
sg6
S'1'
sg7
S'3'
sg8
S'5'
sg9
S'false'
p60
sg11
S'GRU'
p61
ssS'813'
p62
(dp63
g4
S'CTU'
p64
sg6
S'2'
sg7
S'2'
sg8
S'3'
sg9
S'true'
p65
sg11
S'SHA'
p66
ssS'348'
p67
(dp68
g4
S'BOM'
p69
sg6
S'2'
sg7
S'2'
sg8
S'4'
sg9
S'true'
p70
sg11
S'GRU'
p71
ssS'349'
p72
(dp73
g4
S'CTU'
p74
sg6
S'0'
sg7
S'3'
sg8
S'5'
sg9
S'true'
p75
sg11
S'MCO'
p76
ssS'816'
p77
(dp78
g4
S'FCO'
p79
sg6
S'2'
sg7
S'4'
sg8
S'5'
sg9
S'false'
p80
sg11
S'SYD'
p81
ssS'817'
p82
(dp83
g4
S'FCO'
p84
sg6
S'0'
sg7
S'2'
sg8
S'5'
sg9
S'false'
p85
sg11
S'SYD'
p86
ssS'595'
p87
(dp88
g4
S'FCO'
p89
sg6
S'2'
sg7
S'2'
sg8
S'3'
sg9
S'false'
p90
sg11
S'MCO'
p91
ssS'719'
p92
(dp93
g4
S'BOM'
p94
sg6
S'0'
sg7
S'4'
sg8
S'3'
sg9
S'false'
p95
sg11
S'SYD'
p96
ssS'718'
p97
(dp98
g4
S'SEA'
p99
sg6
S'2'
sg7
S'1'
sg8
S'6'
sg9
S'true'
p100
sg11
S'MCO'
p101
ssS'717'
p102
(dp103
g4
S'FCO'
p104
sg6
S'2'
sg7
S'2'
sg8
S'5'
sg9
S'false'
p105
sg11
S'GRU'
p106
ssS'716'
p107
(dp108
g4
S'MUC'
p109
sg6
S'0'
sg7
S'2'
sg8
S'6'
sg9
S'false'
p110
sg11
S'SYD'
p111
ssS'715'
p112
(dp113
g4
S'FCO'
p114
sg6
S'2'
sg7
S'3'
sg8
S'3'
sg9
S'false'
p115
sg11
S'LGW'
p116
ssS'714'
p117
(dp118
g4
S'FCO'
p119
sg6
S'2'
sg7
S'2'
sg8
S'3'
sg9
S'false'
p120
sg11
S'SHA'
p121
ssS'713'
p122
(dp123
g4
S'SEA'
p124
sg6
S'2'
sg7
S'4'
sg8
S'6'
sg9
S'false'
p125
sg11
S'SHA'
p126
ssS'712'
p127
(dp128
g4
S'SEA'
p129
sg6
S'1'
sg7
S'1'
sg8
S'4'
sg9
S'false'
p130
sg11
S'LGW'
p131
ssS'711'
p132
(dp133
g4
S'FCO'
p134
sg6
S'0'
sg7
S'3'
sg8
S'6'
sg9
S'true'
p135
sg11
S'LGW'
p136
ssS'710'
p137
(dp138
g4
S'MUC'
p139
sg6
S'1'
sg7
S'1'
sg8
S'3'
sg9
S'false'
p140
sg11
S'SZX'
p141
ssS'915'
p142
(dp143
g4
S'CTU'
p144
sg6
S'2'
sg7
S'1'
sg8
S'6'
sg9
S'false'
p145
sg11
S'SHA'
p146
ssS'914'
p147
(dp148
g4
S'MUC'
p149
sg6
S'2'
sg7
S'3'
sg8
S'5'
sg9
S'true'
p150
sg11
S'MCO'
p151
ssS'606'
p152
(dp153
g4
S'CTU'
p154
sg6
S'1'
sg7
S'1'
sg8
S'4'
sg9
S'true'
p155
sg11
S'LGW'
p156
ssS'917'
p157
(dp158
g4
S'YYZ'
p159
sg6
S'0'
sg7
S'2'
sg8
S'3'
sg9
S'false'
p160
sg11
S'BCN'
p161
ssS'594'
p162
(dp163
g4
S'BOM'
p164
sg6
S'2'
sg7
S'2'
sg8
S'3'
sg9
S'true'
p165
sg11
S'LGW'
p166
ssS'736'
p167
(dp168
g4
S'SEA'
p169
sg6
S'2'
sg7
S'2'
sg8
S'3'
sg9
S'false'
p170
sg11
S'SYD'
p171
ssS'916'
p172
(dp173
g4
S'FCO'
p174
sg6
S'2'
sg7
S'4'
sg8
S'3'
sg9
S'true'
p175
sg11
S'SZX'
p176
ssS'911'
p177
(dp178
g4
S'CTU'
p179
sg6
S'0'
sg7
S'2'
sg8
S'5'
sg9
S'true'
p180
sg11
S'GRU'
p181
ssS'619'
p182
(dp183
g4
S'MUC'
p184
sg6
S'0'
sg7
S'1'
sg8
S'3'
sg9
S'false'
p185
sg11
S'SZX'
p186
ssS'910'
p187
(dp188
g4
S'CTU'
p189
sg6
S'2'
sg7
S'3'
sg8
S'6'
sg9
S'true'
p190
sg11
S'GRU'
p191
ssS'913'
p192
(dp193
g4
S'SEA'
p194
sg6
S'1'
sg7
S'1'
sg8
S'4'
sg9
S'false'
p195
sg11
S'SYD'
p196
ssS'298'
p197
(dp198
g4
S'FCO'
p199
sg6
S'1'
sg7
S'3'
sg8
S'6'
sg9
S'false'
p200
sg11
S'SHA'
p201
ssS'299'
p202
(dp203
g4
S'FCO'
p204
sg6
S'0'
sg7
S'4'
sg8
S'5'
sg9
S'false'
p205
sg11
S'GRU'
p206
ssS'296'
p207
(dp208
g4
S'SEA'
p209
sg6
S'0'
sg7
S'2'
sg8
S'6'
sg9
S'true'
p210
sg11
S'SYD'
p211
ssS'297'
p212
(dp213
g4
S'CTU'
p214
sg6
S'0'
sg7
S'1'
sg8
S'3'
sg9
S'true'
p215
sg11
S'LGW'
p216
ssS'294'
p217
(dp218
g4
S'MUC'
p219
sg6
S'2'
sg7
S'3'
sg8
S'5'
sg9
S'true'
p220
sg11
S'MCO'
p221
ssS'295'
p222
(dp223
g4
S'MUC'
p224
sg6
S'1'
sg7
S'3'
sg8
S'3'
sg9
S'true'
p225
sg11
S'MCO'
p226
ssS'292'
p227
(dp228
g4
S'CTU'
p229
sg6
S'1'
sg7
S'1'
sg8
S'4'
sg9
S'false'
p230
sg11
S'SZX'
p231
ssS'293'
p232
(dp233
g4
S'FCO'
p234
sg6
S'1'
sg7
S'1'
sg8
S'3'
sg9
S'true'
p235
sg11
S'BCN'
p236
ssS'290'
p237
(dp238
g4
S'BOM'
p239
sg6
S'1'
sg7
S'3'
sg8
S'6'
sg9
S'false'
p240
sg11
S'GRU'
p241
ssS'291'
p242
(dp243
g4
S'FCO'
p244
sg6
S'1'
sg7
S'4'
sg8
S'4'
sg9
S'true'
p245
sg11
S'SZX'
p246
ssS'591'
p247
(dp248
g4
S'FCO'
p249
sg6
S'0'
sg7
S'1'
sg8
S'6'
sg9
S'false'
p250
sg11
S'SZX'
p251
ssS'590'
p252
(dp253
g4
S'FCO'
p254
sg6
S'1'
sg7
S'4'
sg8
S'6'
sg9
S'false'
p255
sg11
S'LGW'
p256
ssS'593'
p257
(dp258
g4
S'YYZ'
p259
sg6
S'1'
sg7
S'3'
sg8
S'3'
sg9
S'true'
p260
sg11
S'GRU'
p261
ssS'592'
p262
(dp263
g4
S'FCO'
p264
sg6
S'2'
sg7
S'4'
sg8
S'5'
sg9
S'false'
p265
sg11
S'SHA'
p266
ssS'199'
p267
(dp268
g4
S'SEA'
p269
sg6
S'1'
sg7
S'1'
sg8
S'3'
sg9
S'true'
p270
sg11
S'SHA'
p271
ssS'198'
p272
(dp273
g4
S'MUC'
p274
sg6
S'2'
sg7
S'2'
sg8
S'4'
sg9
S'true'
p275
sg11
S'GRU'
p276
ssS'597'
p277
(dp278
g4
S'BOM'
p279
sg6
S'1'
sg7
S'3'
sg8
S'4'
sg9
S'true'
p280
sg11
S'SHA'
p281
ssS'596'
p282
(dp283
g4
S'YYZ'
p284
sg6
S'2'
sg7
S'3'
sg8
S'6'
sg9
S'false'
p285
sg11
S'GRU'
p286
ssS'195'
p287
(dp288
g4
S'SEA'
p289
sg6
S'1'
sg7
S'4'
sg8
S'3'
sg9
S'true'
p290
sg11
S'BCN'
p291
ssS'194'
p292
(dp293
g4
S'CTU'
p294
sg6
S'1'
sg7
S'4'
sg8
S'3'
sg9
S'false'
p295
sg11
S'SYD'
p296
ssS'197'
p297
(dp298
g4
S'FCO'
p299
sg6
S'0'
sg7
S'1'
sg8
S'3'
sg9
S'false'
p300
sg11
S'SHA'
p301
ssS'196'
p302
(dp303
g4
S'MUC'
p304
sg6
S'2'
sg7
S'3'
sg8
S'6'
sg9
S'false'
p305
sg11
S'LGW'
p306
ssS'191'
p307
(dp308
g4
S'SEA'
p309
sg6
S'0'
sg7
S'2'
sg8
S'3'
sg9
S'true'
p310
sg11
S'SYD'
p311
ssS'190'
p312
(dp313
g4
S'SEA'
p314
sg6
S'0'
sg7
S'1'
sg8
S'5'
sg9
S'false'
p315
sg11
S'SHA'
p316
ssS'193'
p317
(dp318
g4
S'BOM'
p319
sg6
S'1'
sg7
S'1'
sg8
S'4'
sg9
S'false'
p320
sg11
S'GRU'
p321
ssS'192'
p322
(dp323
g4
S'YYZ'
p324
sg6
S'2'
sg7
S'1'
sg8
S'4'
sg9
S'false'
p325
sg11
S'GRU'
p326
ssS'270'
p327
(dp328
g4
S'CTU'
p329
sg6
S'0'
sg7
S'1'
sg8
S'6'
sg9
S'false'
p330
sg11
S'SZX'
p331
ssS'271'
p332
(dp333
g4
S'CTU'
p334
sg6
S'0'
sg7
S'4'
sg8
S'6'
sg9
S'true'
p335
sg11
S'SHA'
p336
ssS'272'
p337
(dp338
g4
S'BOM'
p339
sg6
S'2'
sg7
S'3'
sg8
S'5'
sg9
S'false'
p340
sg11
S'MCO'
p341
ssS'273'
p342
(dp343
g4
S'YYZ'
p344
sg6
S'2'
sg7
S'4'
sg8
S'5'
sg9
S'false'
p345
sg11
S'MCO'
p346
ssS'274'
p347
(dp348
g4
S'YYZ'
p349
sg6
S'2'
sg7
S'4'
sg8
S'3'
sg9
S'true'
p350
sg11
S'BCN'
p351
ssS'275'
p352
(dp353
g4
S'BOM'
p354
sg6
S'1'
sg7
S'1'
sg8
S'4'
sg9
S'true'
p355
sg11
S'GRU'
p356
ssS'276'
p357
(dp358
g4
S'BOM'
p359
sg6
S'0'
sg7
S'3'
sg8
S'4'
sg9
S'true'
p360
sg11
S'MCO'
p361
ssS'277'
p362
(dp363
g4
S'FCO'
p364
sg6
S'2'
sg7
S'3'
sg8
S'5'
sg9
S'false'
p365
sg11
S'BCN'
p366
ssS'278'
p367
(dp368
g4
S'YYZ'
p369
sg6
S'2'
sg7
S'1'
sg8
S'5'
sg9
S'false'
p370
sg11
S'SZX'
p371
ssS'279'
p372
(dp373
g4
S'CTU'
p374
sg6
S'1'
sg7
S'1'
sg8
S'5'
sg9
S'true'
p375
sg11
S'SHA'
p376
ssS'738'
p377
(dp378
g4
S'FCO'
p379
sg6
S'2'
sg7
S'1'
sg8
S'6'
sg9
S'true'
p380
sg11
S'SHA'
p381
ssS'524'
p382
(dp383
g4
S'FCO'
p384
sg6
S'0'
sg7
S'4'
sg8
S'4'
sg9
S'false'
p385
sg11
S'BCN'
p386
ssS'525'
p387
(dp388
g4
S'MUC'
p389
sg6
S'2'
sg7
S'3'
sg8
S'6'
sg9
S'false'
p390
sg11
S'SHA'
p391
ssS'526'
p392
(dp393
g4
S'FCO'
p394
sg6
S'0'
sg7
S'2'
sg8
S'6'
sg9
S'false'
p395
sg11
S'SHA'
p396
ssS'527'
p397
(dp398
g4
S'FCO'
p399
sg6
S'2'
sg7
S'4'
sg8
S'5'
sg9
S'true'
p400
sg11
S'SYD'
p401
ssS'520'
p402
(dp403
g4
S'FCO'
p404
sg6
S'0'
sg7
S'4'
sg8
S'3'
sg9
S'true'
p405
sg11
S'MCO'
p406
ssS'521'
p407
(dp408
g4
S'BOM'
p409
sg6
S'2'
sg7
S'4'
sg8
S'3'
sg9
S'true'
p410
sg11
S'LGW'
p411
ssS'522'
p412
(dp413
g4
S'MUC'
p414
sg6
S'1'
sg7
S'1'
sg8
S'4'
sg9
S'false'
p415
sg11
S'BCN'
p416
ssS'523'
p417
(dp418
g4
S'FCO'
p419
sg6
S'1'
sg7
S'4'
sg8
S'4'
sg9
S'true'
p420
sg11
S'LGW'
p421
ssS'599'
p422
(dp423
g4
S'FCO'
p424
sg6
S'0'
sg7
S'3'
sg8
S'6'
sg9
S'false'
p425
sg11
S'LGW'
p426
ssS'528'
p427
(dp428
g4
S'MUC'
p429
sg6
S'1'
sg7
S'4'
sg8
S'5'
sg9
S'false'
p430
sg11
S'MCO'
p431
ssS'529'
p432
(dp433
g4
S'SEA'
p434
sg6
S'1'
sg7
S'4'
sg8
S'5'
sg9
S'true'
p435
sg11
S'BCN'
p436
ssS'994'
p437
(dp438
g4
S'FCO'
p439
sg6
S'0'
sg7
S'1'
sg8
S'4'
sg9
S'true'
p440
sg11
S'LGW'
p441
ssS'449'
p442
(dp443
g4
S'CTU'
p444
sg6
S'0'
sg7
S'2'
sg8
S'6'
sg9
S'false'
p445
sg11
S'SZX'
p446
ssS'448'
p447
(dp448
g4
S'MUC'
p449
sg6
S'2'
sg7
S'2'
sg8
S'5'
sg9
S'true'
p450
sg11
S'LGW'
p451
ssS'443'
p452
(dp453
g4
S'FCO'
p454
sg6
S'1'
sg7
S'4'
sg8
S'4'
sg9
S'true'
p455
sg11
S'BCN'
p456
ssS'442'
p457
(dp458
g4
S'MUC'
p459
sg6
S'2'
sg7
S'1'
sg8
S'5'
sg9
S'false'
p460
sg11
S'SHA'
p461
ssS'441'
p462
(dp463
g4
S'BOM'
p464
sg6
S'1'
sg7
S'4'
sg8
S'5'
sg9
S'true'
p465
sg11
S'SZX'
p466
ssS'440'
p467
(dp468
g4
S'CTU'
p469
sg6
S'2'
sg7
S'1'
sg8
S'6'
sg9
S'false'
p470
sg11
S'LGW'
p471
ssS'447'
p472
(dp473
g4
S'YYZ'
p474
sg6
S'2'
sg7
S'1'
sg8
S'6'
sg9
S'false'
p475
sg11
S'LGW'
p476
ssS'446'
p477
(dp478
g4
S'FCO'
p479
sg6
S'0'
sg7
S'1'
sg8
S'5'
sg9
S'true'
p480
sg11
S'LGW'
p481
ssS'445'
p482
(dp483
g4
S'FCO'
p484
sg6
S'0'
sg7
S'2'
sg8
S'4'
sg9
S'true'
p485
sg11
S'SZX'
p486
ssS'444'
p487
(dp488
g4
S'FCO'
p489
sg6
S'0'
sg7
S'4'
sg8
S'3'
sg9
S'true'
p490
sg11
S'BCN'
p491
ssS'108'
p492
(dp493
g4
S'CTU'
p494
sg6
S'1'
sg7
S'3'
sg8
S'5'
sg9
S'false'
p495
sg11
S'SHA'
p496
ssS'109'
p497
(dp498
g4
S'BOM'
p499
sg6
S'2'
sg7
S'1'
sg8
S'5'
sg9
S'true'
p500
sg11
S'SZX'
p501
ssS'102'
p502
(dp503
g4
S'SEA'
p504
sg6
S'1'
sg7
S'2'
sg8
S'3'
sg9
S'true'
p505
sg11
S'MCO'
p506
ssS'103'
p507
(dp508
g4
S'YYZ'
p509
sg6
S'0'
sg7
S'4'
sg8
S'4'
sg9
S'false'
p510
sg11
S'SZX'
p511
ssS'100'
p512
(dp513
g4
S'MUC'
p514
sg6
S'2'
sg7
S'1'
sg8
S'4'
sg9
S'true'
p515
sg11
S'LGW'
p516
ssS'101'
p517
(dp518
g4
S'YYZ'
p519
sg6
S'1'
sg7
S'1'
sg8
S'6'
sg9
S'true'
p520
sg11
S'BCN'
p521
ssS'106'
p522
(dp523
g4
S'CTU'
p524
sg6
S'2'
sg7
S'3'
sg8
S'5'
sg9
S'true'
p525
sg11
S'SHA'
p526
ssS'107'
p527
(dp528
g4
S'SEA'
p529
sg6
S'2'
sg7
S'1'
sg8
S'3'
sg9
S'false'
p530
sg11
S'SHA'
p531
ssS'104'
p532
(dp533
g4
S'FCO'
p534
sg6
S'2'
sg7
S'4'
sg8
S'6'
sg9
S'true'
p535
sg11
S'GRU'
p536
ssS'105'
p537
(dp538
g4
S'CTU'
p539
sg6
S'1'
sg7
S'3'
sg8
S'3'
sg9
S'false'
p540
sg11
S'LGW'
p541
ssS'902'
p542
(dp543
g4
S'FCO'
p544
sg6
S'1'
sg7
S'2'
sg8
S'3'
sg9
S'false'
p545
sg11
S'SHA'
p546
ssS'903'
p547
(dp548
g4
S'YYZ'
p549
sg6
S'2'
sg7
S'3'
sg8
S'3'
sg9
S'false'
p550
sg11
S'BCN'
p551
ssS'39'
p552
(dp553
g4
S'SEA'
p554
sg6
S'0'
sg7
S'2'
sg8
S'5'
sg9
S'false'
p555
sg11
S'GRU'
p556
ssS'38'
p557
(dp558
g4
S'FCO'
p559
sg6
S'1'
sg7
S'3'
sg8
S'3'
sg9
S'false'
p560
sg11
S'GRU'
p561
ssS'906'
p562
(dp563
g4
S'BOM'
p564
sg6
S'0'
sg7
S'3'
sg8
S'5'
sg9
S'true'
p565
sg11
S'SZX'
p566
ssS'907'
p567
(dp568
g4
S'MUC'
p569
sg6
S'0'
sg7
S'1'
sg8
S'5'
sg9
S'false'
p570
sg11
S'GRU'
p571
ssS'904'
p572
(dp573
g4
S'FCO'
p574
sg6
S'2'
sg7
S'2'
sg8
S'3'
sg9
S'false'
p575
sg11
S'MCO'
p576
ssS'905'
p577
(dp578
g4
S'CTU'
p579
sg6
S'1'
sg7
S'2'
sg8
S'3'
sg9
S'false'
p580
sg11
S'SZX'
p581
ssS'33'
p582
(dp583
g4
S'MUC'
p584
sg6
S'2'
sg7
S'2'
sg8
S'3'
sg9
S'true'
p585
sg11
S'GRU'
p586
ssS'32'
p587
(dp588
g4
S'MUC'
p589
sg6
S'2'
sg7
S'2'
sg8
S'3'
sg9
S'false'
p590
sg11
S'LGW'
p591
ssS'31'
p592
(dp593
g4
S'SEA'
p594
sg6
S'2'
sg7
S'4'
sg8
S'4'
sg9
S'false'
p595
sg11
S'SZX'
p596
ssS'30'
p597
(dp598
g4
S'FCO'
p599
sg6
S'0'
sg7
S'2'
sg8
S'6'
sg9
S'true'
p600
sg11
S'SHA'
p601
ssS'37'
p602
(dp603
g4
S'BOM'
p604
sg6
S'2'
sg7
S'4'
sg8
S'3'
sg9
S'false'
p605
sg11
S'SHA'
p606
ssS'36'
p607
(dp608
g4
S'CTU'
p609
sg6
S'1'
sg7
S'1'
sg8
S'4'
sg9
S'true'
p610
sg11
S'SHA'
p611
ssS'35'
p612
(dp613
g4
S'FCO'
p614
sg6
S'0'
sg7
S'4'
sg8
S'4'
sg9
S'false'
p615
sg11
S'BCN'
p616
ssS'34'
p617
(dp618
g4
S'SEA'
p619
sg6
S'2'
sg7
S'1'
sg8
S'3'
sg9
S'true'
p620
sg11
S'SYD'
p621
ssS'641'
p622
(dp623
g4
S'SEA'
p624
sg6
S'1'
sg7
S'2'
sg8
S'3'
sg9
S'true'
p625
sg11
S'SYD'
p626
ssS'640'
p627
(dp628
g4
S'SEA'
p629
sg6
S'0'
sg7
S'3'
sg8
S'4'
sg9
S'true'
p630
sg11
S'BCN'
p631
ssS'643'
p632
(dp633
g4
S'FCO'
p634
sg6
S'1'
sg7
S'3'
sg8
S'4'
sg9
S'false'
p635
sg11
S'LGW'
p636
ssS'642'
p637
(dp638
g4
S'CTU'
p639
sg6
S'1'
sg7
S'1'
sg8
S'4'
sg9
S'false'
p640
sg11
S'MCO'
p641
ssS'645'
p642
(dp643
g4
S'MUC'
p644
sg6
S'1'
sg7
S'2'
sg8
S'4'
sg9
S'true'
p645
sg11
S'SHA'
p646
ssS'644'
p647
(dp648
g4
S'MUC'
p649
sg6
S'2'
sg7
S'2'
sg8
S'4'
sg9
S'false'
p650
sg11
S'GRU'
p651
ssS'438'
p652
(dp653
g4
S'MUC'
p654
sg6
S'0'
sg7
S'3'
sg8
S'4'
sg9
S'false'
p655
sg11
S'GRU'
p656
ssS'439'
p657
(dp658
g4
S'YYZ'
p659
sg6
S'1'
sg7
S'1'
sg8
S'6'
sg9
S'true'
p660
sg11
S'BCN'
p661
ssS'436'
p662
(dp663
g4
S'CTU'
p664
sg6
S'0'
sg7
S'2'
sg8
S'4'
sg9
S'true'
p665
sg11
S'BCN'
p666
ssS'437'
p667
(dp668
g4
S'YYZ'
p669
sg6
S'1'
sg7
S'1'
sg8
S'3'
sg9
S'false'
p670
sg11
S'LGW'
p671
ssS'434'
p672
(dp673
g4
S'BOM'
p674
sg6
S'1'
sg7
S'1'
sg8
S'5'
sg9
S'false'
p675
sg11
S'SYD'
p676
ssS'435'
p677
(dp678
g4
S'BOM'
p679
sg6
S'2'
sg7
S'2'
sg8
S'4'
sg9
S'true'
p680
sg11
S'GRU'
p681
ssS'432'
p682
(dp683
g4
S'FCO'
p684
sg6
S'0'
sg7
S'4'
sg8
S'3'
sg9
S'true'
p685
sg11
S'LGW'
p686
ssS'433'
p687
(dp688
g4
S'FCO'
p689
sg6
S'0'
sg7
S'2'
sg8
S'5'
sg9
S'false'
p690
sg11
S'SHA'
p691
ssS'430'
p692
(dp693
g4
S'SEA'
p694
sg6
S'2'
sg7
S'3'
sg8
S'6'
sg9
S'true'
p695
sg11
S'SZX'
p696
ssS'431'
p697
(dp698
g4
S'FCO'
p699
sg6
S'0'
sg7
S'4'
sg8
S'5'
sg9
S'false'
p700
sg11
S'SZX'
p701
ssS'339'
p702
(dp703
g4
S'SEA'
p704
sg6
S'0'
sg7
S'1'
sg8
S'6'
sg9
S'true'
p705
sg11
S'BCN'
p706
ssS'338'
p707
(dp708
g4
S'MUC'
p709
sg6
S'0'
sg7
S'1'
sg8
S'5'
sg9
S'false'
p710
sg11
S'GRU'
p711
ssS'335'
p712
(dp713
g4
S'YYZ'
p714
sg6
S'0'
sg7
S'1'
sg8
S'6'
sg9
S'true'
p715
sg11
S'LGW'
p716
ssS'334'
p717
(dp718
g4
S'CTU'
p719
sg6
S'2'
sg7
S'4'
sg8
S'4'
sg9
S'true'
p720
sg11
S'BCN'
p721
ssS'337'
p722
(dp723
g4
S'CTU'
p724
sg6
S'0'
sg7
S'2'
sg8
S'6'
sg9
S'true'
p725
sg11
S'BCN'
p726
ssS'336'
p727
(dp728
g4
S'BOM'
p729
sg6
S'2'
sg7
S'4'
sg8
S'3'
sg9
S'false'
p730
sg11
S'GRU'
p731
ssS'331'
p732
(dp733
g4
S'BOM'
p734
sg6
S'2'
sg7
S'4'
sg8
S'3'
sg9
S'false'
p735
sg11
S'SZX'
p736
ssS'330'
p737
(dp738
g4
S'BOM'
p739
sg6
S'0'
sg7
S'2'
sg8
S'4'
sg9
S'true'
p740
sg11
S'GRU'
p741
ssS'333'
p742
(dp743
g4
S'CTU'
p744
sg6
S'1'
sg7
S'3'
sg8
S'4'
sg9
S'true'
p745
sg11
S'MCO'
p746
ssS'332'
p747
(dp748
g4
S'FCO'
p749
sg6
S'0'
sg7
S'3'
sg8
S'3'
sg9
S'false'
p750
sg11
S'SYD'
p751
ssS'89'
p752
(dp753
g4
S'BOM'
p754
sg6
S'0'
sg7
S'2'
sg8
S'6'
sg9
S'false'
p755
sg11
S'GRU'
p756
ssS'744'
p757
(dp758
g4
S'MUC'
p759
sg6
S'2'
sg7
S'1'
sg8
S'6'
sg9
S'true'
p760
sg11
S'BCN'
p761
ssS'745'
p762
(dp763
g4
S'FCO'
p764
sg6
S'0'
sg7
S'2'
sg8
S'5'
sg9
S'true'
p765
sg11
S'MCO'
p766
ssS'854'
p767
(dp768
g4
S'MUC'
p769
sg6
S'0'
sg7
S'1'
sg8
S'6'
sg9
S'false'
p770
sg11
S'MCO'
p771
ssS'818'
p772
(dp773
g4
S'BOM'
p774
sg6
S'1'
sg7
S'2'
sg8
S'5'
sg9
S'true'
p775
sg11
S'SHA'
p776
ssS'856'
p777
(dp778
g4
S'CTU'
p779
sg6
S'1'
sg7
S'1'
sg8
S'4'
sg9
S'true'
p780
sg11
S'GRU'
p781
ssS'857'
p782
(dp783
g4
S'CTU'
p784
sg6
S'1'
sg7
S'3'
sg8
S'6'
sg9
S'true'
p785
sg11
S'LGW'
p786
ssS'850'
p787
(dp788
g4
S'BOM'
p789
sg6
S'1'
sg7
S'1'
sg8
S'3'
sg9
S'true'
p790
sg11
S'SHA'
p791
ssS'851'
p792
(dp793
g4
S'SEA'
p794
sg6
S'2'
sg7
S'2'
sg8
S'4'
sg9
S'true'
p795
sg11
S'MCO'
p796
ssS'852'
p797
(dp798
g4
S'SEA'
p799
sg6
S'0'
sg7
S'1'
sg8
S'3'
sg9
S'false'
p800
sg11
S'LGW'
p801
ssS'345'
p802
(dp803
g4
S'SEA'
p804
sg6
S'2'
sg7
S'3'
sg8
S'3'
sg9
S'false'
p805
sg11
S'SHA'
p806
ssS'858'
p807
(dp808
g4
S'CTU'
p809
sg6
S'0'
sg7
S'2'
sg8
S'6'
sg9
S'false'
p810
sg11
S'GRU'
p811
ssS'859'
p812
(dp813
g4
S'FCO'
p814
sg6
S'0'
sg7
S'2'
sg8
S'4'
sg9
S'true'
p815
sg11
S'BCN'
p816
ssS'748'
p817
(dp818
g4
S'YYZ'
p819
sg6
S'1'
sg7
S'1'
sg8
S'6'
sg9
S'false'
p820
sg11
S'SZX'
p821
ssS'6'
(dp822
g4
S'SEA'
p823
sg6
S'0'
sg7
S'1'
sg8
S'4'
sg9
S'false'
p824
sg11
S'SHA'
p825
ssS'900'
p826
(dp827
g4
S'CTU'
p828
sg6
S'2'
sg7
S'2'
sg8
S'3'
sg9
S'true'
p829
sg11
S'GRU'
p830
ssS'848'
p831
(dp832
g4
S'MUC'
p833
sg6
S'1'
sg7
S'3'
sg8
S'4'
sg9
S'true'
p834
sg11
S'MCO'
p835
ssS'99'
p836
(dp837
g4
S'YYZ'
p838
sg6
S'0'
sg7
S'4'
sg8
S'4'
sg9
S'true'
p839
sg11
S'SHA'
p840
ssS'98'
p841
(dp842
g4
S'BOM'
p843
sg6
S'0'
sg7
S'1'
sg8
S'5'
sg9
S'false'
p844
sg11
S'BCN'
p845
ssS'844'
p846
(dp847
g4
S'MUC'
p848
sg6
S'1'
sg7
S'2'
sg8
S'3'
sg9
S'false'
p849
sg11
S'SHA'
p850
ssS'91'
p851
(dp852
g4
S'FCO'
p853
sg6
S'2'
sg7
S'1'
sg8
S'5'
sg9
S'true'
p854
sg11
S'SHA'
p855
ssS'90'
p856
(dp857
g4
S'FCO'
p858
sg6
S'0'
sg7
S'2'
sg8
S'5'
sg9
S'false'
p859
sg11
S'LGW'
p860
ssS'93'
p861
(dp862
g4
S'MUC'
p863
sg6
S'2'
sg7
S'4'
sg8
S'5'
sg9
S'false'
p864
sg11
S'GRU'
p865
ssS'92'
p866
(dp867
g4
S'SEA'
p868
sg6
S'1'
sg7
S'1'
sg8
S'5'
sg9
S'true'
p869
sg11
S'SHA'
p870
ssS'95'
p871
(dp872
g4
S'YYZ'
p873
sg6
S'0'
sg7
S'2'
sg8
S'6'
sg9
S'false'
p874
sg11
S'SZX'
p875
ssS'94'
p876
(dp877
g4
S'MUC'
p878
sg6
S'2'
sg7
S'4'
sg8
S'4'
sg9
S'false'
p879
sg11
S'LGW'
p880
ssS'97'
p881
(dp882
g4
S'SEA'
p883
sg6
S'2'
sg7
S'4'
sg8
S'4'
sg9
S'true'
p884
sg11
S'GRU'
p885
ssS'96'
p886
(dp887
g4
S'SEA'
p888
sg6
S'2'
sg7
S'4'
sg8
S'5'
sg9
S'false'
p889
sg11
S'BCN'
p890
ssS'814'
p891
(dp892
g4
S'YYZ'
p893
sg6
S'1'
sg7
S'1'
sg8
S'4'
sg9
S'true'
p894
sg11
S'BCN'
p895
ssS'815'
p896
(dp897
g4
S'YYZ'
p898
sg6
S'2'
sg7
S'3'
sg8
S'5'
sg9
S'false'
p899
sg11
S'SZX'
p900
ssS'740'
p901
(dp902
g4
S'CTU'
p903
sg6
S'0'
sg7
S'1'
sg8
S'4'
sg9
S'false'
p904
sg11
S'LGW'
p905
ssS'741'
p906
(dp907
g4
S'SEA'
p908
sg6
S'1'
sg7
S'4'
sg8
S'4'
sg9
S'false'
p909
sg11
S'MCO'
p910
ssS'742'
p911
(dp912
g4
S'BOM'
p913
sg6
S'1'
sg7
S'4'
sg8
S'6'
sg9
S'true'
p914
sg11
S'MCO'
p915
ssS'743'
p916
(dp917
g4
S'FCO'
p918
sg6
S'0'
sg7
S'4'
sg8
S'4'
sg9
S'true'
p919
sg11
S'BCN'
p920
ssS'559'
p921
(dp922
g4
S'BOM'
p923
sg6
S'2'
sg7
S'1'
sg8
S'6'
sg9
S'true'
p924
sg11
S'SYD'
p925
ssS'558'
p926
(dp927
g4
S'YYZ'
p928
sg6
S'1'
sg7
S'4'
sg8
S'3'
sg9
S'false'
p929
sg11
S'LGW'
p930
ssS'746'
p931
(dp932
g4
S'MUC'
p933
sg6
S'0'
sg7
S'1'
sg8
S'3'
sg9
S'true'
p934
sg11
S'LGW'
p935
ssS'747'
p936
(dp937
g4
S'CTU'
p938
sg6
S'2'
sg7
S'3'
sg8
S'6'
sg9
S'true'
p939
sg11
S'BCN'
p940
ssS'555'
p941
(dp942
g4
S'YYZ'
p943
sg6
S'0'
sg7
S'4'
sg8
S'4'
sg9
S'true'
p944
sg11
S'GRU'
p945
ssS'554'
p946
(dp947
g4
S'CTU'
p948
sg6
S'2'
sg7
S'1'
sg8
S'6'
sg9
S'false'
p949
sg11
S'SYD'
p950
ssS'557'
p951
(dp952
g4
S'CTU'
p953
sg6
S'1'
sg7
S'2'
sg8
S'5'
sg9
S'false'
p954
sg11
S'SYD'
p955
ssS'556'
p956
(dp957
g4
S'YYZ'
p958
sg6
S'2'
sg7
S'1'
sg8
S'3'
sg9
S'true'
p959
sg11
S'LGW'
p960
ssS'551'
p961
(dp962
g4
S'MUC'
p963
sg6
S'2'
sg7
S'4'
sg8
S'3'
sg9
S'true'
p964
sg11
S'SYD'
p965
ssS'550'
p966
(dp967
g4
S'CTU'
p968
sg6
S'0'
sg7
S'1'
sg8
S'5'
sg9
S'true'
p969
sg11
S'LGW'
p970
ssS'553'
p971
(dp972
g4
S'MUC'
p973
sg6
S'0'
sg7
S'3'
sg8
S'5'
sg9
S'false'
p974
sg11
S'MCO'
p975
ssS'552'
p976
(dp977
g4
S'SEA'
p978
sg6
S'2'
sg7
S'1'
sg8
S'3'
sg9
S'false'
p979
sg11
S'SYD'
p980
ssS'238'
p981
(dp982
g4
S'BOM'
p983
sg6
S'2'
sg7
S'3'
sg8
S'4'
sg9
S'false'
p984
sg11
S'SYD'
p985
ssS'239'
p986
(dp987
g4
S'BOM'
p988
sg6
S'2'
sg7
S'2'
sg8
S'5'
sg9
S'false'
p989
sg11
S'SYD'
p990
ssS'234'
p991
(dp992
g4
S'SEA'
p993
sg6
S'0'
sg7
S'1'
sg8
S'3'
sg9
S'false'
p994
sg11
S'MCO'
p995
ssS'235'
p996
(dp997
g4
S'MUC'
p998
sg6
S'2'
sg7
S'1'
sg8
S'3'
sg9
S'true'
p999
sg11
S'SHA'
p1000
ssS'236'
p1001
(dp1002
g4
S'YYZ'
p1003
sg6
S'1'
sg7
S'4'
sg8
S'4'
sg9
S'false'
p1004
sg11
S'GRU'
p1005
ssS'237'
p1006
(dp1007
g4
S'SEA'
p1008
sg6
S'1'
sg7
S'2'
sg8
S'3'
sg9
S'false'
p1009
sg11
S'GRU'
p1010
ssS'230'
p1011
(dp1012
g4
S'FCO'
p1013
sg6
S'2'
sg7
S'4'
sg8
S'3'
sg9
S'true'
p1014
sg11
S'BCN'
p1015
ssS'231'
p1016
(dp1017
g4
S'YYZ'
p1018
sg6
S'2'
sg7
S'1'
sg8
S'6'
sg9
S'true'
p1019
sg11
S'GRU'
p1020
ssS'232'
p1021
(dp1022
g4
S'YYZ'
p1023
sg6
S'0'
sg7
S'3'
sg8
S'5'
sg9
S'false'
p1024
sg11
S'SYD'
p1025
ssS'233'
p1026
(dp1027
g4
S'MUC'
p1028
sg6
S'1'
sg7
S'3'
sg8
S'4'
sg9
S'false'
p1029
sg11
S'SHA'
p1030
ssS'992'
p1031
(dp1032
g4
S'MUC'
p1033
sg6
S'2'
sg7
S'2'
sg8
S'6'
sg9
S'true'
p1034
sg11
S'LGW'
p1035
ssS'1'
(dp1036
g4
S'FCO'
p1037
sg6
S'1'
sg7
S'4'
sg8
S'3'
sg9
S'true'
p1038
sg11
S'MCO'
p1039
ssS'614'
p1040
(dp1041
g4
S'SEA'
p1042
sg6
S'1'
sg7
S'1'
sg8
S'6'
sg9
S'true'
p1043
sg11
S'SZX'
p1044
ssS'146'
p1045
(dp1046
g4
S'CTU'
p1047
sg6
S'0'
sg7
S'4'
sg8
S'3'
sg9
S'false'
p1048
sg11
S'MCO'
p1049
ssS'147'
p1050
(dp1051
g4
S'MUC'
p1052
sg6
S'2'
sg7
S'3'
sg8
S'5'
sg9
S'false'
p1053
sg11
S'SYD'
p1054
ssS'144'
p1055
(dp1056
g4
S'MUC'
p1057
sg6
S'2'
sg7
S'2'
sg8
S'4'
sg9
S'true'
p1058
sg11
S'SYD'
p1059
ssS'145'
p1060
(dp1061
g4
S'SEA'
p1062
sg6
S'1'
sg7
S'4'
sg8
S'3'
sg9
S'true'
p1063
sg11
S'MCO'
p1064
ssS'142'
p1065
(dp1066
g4
S'MUC'
p1067
sg6
S'2'
sg7
S'2'
sg8
S'6'
sg9
S'true'
p1068
sg11
S'SHA'
p1069
ssS'143'
p1070
(dp1071
g4
S'SEA'
p1072
sg6
S'0'
sg7
S'3'
sg8
S'6'
sg9
S'true'
p1073
sg11
S'MCO'
p1074
ssS'140'
p1075
(dp1076
g4
S'YYZ'
p1077
sg6
S'1'
sg7
S'3'
sg8
S'6'
sg9
S'true'
p1078
sg11
S'MCO'
p1079
ssS'141'
p1080
(dp1081
g4
S'FCO'
p1082
sg6
S'1'
sg7
S'3'
sg8
S'6'
sg9
S'false'
p1083
sg11
S'BCN'
p1084
ssS'612'
p1085
(dp1086
g4
S'YYZ'
p1087
sg6
S'2'
sg7
S'3'
sg8
S'4'
sg9
S'true'
p1088
sg11
S'LGW'
p1089
ssS'613'
p1090
(dp1091
g4
S'YYZ'
p1092
sg6
S'1'
sg7
S'2'
sg8
S'6'
sg9
S'true'
p1093
sg11
S'SZX'
p1094
ssS'610'
p1095
(dp1096
g4
S'FCO'
p1097
sg6
S'1'
sg7
S'1'
sg8
S'4'
sg9
S'false'
p1098
sg11
S'SZX'
p1099
ssS'611'
p1100
(dp1101
g4
S'CTU'
p1102
sg6
S'0'
sg7
S'1'
sg8
S'3'
sg9
S'false'
p1103
sg11
S'SHA'
p1104
ssS'616'
p1105
(dp1106
g4
S'YYZ'
p1107
sg6
S'0'
sg7
S'3'
sg8
S'5'
sg9
S'false'
p1108
sg11
S'MCO'
p1109
ssS'617'
p1110
(dp1111
g4
S'YYZ'
p1112
sg6
S'0'
sg7
S'1'
sg8
S'3'
sg9
S'false'
p1113
sg11
S'MCO'
p1114
ssS'148'
p1115
(dp1116
g4
S'BOM'
p1117
sg6
S'2'
sg7
S'4'
sg8
S'4'
sg9
S'true'
p1118
sg11
S'GRU'
p1119
ssS'149'
p1120
(dp1121
g4
S'YYZ'
p1122
sg6
S'1'
sg7
S'2'
sg8
S'4'
sg9
S'true'
p1123
sg11
S'BCN'
p1124
ssS'912'
p1125
(dp1126
g4
S'BOM'
p1127
sg6
S'1'
sg7
S'3'
sg8
S'3'
sg9
S'true'
p1128
sg11
S'SHA'
p1129
ssS'951'
p1130
(dp1131
g4
S'YYZ'
p1132
sg6
S'2'
sg7
S'3'
sg8
S'5'
sg9
S'false'
p1133
sg11
S'SHA'
p1134
ssS'948'
p1135
(dp1136
g4
S'MUC'
p1137
sg6
S'0'
sg7
S'4'
sg8
S'3'
sg9
S'true'
p1138
sg11
S'MCO'
p1139
ssS'949'
p1140
(dp1141
g4
S'MUC'
p1142
sg6
S'0'
sg7
S'3'
sg8
S'4'
sg9
S'true'
p1143
sg11
S'SZX'
p1144
ssS'946'
p1145
(dp1146
g4
S'BOM'
p1147
sg6
S'1'
sg7
S'1'
sg8
S'4'
sg9
S'true'
p1148
sg11
S'SZX'
p1149
ssS'947'
p1150
(dp1151
g4
S'CTU'
p1152
sg6
S'2'
sg7
S'4'
sg8
S'6'
sg9
S'false'
p1153
sg11
S'GRU'
p1154
ssS'944'
p1155
(dp1156
g4
S'BOM'
p1157
sg6
S'0'
sg7
S'1'
sg8
S'6'
sg9
S'true'
p1158
sg11
S'MCO'
p1159
ssS'945'
p1160
(dp1161
g4
S'FCO'
p1162
sg6
S'0'
sg7
S'3'
sg8
S'4'
sg9
S'true'
p1163
sg11
S'SHA'
p1164
ssS'942'
p1165
(dp1166
g4
S'FCO'
p1167
sg6
S'2'
sg7
S'1'
sg8
S'5'
sg9
S'true'
p1168
sg11
S'SZX'
p1169
ssS'943'
p1170
(dp1171
g4
S'MUC'
p1172
sg6
S'2'
sg7
S'1'
sg8
S'6'
sg9
S'false'
p1173
sg11
S'LGW'
p1174
ssS'940'
p1175
(dp1176
g4
S'CTU'
p1177
sg6
S'2'
sg7
S'4'
sg8
S'5'
sg9
S'true'
p1178
sg11
S'BCN'
p1179
ssS'941'
p1180
(dp1181
g4
S'BOM'
p1182
sg6
S'2'
sg7
S'1'
sg8
S'3'
sg9
S'true'
p1183
sg11
S'SYD'
p1184
ssS'768'
p1185
(dp1186
g4
S'MUC'
p1187
sg6
S'1'
sg7
S'4'
sg8
S'6'
sg9
S'true'
p1188
sg11
S'SZX'
p1189
ssS'689'
p1190
(dp1191
g4
S'FCO'
p1192
sg6
S'1'
sg7
S'4'
sg8
S'3'
sg9
S'false'
p1193
sg11
S'SZX'
p1194
ssS'688'
p1195
(dp1196
g4
S'YYZ'
p1197
sg6
S'1'
sg7
S'1'
sg8
S'4'
sg9
S'false'
p1198
sg11
S'MCO'
p1199
ssS'685'
p1200
(dp1201
g4
S'SEA'
p1202
sg6
S'0'
sg7
S'1'
sg8
S'4'
sg9
S'true'
p1203
sg11
S'SZX'
p1204
ssS'684'
p1205
(dp1206
g4
S'SEA'
p1207
sg6
S'0'
sg7
S'1'
sg8
S'6'
sg9
S'false'
p1208
sg11
S'SZX'
p1209
ssS'687'
p1210
(dp1211
g4
S'MUC'
p1212
sg6
S'1'
sg7
S'3'
sg8
S'4'
sg9
S'true'
p1213
sg11
S'SZX'
p1214
ssS'686'
p1215
(dp1216
g4
S'MUC'
p1217
sg6
S'0'
sg7
S'1'
sg8
S'5'
sg9
S'false'
p1218
sg11
S'SZX'
p1219
ssS'681'
p1220
(dp1221
g4
S'BOM'
p1222
sg6
S'1'
sg7
S'1'
sg8
S'4'
sg9
S'false'
p1223
sg11
S'MCO'
p1224
ssS'680'
p1225
(dp1226
g4
S'YYZ'
p1227
sg6
S'1'
sg7
S'4'
sg8
S'5'
sg9
S'false'
p1228
sg11
S'GRU'
p1229
ssS'683'
p1230
(dp1231
g4
S'MUC'
p1232
sg6
S'2'
sg7
S'2'
sg8
S'5'
sg9
S'true'
p1233
sg11
S'LGW'
p1234
ssS'682'
p1235
(dp1236
g4
S'SEA'
p1237
sg6
S'0'
sg7
S'4'
sg8
S'6'
sg9
S'false'
p1238
sg11
S'GRU'
p1239
ssS'623'
p1240
(dp1241
g4
S'YYZ'
p1242
sg6
S'1'
sg7
S'1'
sg8
S'5'
sg9
S'true'
p1243
sg11
S'MCO'
p1244
ssS'819'
p1245
(dp1246
g4
S'SEA'
p1247
sg6
S'2'
sg7
S'3'
sg8
S'3'
sg9
S'false'
p1248
sg11
S'BCN'
p1249
ssS'622'
p1250
(dp1251
g4
S'FCO'
p1252
sg6
S'0'
sg7
S'2'
sg8
S'5'
sg9
S'false'
p1253
sg11
S'LGW'
p1254
ssS'133'
p1255
(dp1256
g4
S'MUC'
p1257
sg6
S'2'
sg7
S'2'
sg8
S'6'
sg9
S'false'
p1258
sg11
S'BCN'
p1259
ssS'132'
p1260
(dp1261
g4
S'BOM'
p1262
sg6
S'2'
sg7
S'1'
sg8
S'3'
sg9
S'true'
p1263
sg11
S'BCN'
p1264
ssS'131'
p1265
(dp1266
g4
S'YYZ'
p1267
sg6
S'2'
sg7
S'4'
sg8
S'4'
sg9
S'false'
p1268
sg11
S'LGW'
p1269
ssS'130'
p1270
(dp1271
g4
S'FCO'
p1272
sg6
S'0'
sg7
S'4'
sg8
S'5'
sg9
S'false'
p1273
sg11
S'MCO'
p1274
ssS'137'
p1275
(dp1276
g4
S'YYZ'
p1277
sg6
S'1'
sg7
S'2'
sg8
S'6'
sg9
S'true'
p1278
sg11
S'SHA'
p1279
ssS'136'
p1280
(dp1281
g4
S'SEA'
p1282
sg6
S'2'
sg7
S'3'
sg8
S'4'
sg9
S'false'
p1283
sg11
S'SZX'
p1284
ssS'135'
p1285
(dp1286
g4
S'YYZ'
p1287
sg6
S'0'
sg7
S'1'
sg8
S'3'
sg9
S'false'
p1288
sg11
S'SHA'
p1289
ssS'134'
p1290
(dp1291
g4
S'FCO'
p1292
sg6
S'0'
sg7
S'3'
sg8
S'4'
sg9
S'false'
p1293
sg11
S'BCN'
p1294
ssS'494'
p1295
(dp1296
g4
S'BOM'
p1297
sg6
S'1'
sg7
S'4'
sg8
S'6'
sg9
S'false'
p1298
sg11
S'SYD'
p1299
ssS'495'
p1300
(dp1301
g4
S'BOM'
p1302
sg6
S'2'
sg7
S'3'
sg8
S'6'
sg9
S'true'
p1303
sg11
S'SHA'
p1304
ssS'139'
p1305
(dp1306
g4
S'MUC'
p1307
sg6
S'0'
sg7
S'1'
sg8
S'4'
sg9
S'false'
p1308
sg11
S'LGW'
p1309
ssS'138'
p1310
(dp1311
g4
S'CTU'
p1312
sg6
S'0'
sg7
S'1'
sg8
S'5'
sg9
S'true'
p1313
sg11
S'BCN'
p1314
ssS'490'
p1315
(dp1316
g4
S'BOM'
p1317
sg6
S'0'
sg7
S'4'
sg8
S'6'
sg9
S'false'
p1318
sg11
S'BCN'
p1319
ssS'491'
p1320
(dp1321
g4
S'MUC'
p1322
sg6
S'1'
sg7
S'4'
sg8
S'3'
sg9
S'false'
p1323
sg11
S'LGW'
p1324
ssS'492'
p1325
(dp1326
g4
S'SEA'
p1327
sg6
S'2'
sg7
S'2'
sg8
S'3'
sg9
S'true'
p1328
sg11
S'LGW'
p1329
ssS'493'
p1330
(dp1331
g4
S'SEA'
p1332
sg6
S'0'
sg7
S'3'
sg8
S'3'
sg9
S'true'
p1333
sg11
S'SYD'
p1334
ssS'24'
p1335
(dp1336
g4
S'FCO'
p1337
sg6
S'2'
sg7
S'4'
sg8
S'3'
sg9
S'true'
p1338
sg11
S'MCO'
p1339
ssS'25'
p1340
(dp1341
g4
S'BOM'
p1342
sg6
S'2'
sg7
S'2'
sg8
S'4'
sg9
S'true'
p1343
sg11
S'SZX'
p1344
ssS'26'
p1345
(dp1346
g4
S'BOM'
p1347
sg6
S'1'
sg7
S'3'
sg8
S'4'
sg9
S'true'
p1348
sg11
S'MCO'
p1349
ssS'27'
p1350
(dp1351
g4
S'BOM'
p1352
sg6
S'0'
sg7
S'2'
sg8
S'6'
sg9
S'false'
p1353
sg11
S'LGW'
p1354
ssS'20'
p1355
(dp1356
g4
S'FCO'
p1357
sg6
S'1'
sg7
S'2'
sg8
S'6'
sg9
S'true'
p1358
sg11
S'SYD'
p1359
ssS'21'
p1360
(dp1361
g4
S'MUC'
p1362
sg6
S'2'
sg7
S'4'
sg8
S'5'
sg9
S'true'
p1363
sg11
S'LGW'
p1364
ssS'22'
p1365
(dp1366
g4
S'SEA'
p1367
sg6
S'1'
sg7
S'4'
sg8
S'3'
sg9
S'false'
p1368
sg11
S'GRU'
p1369
ssS'23'
p1370
(dp1371
g4
S'FCO'
p1372
sg6
S'0'
sg7
S'3'
sg8
S'6'
sg9
S'false'
p1373
sg11
S'GRU'
p1374
ssS'927'
p1375
(dp1376
g4
S'CTU'
p1377
sg6
S'0'
sg7
S'2'
sg8
S'6'
sg9
S'false'
p1378
sg11
S'SHA'
p1379
ssS'28'
p1380
(dp1381
g4
S'MUC'
p1382
sg6
S'2'
sg7
S'4'
sg8
S'4'
sg9
S'true'
p1383
sg11
S'LGW'
p1384
ssS'29'
p1385
(dp1386
g4
S'FCO'
p1387
sg6
S'1'
sg7
S'3'
sg8
S'5'
sg9
S'false'
p1388
sg11
S'MCO'
p1389
ssS'407'
p1390
(dp1391
g4
S'CTU'
p1392
sg6
S'2'
sg7
S'1'
sg8
S'3'
sg9
S'true'
p1393
sg11
S'BCN'
p1394
ssS'406'
p1395
(dp1396
g4
S'CTU'
p1397
sg6
S'1'
sg7
S'4'
sg8
S'6'
sg9
S'true'
p1398
sg11
S'MCO'
p1399
ssS'405'
p1400
(dp1401
g4
S'FCO'
p1402
sg6
S'2'
sg7
S'3'
sg8
S'4'
sg9
S'false'
p1403
sg11
S'MCO'
p1404
ssS'404'
p1405
(dp1406
g4
S'SEA'
p1407
sg6
S'0'
sg7
S'4'
sg8
S'3'
sg9
S'false'
p1408
sg11
S'BCN'
p1409
ssS'403'
p1410
(dp1411
g4
S'CTU'
p1412
sg6
S'0'
sg7
S'2'
sg8
S'3'
sg9
S'false'
p1413
sg11
S'SHA'
p1414
ssS'402'
p1415
(dp1416
g4
S'SEA'
p1417
sg6
S'2'
sg7
S'2'
sg8
S'4'
sg9
S'true'
p1418
sg11
S'MCO'
p1419
ssS'401'
p1420
(dp1421
g4
S'FCO'
p1422
sg6
S'1'
sg7
S'4'
sg8
S'6'
sg9
S'true'
p1423
sg11
S'SHA'
p1424
ssS'400'
p1425
(dp1426
g4
S'BOM'
p1427
sg6
S'1'
sg7
S'2'
sg8
S'3'
sg9
S'false'
p1428
sg11
S'BCN'
p1429
ssS'933'
p1430
(dp1431
g4
S'SEA'
p1432
sg6
S'2'
sg7
S'4'
sg8
S'5'
sg9
S'false'
p1433
sg11
S'GRU'
p1434
ssS'932'
p1435
(dp1436
g4
S'SEA'
p1437
sg6
S'1'
sg7
S'4'
sg8
S'5'
sg9
S'false'
p1438
sg11
S'SZX'
p1439
ssS'931'
p1440
(dp1441
g4
S'BOM'
p1442
sg6
S'2'
sg7
S'2'
sg8
S'4'
sg9
S'false'
p1443
sg11
S'SYD'
p1444
ssS'930'
p1445
(dp1446
g4
S'BOM'
p1447
sg6
S'1'
sg7
S'2'
sg8
S'6'
sg9
S'true'
p1448
sg11
S'SZX'
p1449
ssS'937'
p1450
(dp1451
g4
S'YYZ'
p1452
sg6
S'2'
sg7
S'4'
sg8
S'5'
sg9
S'false'
p1453
sg11
S'LGW'
p1454
ssS'629'
p1455
(dp1456
g4
S'CTU'
p1457
sg6
S'1'
sg7
S'4'
sg8
S'5'
sg9
S'false'
p1458
sg11
S'BCN'
p1459
ssS'409'
p1460
(dp1461
g4
S'YYZ'
p1462
sg6
S'0'
sg7
S'4'
sg8
S'3'
sg9
S'false'
p1463
sg11
S'SHA'
p1464
ssS'408'
p1465
(dp1466
g4
S'YYZ'
p1467
sg6
S'1'
sg7
S'4'
sg8
S'6'
sg9
S'true'
p1468
sg11
S'LGW'
p1469
ssS'628'
p1470
(dp1471
g4
S'YYZ'
p1472
sg6
S'2'
sg7
S'2'
sg8
S'6'
sg9
S'true'
p1473
sg11
S'MCO'
p1474
ssS'758'
p1475
(dp1476
g4
S'BOM'
p1477
sg6
S'1'
sg7
S'2'
sg8
S'5'
sg9
S'true'
p1478
sg11
S'SZX'
p1479
ssS'379'
p1480
(dp1481
g4
S'CTU'
p1482
sg6
S'1'
sg7
S'3'
sg8
S'4'
sg9
S'true'
p1483
sg11
S'MCO'
p1484
ssS'378'
p1485
(dp1486
g4
S'BOM'
p1487
sg6
S'2'
sg7
S'1'
sg8
S'5'
sg9
S'true'
p1488
sg11
S'SYD'
p1489
ssS'829'
p1490
(dp1491
g4
S'MUC'
p1492
sg6
S'1'
sg7
S'2'
sg8
S'6'
sg9
S'true'
p1493
sg11
S'MCO'
p1494
ssS'828'
p1495
(dp1496
g4
S'MUC'
p1497
sg6
S'1'
sg7
S'2'
sg8
S'3'
sg9
S'true'
p1498
sg11
S'GRU'
p1499
ssS'371'
p1500
(dp1501
g4
S'FCO'
p1502
sg6
S'2'
sg7
S'1'
sg8
S'3'
sg9
S'true'
p1503
sg11
S'SZX'
p1504
ssS'370'
p1505
(dp1506
g4
S'BOM'
p1507
sg6
S'1'
sg7
S'1'
sg8
S'3'
sg9
S'true'
p1508
sg11
S'MCO'
p1509
ssS'373'
p1510
(dp1511
g4
S'CTU'
p1512
sg6
S'1'
sg7
S'4'
sg8
S'5'
sg9
S'true'
p1513
sg11
S'LGW'
p1514
ssS'372'
p1515
(dp1516
g4
S'MUC'
p1517
sg6
S'1'
sg7
S'4'
sg8
S'6'
sg9
S'false'
p1518
sg11
S'SHA'
p1519
ssS'375'
p1520
(dp1521
g4
S'CTU'
p1522
sg6
S'2'
sg7
S'4'
sg8
S'6'
sg9
S'false'
p1523
sg11
S'LGW'
p1524
ssS'374'
p1525
(dp1526
g4
S'SEA'
p1527
sg6
S'0'
sg7
S'4'
sg8
S'6'
sg9
S'true'
p1528
sg11
S'SHA'
p1529
ssS'377'
p1530
(dp1531
g4
S'CTU'
p1532
sg6
S'2'
sg7
S'2'
sg8
S'5'
sg9
S'true'
p1533
sg11
S'BCN'
p1534
ssS'376'
p1535
(dp1536
g4
S'BOM'
p1537
sg6
S'0'
sg7
S'4'
sg8
S'6'
sg9
S'true'
p1538
sg11
S'SZX'
p1539
ssS'708'
p1540
(dp1541
g4
S'FCO'
p1542
sg6
S'0'
sg7
S'4'
sg8
S'5'
sg9
S'true'
p1543
sg11
S'MCO'
p1544
ssS'709'
p1545
(dp1546
g4
S'BOM'
p1547
sg6
S'1'
sg7
S'1'
sg8
S'6'
sg9
S'true'
p1548
sg11
S'SYD'
p1549
ssS'704'
p1550
(dp1551
g4
S'FCO'
p1552
sg6
S'2'
sg7
S'2'
sg8
S'4'
sg9
S'false'
p1553
sg11
S'SHA'
p1554
ssS'705'
p1555
(dp1556
g4
S'YYZ'
p1557
sg6
S'1'
sg7
S'2'
sg8
S'4'
sg9
S'true'
p1558
sg11
S'MCO'
p1559
ssS'706'
p1560
(dp1561
g4
S'FCO'
p1562
sg6
S'1'
sg7
S'2'
sg8
S'4'
sg9
S'true'
p1563
sg11
S'GRU'
p1564
ssS'707'
p1565
(dp1566
g4
S'FCO'
p1567
sg6
S'0'
sg7
S'1'
sg8
S'5'
sg9
S'true'
p1568
sg11
S'MCO'
p1569
ssS'700'
p1570
(dp1571
g4
S'BOM'
p1572
sg6
S'2'
sg7
S'4'
sg8
S'6'
sg9
S'true'
p1573
sg11
S'GRU'
p1574
ssS'618'
p1575
(dp1576
g4
S'CTU'
p1577
sg6
S'0'
sg7
S'4'
sg8
S'4'
sg9
S'false'
p1578
sg11
S'GRU'
p1579
ssS'702'
p1580
(dp1581
g4
S'BOM'
p1582
sg6
S'2'
sg7
S'3'
sg8
S'6'
sg9
S'true'
p1583
sg11
S'SHA'
p1584
ssS'703'
p1585
(dp1586
g4
S'CTU'
p1587
sg6
S'1'
sg7
S'1'
sg8
S'3'
sg9
S'true'
p1588
sg11
S'SZX'
p1589
ssS'393'
p1590
(dp1591
g4
S'MUC'
p1592
sg6
S'1'
sg7
S'4'
sg8
S'4'
sg9
S'false'
p1593
sg11
S'BCN'
p1594
ssS'392'
p1595
(dp1596
g4
S'SEA'
p1597
sg6
S'1'
sg7
S'2'
sg8
S'5'
sg9
S'false'
p1598
sg11
S'SYD'
p1599
ssS'391'
p1600
(dp1601
g4
S'FCO'
p1602
sg6
S'0'
sg7
S'4'
sg8
S'4'
sg9
S'true'
p1603
sg11
S'MCO'
p1604
ssS'390'
p1605
(dp1606
g4
S'MUC'
p1607
sg6
S'2'
sg7
S'1'
sg8
S'4'
sg9
S'false'
p1608
sg11
S'GRU'
p1609
ssS'397'
p1610
(dp1611
g4
S'YYZ'
p1612
sg6
S'0'
sg7
S'3'
sg8
S'3'
sg9
S'false'
p1613
sg11
S'MCO'
p1614
ssS'396'
p1615
(dp1616
g4
S'BOM'
p1617
sg6
S'2'
sg7
S'2'
sg8
S'3'
sg9
S'true'
p1618
sg11
S'SYD'
p1619
ssS'395'
p1620
(dp1621
g4
S'YYZ'
p1622
sg6
S'0'
sg7
S'1'
sg8
S'4'
sg9
S'true'
p1623
sg11
S'SZX'
p1624
ssS'394'
p1625
(dp1626
g4
S'BOM'
p1627
sg6
S'2'
sg7
S'1'
sg8
S'4'
sg9
S'false'
p1628
sg11
S'LGW'
p1629
ssS'82'
p1630
(dp1631
g4
S'FCO'
p1632
sg6
S'0'
sg7
S'4'
sg8
S'3'
sg9
S'false'
p1633
sg11
S'MCO'
p1634
ssS'83'
p1635
(dp1636
g4
S'YYZ'
p1637
sg6
S'0'
sg7
S'4'
sg8
S'3'
sg9
S'true'
p1638
sg11
S'MCO'
p1639
ssS'399'
p1640
(dp1641
g4
S'MUC'
p1642
sg6
S'1'
sg7
S'4'
sg8
S'3'
sg9
S'true'
p1643
sg11
S'SYD'
p1644
ssS'398'
p1645
(dp1646
g4
S'YYZ'
p1647
sg6
S'0'
sg7
S'3'
sg8
S'4'
sg9
S'true'
p1648
sg11
S'MCO'
p1649
ssS'86'
p1650
(dp1651
g4
S'YYZ'
p1652
sg6
S'2'
sg7
S'4'
sg8
S'4'
sg9
S'true'
p1653
sg11
S'SZX'
p1654
ssS'87'
p1655
(dp1656
g4
S'CTU'
p1657
sg6
S'1'
sg7
S'3'
sg8
S'5'
sg9
S'true'
p1658
sg11
S'LGW'
p1659
ssS'84'
p1660
(dp1661
g4
S'FCO'
p1662
sg6
S'1'
sg7
S'1'
sg8
S'5'
sg9
S'false'
p1663
sg11
S'SZX'
p1664
ssS'85'
p1665
(dp1666
g4
S'SEA'
p1667
sg6
S'1'
sg7
S'3'
sg8
S'6'
sg9
S'false'
p1668
sg11
S'MCO'
p1669
ssS'797'
p1670
(dp1671
g4
S'CTU'
p1672
sg6
S'0'
sg7
S'2'
sg8
S'5'
sg9
S'false'
p1673
sg11
S'GRU'
p1674
ssS'796'
p1675
(dp1676
g4
S'CTU'
p1677
sg6
S'2'
sg7
S'1'
sg8
S'5'
sg9
S'false'
p1678
sg11
S'SHA'
p1679
ssS'795'
p1680
(dp1681
g4
S'MUC'
p1682
sg6
S'1'
sg7
S'1'
sg8
S'3'
sg9
S'true'
p1683
sg11
S'SYD'
p1684
ssS'794'
p1685
(dp1686
g4
S'SEA'
p1687
sg6
S'2'
sg7
S'2'
sg8
S'3'
sg9
S'false'
p1688
sg11
S'SYD'
p1689
ssS'793'
p1690
(dp1691
g4
S'YYZ'
p1692
sg6
S'1'
sg7
S'3'
sg8
S'4'
sg9
S'false'
p1693
sg11
S'MCO'
p1694
ssS'792'
p1695
(dp1696
g4
S'MUC'
p1697
sg6
S'0'
sg7
S'1'
sg8
S'6'
sg9
S'true'
p1698
sg11
S'LGW'
p1699
ssS'791'
p1700
(dp1701
g4
S'SEA'
p1702
sg6
S'1'
sg7
S'2'
sg8
S'4'
sg9
S'true'
p1703
sg11
S'GRU'
p1704
ssS'790'
p1705
(dp1706
g4
S'YYZ'
p1707
sg6
S'1'
sg7
S'3'
sg8
S'6'
sg9
S'true'
p1708
sg11
S'LGW'
p1709
ssS'799'
p1710
(dp1711
g4
S'SEA'
p1712
sg6
S'2'
sg7
S'2'
sg8
S'6'
sg9
S'true'
p1713
sg11
S'BCN'
p1714
ssS'798'
p1715
(dp1716
g4
S'YYZ'
p1717
sg6
S'2'
sg7
S'3'
sg8
S'5'
sg9
S'true'
p1718
sg11
S'LGW'
p1719
ssS'7'
(dp1720
g4
S'MUC'
p1721
sg6
S'2'
sg7
S'2'
sg8
S'6'
sg9
S'false'
p1722
sg11
S'LGW'
p1723
ssS'601'
p1724
(dp1725
g4
S'MUC'
p1726
sg6
S'2'
sg7
S'2'
sg8
S'3'
sg9
S'true'
p1727
sg11
S'BCN'
p1728
ssS'607'
p1729
(dp1730
g4
S'SEA'
p1731
sg6
S'2'
sg7
S'1'
sg8
S'3'
sg9
S'false'
p1732
sg11
S'SYD'
p1733
ssS'586'
p1734
(dp1735
g4
S'BOM'
p1736
sg6
S'2'
sg7
S'2'
sg8
S'4'
sg9
S'true'
p1737
sg11
S'LGW'
p1738
ssS'587'
p1739
(dp1740
g4
S'MUC'
p1741
sg6
S'2'
sg7
S'4'
sg8
S'4'
sg9
S'false'
p1742
sg11
S'BCN'
p1743
ssS'584'
p1744
(dp1745
g4
S'SEA'
p1746
sg6
S'1'
sg7
S'1'
sg8
S'3'
sg9
S'true'
p1747
sg11
S'LGW'
p1748
ssS'585'
p1749
(dp1750
g4
S'MUC'
p1751
sg6
S'1'
sg7
S'3'
sg8
S'4'
sg9
S'false'
p1752
sg11
S'SZX'
p1753
ssS'582'
p1754
(dp1755
g4
S'CTU'
p1756
sg6
S'2'
sg7
S'1'
sg8
S'3'
sg9
S'true'
p1757
sg11
S'SZX'
p1758
ssS'583'
p1759
(dp1760
g4
S'MUC'
p1761
sg6
S'2'
sg7
S'1'
sg8
S'4'
sg9
S'true'
p1762
sg11
S'SHA'
p1763
ssS'580'
p1764
(dp1765
g4
S'YYZ'
p1766
sg6
S'1'
sg7
S'4'
sg8
S'3'
sg9
S'true'
p1767
sg11
S'SYD'
p1768
ssS'581'
p1769
(dp1770
g4
S'YYZ'
p1771
sg6
S'2'
sg7
S'3'
sg8
S'3'
sg9
S'true'
p1772
sg11
S'LGW'
p1773
ssS'588'
p1774
(dp1775
g4
S'MUC'
p1776
sg6
S'0'
sg7
S'4'
sg8
S'6'
sg9
S'true'
p1777
sg11
S'MCO'
p1778
ssS'589'
p1779
(dp1780
g4
S'CTU'
p1781
sg6
S'2'
sg7
S'3'
sg8
S'5'
sg9
S'true'
p1782
sg11
S'SYD'
p1783
ssS'245'
p1784
(dp1785
g4
S'CTU'
p1786
sg6
S'0'
sg7
S'2'
sg8
S'4'
sg9
S'true'
p1787
sg11
S'BCN'
p1788
ssS'244'
p1789
(dp1790
g4
S'FCO'
p1791
sg6
S'1'
sg7
S'4'
sg8
S'3'
sg9
S'true'
p1792
sg11
S'GRU'
p1793
ssS'247'
p1794
(dp1795
g4
S'CTU'
p1796
sg6
S'2'
sg7
S'1'
sg8
S'4'
sg9
S'false'
p1797
sg11
S'SYD'
p1798
ssS'246'
p1799
(dp1800
g4
S'SEA'
p1801
sg6
S'1'
sg7
S'4'
sg8
S'6'
sg9
S'true'
p1802
sg11
S'SZX'
p1803
ssS'241'
p1804
(dp1805
g4
S'FCO'
p1806
sg6
S'0'
sg7
S'1'
sg8
S'3'
sg9
S'false'
p1807
sg11
S'LGW'
p1808
ssS'240'
p1809
(dp1810
g4
S'BOM'
p1811
sg6
S'1'
sg7
S'1'
sg8
S'5'
sg9
S'true'
p1812
sg11
S'SYD'
p1813
ssS'243'
p1814
(dp1815
g4
S'MUC'
p1816
sg6
S'2'
sg7
S'2'
sg8
S'5'
sg9
S'true'
p1817
sg11
S'GRU'
p1818
ssS'242'
p1819
(dp1820
g4
S'MUC'
p1821
sg6
S'0'
sg7
S'1'
sg8
S'5'
sg9
S'false'
p1822
sg11
S'SYD'
p1823
ssS'615'
p1824
(dp1825
g4
S'YYZ'
p1826
sg6
S'2'
sg7
S'2'
sg8
S'5'
sg9
S'false'
p1827
sg11
S'GRU'
p1828
ssS'249'
p1829
(dp1830
g4
S'MUC'
p1831
sg6
S'2'
sg7
S'1'
sg8
S'4'
sg9
S'false'
p1832
sg11
S'BCN'
p1833
ssS'248'
p1834
(dp1835
g4
S'FCO'
p1836
sg6
S'2'
sg7
S'1'
sg8
S'5'
sg9
S'false'
p1837
sg11
S'BCN'
p1838
ssS'924'
p1839
(dp1840
g4
S'MUC'
p1841
sg6
S'2'
sg7
S'3'
sg8
S'4'
sg9
S'false'
p1842
sg11
S'SZX'
p1843
ssS'970'
p1844
(dp1845
g4
S'FCO'
p1846
sg6
S'1'
sg7
S'2'
sg8
S'5'
sg9
S'false'
p1847
sg11
S'SYD'
p1848
ssS'925'
p1849
(dp1850
g4
S'SEA'
p1851
sg6
S'1'
sg7
S'2'
sg8
S'3'
sg9
S'false'
p1852
sg11
S'MCO'
p1853
ssS'519'
p1854
(dp1855
g4
S'BOM'
p1856
sg6
S'2'
sg7
S'2'
sg8
S'3'
sg9
S'false'
p1857
sg11
S'LGW'
p1858
ssS'518'
p1859
(dp1860
g4
S'SEA'
p1861
sg6
S'0'
sg7
S'3'
sg8
S'3'
sg9
S'false'
p1862
sg11
S'BCN'
p1863
ssS'926'
p1864
(dp1865
g4
S'BOM'
p1866
sg6
S'2'
sg7
S'4'
sg8
S'3'
sg9
S'false'
p1867
sg11
S'SHA'
p1868
ssS'511'
p1869
(dp1870
g4
S'CTU'
p1871
sg6
S'1'
sg7
S'1'
sg8
S'4'
sg9
S'true'
p1872
sg11
S'SHA'
p1873
ssS'510'
p1874
(dp1875
g4
S'MUC'
p1876
sg6
S'0'
sg7
S'3'
sg8
S'6'
sg9
S'false'
p1877
sg11
S'LGW'
p1878
ssS'513'
p1879
(dp1880
g4
S'YYZ'
p1881
sg6
S'0'
sg7
S'4'
sg8
S'5'
sg9
S'false'
p1882
sg11
S'SHA'
p1883
ssS'512'
p1884
(dp1885
g4
S'MUC'
p1886
sg6
S'0'
sg7
S'1'
sg8
S'4'
sg9
S'false'
p1887
sg11
S'LGW'
p1888
ssS'515'
p1889
(dp1890
g4
S'BOM'
p1891
sg6
S'2'
sg7
S'2'
sg8
S'5'
sg9
S'true'
p1892
sg11
S'LGW'
p1893
ssS'514'
p1894
(dp1895
g4
S'SEA'
p1896
sg6
S'1'
sg7
S'3'
sg8
S'5'
sg9
S'true'
p1897
sg11
S'LGW'
p1898
ssS'517'
p1899
(dp1900
g4
S'YYZ'
p1901
sg6
S'2'
sg7
S'3'
sg8
S'6'
sg9
S'false'
p1902
sg11
S'MCO'
p1903
ssS'516'
p1904
(dp1905
g4
S'MUC'
p1906
sg6
S'1'
sg7
S'1'
sg8
S'3'
sg9
S'true'
p1907
sg11
S'MCO'
p1908
ssS'458'
p1909
(dp1910
g4
S'CTU'
p1911
sg6
S'0'
sg7
S'1'
sg8
S'3'
sg9
S'true'
p1912
sg11
S'GRU'
p1913
ssS'459'
p1914
(dp1915
g4
S'YYZ'
p1916
sg6
S'1'
sg7
S'4'
sg8
S'3'
sg9
S'false'
p1917
sg11
S'SZX'
p1918
ssS'621'
p1919
(dp1920
g4
S'CTU'
p1921
sg6
S'1'
sg7
S'2'
sg8
S'6'
sg9
S'false'
p1922
sg11
S'MCO'
p1923
ssS'620'
p1924
(dp1925
g4
S'BOM'
p1926
sg6
S'0'
sg7
S'2'
sg8
S'4'
sg9
S'true'
p1927
sg11
S'BCN'
p1928
ssS'627'
p1929
(dp1930
g4
S'BOM'
p1931
sg6
S'0'
sg7
S'2'
sg8
S'6'
sg9
S'true'
p1932
sg11
S'SYD'
p1933
ssS'626'
p1934
(dp1935
g4
S'BOM'
p1936
sg6
S'0'
sg7
S'4'
sg8
S'6'
sg9
S'true'
p1937
sg11
S'MCO'
p1938
ssS'625'
p1939
(dp1940
g4
S'YYZ'
p1941
sg6
S'1'
sg7
S'4'
sg8
S'4'
sg9
S'true'
p1942
sg11
S'BCN'
p1943
ssS'624'
p1944
(dp1945
g4
S'YYZ'
p1946
sg6
S'2'
sg7
S'4'
sg8
S'6'
sg9
S'false'
p1947
sg11
S'SYD'
p1948
ssS'450'
p1949
(dp1950
g4
S'FCO'
p1951
sg6
S'1'
sg7
S'2'
sg8
S'5'
sg9
S'true'
p1952
sg11
S'SYD'
p1953
ssS'451'
p1954
(dp1955
g4
S'BOM'
p1956
sg6
S'0'
sg7
S'4'
sg8
S'6'
sg9
S'true'
p1957
sg11
S'MCO'
p1958
ssS'452'
p1959
(dp1960
g4
S'SEA'
p1961
sg6
S'0'
sg7
S'1'
sg8
S'6'
sg9
S'true'
p1962
sg11
S'GRU'
p1963
ssS'453'
p1964
(dp1965
g4
S'SEA'
p1966
sg6
S'2'
sg7
S'4'
sg8
S'6'
sg9
S'false'
p1967
sg11
S'SZX'
p1968
ssS'454'
p1969
(dp1970
g4
S'FCO'
p1971
sg6
S'2'
sg7
S'3'
sg8
S'4'
sg9
S'false'
p1972
sg11
S'LGW'
p1973
ssS'455'
p1974
(dp1975
g4
S'YYZ'
p1976
sg6
S'0'
sg7
S'3'
sg8
S'4'
sg9
S'false'
p1977
sg11
S'LGW'
p1978
ssS'456'
p1979
(dp1980
g4
S'YYZ'
p1981
sg6
S'0'
sg7
S'2'
sg8
S'5'
sg9
S'false'
p1982
sg11
S'GRU'
p1983
ssS'457'
p1984
(dp1985
g4
S'YYZ'
p1986
sg6
S'2'
sg7
S'2'
sg8
S'5'
sg9
S'true'
p1987
sg11
S'MCO'
p1988
ssS'179'
p1989
(dp1990
g4
S'YYZ'
p1991
sg6
S'1'
sg7
S'1'
sg8
S'6'
sg9
S'false'
p1992
sg11
S'GRU'
p1993
ssS'178'
p1994
(dp1995
g4
S'SEA'
p1996
sg6
S'2'
sg7
S'3'
sg8
S'3'
sg9
S'false'
p1997
sg11
S'SYD'
p1998
ssS'177'
p1999
(dp2000
g4
S'BOM'
p2001
sg6
S'0'
sg7
S'1'
sg8
S'4'
sg9
S'true'
p2002
sg11
S'BCN'
p2003
ssS'176'
p2004
(dp2005
g4
S'YYZ'
p2006
sg6
S'0'
sg7
S'3'
sg8
S'5'
sg9
S'true'
p2007
sg11
S'MCO'
p2008
ssS'175'
p2009
(dp2010
g4
S'BOM'
p2011
sg6
S'1'
sg7
S'1'
sg8
S'6'
sg9
S'false'
p2012
sg11
S'LGW'
p2013
ssS'174'
p2014
(dp2015
g4
S'MUC'
p2016
sg6
S'1'
sg7
S'4'
sg8
S'6'
sg9
S'true'
p2017
sg11
S'SHA'
p2018
ssS'173'
p2019
(dp2020
g4
S'MUC'
p2021
sg6
S'0'
sg7
S'4'
sg8
S'3'
sg9
S'false'
p2022
sg11
S'GRU'
p2023
ssS'172'
p2024
(dp2025
g4
S'MUC'
p2026
sg6
S'0'
sg7
S'4'
sg8
S'5'
sg9
S'false'
p2027
sg11
S'SHA'
p2028
ssS'171'
p2029
(dp2030
g4
S'SEA'
p2031
sg6
S'2'
sg7
S'2'
sg8
S'4'
sg9
S'false'
p2032
sg11
S'SHA'
p2033
ssS'170'
p2034
(dp2035
g4
S'MUC'
p2036
sg6
S'1'
sg7
S'2'
sg8
S'5'
sg9
S'true'
p2037
sg11
S'SZX'
p2038
ssS'977'
p2039
(dp2040
g4
S'BOM'
p2041
sg6
S'1'
sg7
S'3'
sg8
S'6'
sg9
S'true'
p2042
sg11
S'BCN'
p2043
ssS'656'
p2044
(dp2045
g4
S'CTU'
p2046
sg6
S'2'
sg7
S'4'
sg8
S'3'
sg9
S'false'
p2047
sg11
S'MCO'
p2048
ssS'975'
p2049
(dp2050
g4
S'CTU'
p2051
sg6
S'0'
sg7
S'4'
sg8
S'4'
sg9
S'true'
p2052
sg11
S'SYD'
p2053
ssS'974'
p2054
(dp2055
g4
S'FCO'
p2056
sg6
S'1'
sg7
S'2'
sg8
S'6'
sg9
S'false'
p2057
sg11
S'MCO'
p2058
ssS'973'
p2059
(dp2060
g4
S'FCO'
p2061
sg6
S'2'
sg7
S'4'
sg8
S'6'
sg9
S'false'
p2062
sg11
S'GRU'
p2063
ssS'972'
p2064
(dp2065
g4
S'CTU'
p2066
sg6
S'1'
sg7
S'2'
sg8
S'4'
sg9
S'false'
p2067
sg11
S'GRU'
p2068
ssS'971'
p2069
(dp2070
g4
S'FCO'
p2071
sg6
S'0'
sg7
S'3'
sg8
S'6'
sg9
S'false'
p2072
sg11
S'BCN'
p2073
ssS'657'
p2074
(dp2075
g4
S'MUC'
p2076
sg6
S'1'
sg7
S'4'
sg8
S'5'
sg9
S'true'
p2077
sg11
S'BCN'
p2078
ssS'654'
p2079
(dp2080
g4
S'YYZ'
p2081
sg6
S'0'
sg7
S'3'
sg8
S'5'
sg9
S'true'
p2082
sg11
S'SZX'
p2083
ssS'979'
p2084
(dp2085
g4
S'SEA'
p2086
sg6
S'1'
sg7
S'1'
sg8
S'3'
sg9
S'true'
p2087
sg11
S'SZX'
p2088
ssS'978'
p2089
(dp2090
g4
S'BOM'
p2091
sg6
S'0'
sg7
S'4'
sg8
S'3'
sg9
S'false'
p2092
sg11
S'SYD'
p2093
ssS'182'
p2094
(dp2095
g4
S'BOM'
p2096
sg6
S'2'
sg7
S'2'
sg8
S'3'
sg9
S'false'
p2097
sg11
S'SYD'
p2098
ssS'183'
p2099
(dp2100
g4
S'YYZ'
p2101
sg6
S'2'
sg7
S'3'
sg8
S'6'
sg9
S'false'
p2102
sg11
S'GRU'
p2103
ssS'180'
p2104
(dp2105
g4
S'BOM'
p2106
sg6
S'2'
sg7
S'1'
sg8
S'6'
sg9
S'false'
p2107
sg11
S'MCO'
p2108
ssS'181'
p2109
(dp2110
g4
S'CTU'
p2111
sg6
S'2'
sg7
S'4'
sg8
S'5'
sg9
S'true'
p2112
sg11
S'LGW'
p2113
ssS'186'
p2114
(dp2115
g4
S'BOM'
p2116
sg6
S'2'
sg7
S'3'
sg8
S'5'
sg9
S'true'
p2117
sg11
S'MCO'
p2118
ssS'187'
p2119
(dp2120
g4
S'CTU'
p2121
sg6
S'2'
sg7
S'3'
sg8
S'3'
sg9
S'true'
p2122
sg11
S'SZX'
p2123
ssS'184'
p2124
(dp2125
g4
S'SEA'
p2126
sg6
S'2'
sg7
S'3'
sg8
S'6'
sg9
S'false'
p2127
sg11
S'SHA'
p2128
ssS'185'
p2129
(dp2130
g4
S'CTU'
p2131
sg6
S'0'
sg7
S'2'
sg8
S'6'
sg9
S'true'
p2132
sg11
S'MCO'
p2133
ssS'886'
p2134
(dp2135
g4
S'SEA'
p2136
sg6
S'2'
sg7
S'2'
sg8
S'5'
sg9
S'true'
p2137
sg11
S'SYD'
p2138
ssS'652'
p2139
(dp2140
g4
S'FCO'
p2141
sg6
S'1'
sg7
S'1'
sg8
S'5'
sg9
S'false'
p2142
sg11
S'BCN'
p2143
ssS'188'
p2144
(dp2145
g4
S'YYZ'
p2146
sg6
S'1'
sg7
S'2'
sg8
S'3'
sg9
S'false'
p2147
sg11
S'BCN'
p2148
ssS'189'
p2149
(dp2150
g4
S'SEA'
p2151
sg6
S'2'
sg7
S'3'
sg8
S'4'
sg9
S'true'
p2152
sg11
S'SHA'
p2153
ssS'658'
p2154
(dp2155
g4
S'YYZ'
p2156
sg6
S'0'
sg7
S'4'
sg8
S'5'
sg9
S'false'
p2157
sg11
S'SZX'
p2158
ssS'653'
p2159
(dp2160
g4
S'YYZ'
p2161
sg6
S'2'
sg7
S'1'
sg8
S'6'
sg9
S'true'
p2162
sg11
S'GRU'
p2163
ssS'650'
p2164
(dp2165
g4
S'CTU'
p2166
sg6
S'1'
sg7
S'2'
sg8
S'5'
sg9
S'false'
p2167
sg11
S'SHA'
p2168
ssS'651'
p2169
(dp2170
g4
S'CTU'
p2171
sg6
S'1'
sg7
S'3'
sg8
S'3'
sg9
S'true'
p2172
sg11
S'BCN'
p2173
ssS'764'
p2174
(dp2175
g4
S'FCO'
p2176
sg6
S'1'
sg7
S'1'
sg8
S'3'
sg9
S'false'
p2177
sg11
S'LGW'
p2178
ssS'11'
p2179
(dp2180
g4
S'CTU'
p2181
sg6
S'0'
sg7
S'4'
sg8
S'3'
sg9
S'true'
p2182
sg11
S'SHA'
p2183
ssS'10'
p2184
(dp2185
g4
S'MUC'
p2186
sg6
S'0'
sg7
S'2'
sg8
S'5'
sg9
S'false'
p2187
sg11
S'GRU'
p2188
ssS'13'
p2189
(dp2190
g4
S'YYZ'
p2191
sg6
S'2'
sg7
S'1'
sg8
S'4'
sg9
S'true'
p2192
sg11
S'MCO'
p2193
ssS'12'
p2194
(dp2195
g4
S'CTU'
p2196
sg6
S'0'
sg7
S'3'
sg8
S'5'
sg9
S'false'
p2197
sg11
S'MCO'
p2198
ssS'15'
p2199
(dp2200
g4
S'CTU'
p2201
sg6
S'1'
sg7
S'2'
sg8
S'3'
sg9
S'true'
p2202
sg11
S'LGW'
p2203
ssS'14'
p2204
(dp2205
g4
S'BOM'
p2206
sg6
S'1'
sg7
S'2'
sg8
S'6'
sg9
S'true'
p2207
sg11
S'LGW'
p2208
ssS'17'
p2209
(dp2210
g4
S'CTU'
p2211
sg6
S'1'
sg7
S'2'
sg8
S'3'
sg9
S'false'
p2212
sg11
S'SHA'
p2213
ssS'16'
p2214
(dp2215
g4
S'SEA'
p2216
sg6
S'0'
sg7
S'3'
sg8
S'3'
sg9
S'true'
p2217
sg11
S'SYD'
p2218
ssS'19'
p2219
(dp2220
g4
S'CTU'
p2221
sg6
S'2'
sg7
S'4'
sg8
S'6'
sg9
S'true'
p2222
sg11
S'GRU'
p2223
ssS'18'
p2224
(dp2225
g4
S'CTU'
p2226
sg6
S'0'
sg7
S'2'
sg8
S'3'
sg9
S'false'
p2227
sg11
S'LGW'
p2228
ssS'863'
p2229
(dp2230
g4
S'SEA'
p2231
sg6
S'2'
sg7
S'2'
sg8
S'6'
sg9
S'false'
p2232
sg11
S'LGW'
p2233
ssS'862'
p2234
(dp2235
g4
S'BOM'
p2236
sg6
S'2'
sg7
S'3'
sg8
S'5'
sg9
S'false'
p2237
sg11
S'LGW'
p2238
ssS'865'
p2239
(dp2240
g4
S'BOM'
p2241
sg6
S'1'
sg7
S'1'
sg8
S'4'
sg9
S'true'
p2242
sg11
S'SZX'
p2243
ssS'864'
p2244
(dp2245
g4
S'SEA'
p2246
sg6
S'2'
sg7
S'4'
sg8
S'5'
sg9
S'true'
p2247
sg11
S'SZX'
p2248
ssS'867'
p2249
(dp2250
g4
S'BOM'
p2251
sg6
S'2'
sg7
S'2'
sg8
S'3'
sg9
S'true'
p2252
sg11
S'BCN'
p2253
ssS'866'
p2254
(dp2255
g4
S'FCO'
p2256
sg6
S'0'
sg7
S'2'
sg8
S'6'
sg9
S'false'
p2257
sg11
S'GRU'
p2258
ssS'884'
p2259
(dp2260
g4
S'YYZ'
p2261
sg6
S'0'
sg7
S'3'
sg8
S'4'
sg9
S'false'
p2262
sg11
S'BCN'
p2263
ssS'938'
p2264
(dp2265
g4
S'CTU'
p2266
sg6
S'1'
sg7
S'1'
sg8
S'4'
sg9
S'false'
p2267
sg11
S'LGW'
p2268
ssS'659'
p2269
(dp2270
g4
S'FCO'
p2271
sg6
S'1'
sg7
S'4'
sg8
S'3'
sg9
S'false'
p2272
sg11
S'SYD'
p2273
ssS'883'
p2274
(dp2275
g4
S'SEA'
p2276
sg6
S'2'
sg7
S'3'
sg8
S'5'
sg9
S'true'
p2277
sg11
S'GRU'
p2278
ssS'753'
p2279
(dp2280
g4
S'MUC'
p2281
sg6
S'2'
sg7
S'1'
sg8
S'3'
sg9
S'false'
p2282
sg11
S'GRU'
p2283
ssS'881'
p2284
(dp2285
g4
S'YYZ'
p2286
sg6
S'1'
sg7
S'4'
sg8
S'5'
sg9
S'false'
p2287
sg11
S'BCN'
p2288
ssS'880'
p2289
(dp2290
g4
S'MUC'
p2291
sg6
S'1'
sg7
S'1'
sg8
S'3'
sg9
S'true'
p2292
sg11
S'GRU'
p2293
ssS'887'
p2294
(dp2295
g4
S'CTU'
p2296
sg6
S'0'
sg7
S'2'
sg8
S'5'
sg9
S'true'
p2297
sg11
S'GRU'
p2298
ssS'831'
p2299
(dp2300
g4
S'SEA'
p2301
sg6
S'1'
sg7
S'4'
sg8
S'3'
sg9
S'true'
p2302
sg11
S'GRU'
p2303
ssS'885'
p2304
(dp2305
g4
S'MUC'
p2306
sg6
S'2'
sg7
S'1'
sg8
S'6'
sg9
S'true'
p2307
sg11
S'SZX'
p2308
ssS'752'
p2309
(dp2310
g4
S'YYZ'
p2311
sg6
S'2'
sg7
S'4'
sg8
S'5'
sg9
S'false'
p2312
sg11
S'LGW'
p2313
ssS'928'
p2314
(dp2315
g4
S'MUC'
p2316
sg6
S'2'
sg7
S'1'
sg8
S'3'
sg9
S'true'
p2317
sg11
S'BCN'
p2318
ssS'62'
p2319
(dp2320
g4
S'FCO'
p2321
sg6
S'0'
sg7
S'4'
sg8
S'6'
sg9
S'true'
p2322
sg11
S'BCN'
p2323
ssS'888'
p2324
(dp2325
g4
S'SEA'
p2326
sg6
S'1'
sg7
S'3'
sg8
S'6'
sg9
S'false'
p2327
sg11
S'GRU'
p2328
ssS'950'
p2329
(dp2330
g4
S'YYZ'
p2331
sg6
S'2'
sg7
S'3'
sg8
S'4'
sg9
S'true'
p2332
sg11
S'MCO'
p2333
ssS'756'
p2334
(dp2335
g4
S'SEA'
p2336
sg6
S'1'
sg7
S'2'
sg8
S'4'
sg9
S'false'
p2337
sg11
S'SHA'
p2338
ssS'929'
p2339
(dp2340
g4
S'YYZ'
p2341
sg6
S'1'
sg7
S'4'
sg8
S'3'
sg9
S'false'
p2342
sg11
S'MCO'
p2343
ssS'63'
p2344
(dp2345
g4
S'BOM'
p2346
sg6
S'1'
sg7
S'1'
sg8
S'5'
sg9
S'false'
p2347
sg11
S'BCN'
p2348
ssS'809'
p2349
(dp2350
g4
S'BOM'
p2351
sg6
S'1'
sg7
S'4'
sg8
S'4'
sg9
S'false'
p2352
sg11
S'LGW'
p2353
ssS'322'
p2354
(dp2355
g4
S'MUC'
p2356
sg6
S'1'
sg7
S'3'
sg8
S'4'
sg9
S'false'
p2357
sg11
S'SYD'
p2358
ssS'323'
p2359
(dp2360
g4
S'FCO'
p2361
sg6
S'1'
sg7
S'3'
sg8
S'5'
sg9
S'false'
p2362
sg11
S'MCO'
p2363
ssS'320'
p2364
(dp2365
g4
S'YYZ'
p2366
sg6
S'1'
sg7
S'4'
sg8
S'3'
sg9
S'false'
p2367
sg11
S'SHA'
p2368
ssS'321'
p2369
(dp2370
g4
S'BOM'
p2371
sg6
S'0'
sg7
S'4'
sg8
S'3'
sg9
S'false'
p2372
sg11
S'BCN'
p2373
ssS'326'
p2374
(dp2375
g4
S'FCO'
p2376
sg6
S'1'
sg7
S'2'
sg8
S'5'
sg9
S'true'
p2377
sg11
S'MCO'
p2378
ssS'327'
p2379
(dp2380
g4
S'YYZ'
p2381
sg6
S'2'
sg7
S'4'
sg8
S'5'
sg9
S'false'
p2382
sg11
S'SZX'
p2383
ssS'324'
p2384
(dp2385
g4
S'FCO'
p2386
sg6
S'0'
sg7
S'1'
sg8
S'4'
sg9
S'false'
p2387
sg11
S'BCN'
p2388
ssS'325'
p2389
(dp2390
g4
S'FCO'
p2391
sg6
S'0'
sg7
S'3'
sg8
S'4'
sg9
S'true'
p2392
sg11
S'SHA'
p2393
ssS'328'
p2394
(dp2395
g4
S'MUC'
p2396
sg6
S'0'
sg7
S'2'
sg8
S'5'
sg9
S'true'
p2397
sg11
S'SYD'
p2398
ssS'329'
p2399
(dp2400
g4
S'MUC'
p2401
sg6
S'1'
sg7
S'4'
sg8
S'4'
sg9
S'false'
p2402
sg11
S'MCO'
p2403
ssS'759'
p2404
(dp2405
g4
S'FCO'
p2406
sg6
S'1'
sg7
S'3'
sg8
S'3'
sg9
S'false'
p2407
sg11
S'LGW'
p2408
ssS'201'
p2409
(dp2410
g4
S'FCO'
p2411
sg6
S'2'
sg7
S'4'
sg8
S'4'
sg9
S'true'
p2412
sg11
S'GRU'
p2413
ssS'200'
p2414
(dp2415
g4
S'MUC'
p2416
sg6
S'2'
sg7
S'3'
sg8
S'4'
sg9
S'true'
p2417
sg11
S'BCN'
p2418
ssS'203'
p2419
(dp2420
g4
S'FCO'
p2421
sg6
S'2'
sg7
S'4'
sg8
S'4'
sg9
S'false'
p2422
sg11
S'GRU'
p2423
ssS'202'
p2424
(dp2425
g4
S'MUC'
p2426
sg6
S'1'
sg7
S'2'
sg8
S'3'
sg9
S'true'
p2427
sg11
S'BCN'
p2428
ssS'205'
p2429
(dp2430
g4
S'YYZ'
p2431
sg6
S'2'
sg7
S'4'
sg8
S'4'
sg9
S'true'
p2432
sg11
S'SYD'
p2433
ssS'204'
p2434
(dp2435
g4
S'FCO'
p2436
sg6
S'1'
sg7
S'1'
sg8
S'5'
sg9
S'true'
p2437
sg11
S'GRU'
p2438
ssS'207'
p2439
(dp2440
g4
S'CTU'
p2441
sg6
S'2'
sg7
S'3'
sg8
S'3'
sg9
S'true'
p2442
sg11
S'GRU'
p2443
ssS'206'
p2444
(dp2445
g4
S'YYZ'
p2446
sg6
S'0'
sg7
S'4'
sg8
S'6'
sg9
S'false'
p2447
sg11
S'LGW'
p2448
ssS'209'
p2449
(dp2450
g4
S'SEA'
p2451
sg6
S'1'
sg7
S'1'
sg8
S'5'
sg9
S'false'
p2452
sg11
S'SYD'
p2453
ssS'208'
p2454
(dp2455
g4
S'SEA'
p2456
sg6
S'0'
sg7
S'2'
sg8
S'6'
sg9
S'true'
p2457
sg11
S'BCN'
p2458
ssS'779'
p2459
(dp2460
g4
S'YYZ'
p2461
sg6
S'1'
sg7
S'4'
sg8
S'5'
sg9
S'false'
p2462
sg11
S'SZX'
p2463
ssS'778'
p2464
(dp2465
g4
S'FCO'
p2466
sg6
S'2'
sg7
S'3'
sg8
S'3'
sg9
S'true'
p2467
sg11
S'BCN'
p2468
ssS'889'
p2469
(dp2470
g4
S'SEA'
p2471
sg6
S'0'
sg7
S'2'
sg8
S'3'
sg9
S'true'
p2472
sg11
S'SZX'
p2473
ssS'77'
p2474
(dp2475
g4
S'YYZ'
p2476
sg6
S'2'
sg7
S'4'
sg8
S'5'
sg9
S'true'
p2477
sg11
S'LGW'
p2478
ssS'76'
p2479
(dp2480
g4
S'YYZ'
p2481
sg6
S'2'
sg7
S'1'
sg8
S'4'
sg9
S'true'
p2482
sg11
S'MCO'
p2483
ssS'75'
p2484
(dp2485
g4
S'YYZ'
p2486
sg6
S'2'
sg7
S'2'
sg8
S'4'
sg9
S'false'
p2487
sg11
S'BCN'
p2488
ssS'74'
p2489
(dp2490
g4
S'BOM'
p2491
sg6
S'1'
sg7
S'2'
sg8
S'4'
sg9
S'true'
p2492
sg11
S'GRU'
p2493
ssS'73'
p2494
(dp2495
g4
S'BOM'
p2496
sg6
S'0'
sg7
S'4'
sg8
S'6'
sg9
S'false'
p2497
sg11
S'SHA'
p2498
ssS'72'
p2499
(dp2500
g4
S'FCO'
p2501
sg6
S'1'
sg7
S'2'
sg8
S'5'
sg9
S'false'
p2502
sg11
S'LGW'
p2503
ssS'71'
p2504
(dp2505
g4
S'SEA'
p2506
sg6
S'2'
sg7
S'3'
sg8
S'5'
sg9
S'false'
p2507
sg11
S'SHA'
p2508
ssS'70'
p2509
(dp2510
g4
S'SEA'
p2511
sg6
S'1'
sg7
S'4'
sg8
S'6'
sg9
S'true'
p2512
sg11
S'GRU'
p2513
ssS'655'
p2514
(dp2515
g4
S'MUC'
p2516
sg6
S'0'
sg7
S'3'
sg8
S'3'
sg9
S'true'
p2517
sg11
S'SHA'
p2518
ssS'79'
p2519
(dp2520
g4
S'SEA'
p2521
sg6
S'1'
sg7
S'1'
sg8
S'5'
sg9
S'false'
p2522
sg11
S'BCN'
p2523
ssS'78'
p2524
(dp2525
g4
S'CTU'
p2526
sg6
S'0'
sg7
S'4'
sg8
S'5'
sg9
S'false'
p2527
sg11
S'BCN'
p2528
ssS'2'
(dp2529
g4
S'CTU'
p2530
sg6
S'0'
sg7
S'3'
sg8
S'6'
sg9
S'true'
p2531
sg11
S'GRU'
p2532
ssS'805'
p2533
(dp2534
g4
S'FCO'
p2535
sg6
S'0'
sg7
S'2'
sg8
S'6'
sg9
S'true'
p2536
sg11
S'BCN'
p2537
ssS'804'
p2538
(dp2539
g4
S'YYZ'
p2540
sg6
S'2'
sg7
S'2'
sg8
S'4'
sg9
S'false'
p2541
sg11
S'LGW'
p2542
ssS'669'
p2543
(dp2544
g4
S'FCO'
p2545
sg6
S'2'
sg7
S'2'
sg8
S'5'
sg9
S'true'
p2546
sg11
S'SHA'
p2547
ssS'668'
p2548
(dp2549
g4
S'CTU'
p2550
sg6
S'1'
sg7
S'2'
sg8
S'6'
sg9
S'true'
p2551
sg11
S'LGW'
p2552
ssS'667'
p2553
(dp2554
g4
S'BOM'
p2555
sg6
S'2'
sg7
S'1'
sg8
S'6'
sg9
S'true'
p2556
sg11
S'MCO'
p2557
ssS'666'
p2558
(dp2559
g4
S'FCO'
p2560
sg6
S'1'
sg7
S'2'
sg8
S'4'
sg9
S'false'
p2561
sg11
S'BCN'
p2562
ssS'665'
p2563
(dp2564
g4
S'FCO'
p2565
sg6
S'1'
sg7
S'3'
sg8
S'5'
sg9
S'false'
p2566
sg11
S'SHA'
p2567
ssS'664'
p2568
(dp2569
g4
S'SEA'
p2570
sg6
S'1'
sg7
S'3'
sg8
S'4'
sg9
S'true'
p2571
sg11
S'GRU'
p2572
ssS'663'
p2573
(dp2574
g4
S'FCO'
p2575
sg6
S'0'
sg7
S'1'
sg8
S'6'
sg9
S'true'
p2576
sg11
S'SZX'
p2577
ssS'662'
p2578
(dp2579
g4
S'YYZ'
p2580
sg6
S'2'
sg7
S'2'
sg8
S'5'
sg9
S'false'
p2581
sg11
S'MCO'
p2582
ssS'661'
p2583
(dp2584
g4
S'MUC'
p2585
sg6
S'0'
sg7
S'4'
sg8
S'3'
sg9
S'false'
p2586
sg11
S'LGW'
p2587
ssS'660'
p2588
(dp2589
g4
S'BOM'
p2590
sg6
S'1'
sg7
S'2'
sg8
S'5'
sg9
S'true'
p2591
sg11
S'SZX'
p2592
ssS'769'
p2593
(dp2594
g4
S'FCO'
p2595
sg6
S'0'
sg7
S'2'
sg8
S'4'
sg9
S'true'
p2596
sg11
S'MCO'
p2597
ssS'692'
p2598
(dp2599
g4
S'BOM'
p2600
sg6
S'2'
sg7
S'4'
sg8
S'4'
sg9
S'true'
p2601
sg11
S'SZX'
p2602
ssS'693'
p2603
(dp2604
g4
S'SEA'
p2605
sg6
S'2'
sg7
S'1'
sg8
S'5'
sg9
S'true'
p2606
sg11
S'SYD'
p2607
ssS'690'
p2608
(dp2609
g4
S'MUC'
p2610
sg6
S'0'
sg7
S'2'
sg8
S'5'
sg9
S'false'
p2611
sg11
S'BCN'
p2612
ssS'691'
p2613
(dp2614
g4
S'BOM'
p2615
sg6
S'2'
sg7
S'1'
sg8
S'3'
sg9
S'true'
p2616
sg11
S'MCO'
p2617
ssS'696'
p2618
(dp2619
g4
S'SEA'
p2620
sg6
S'0'
sg7
S'3'
sg8
S'5'
sg9
S'true'
p2621
sg11
S'BCN'
p2622
ssS'697'
p2623
(dp2624
g4
S'BOM'
p2625
sg6
S'2'
sg7
S'3'
sg8
S'3'
sg9
S'false'
p2626
sg11
S'SYD'
p2627
ssS'694'
p2628
(dp2629
g4
S'FCO'
p2630
sg6
S'1'
sg7
S'3'
sg8
S'6'
sg9
S'true'
p2631
sg11
S'GRU'
p2632
ssS'695'
p2633
(dp2634
g4
S'YYZ'
p2635
sg6
S'1'
sg7
S'4'
sg8
S'5'
sg9
S'false'
p2636
sg11
S'MCO'
p2637
ssS'698'
p2638
(dp2639
g4
S'BOM'
p2640
sg6
S'1'
sg7
S'1'
sg8
S'3'
sg9
S'false'
p2641
sg11
S'LGW'
p2642
ssS'699'
p2643
(dp2644
g4
S'SEA'
p2645
sg6
S'0'
sg7
S'2'
sg8
S'4'
sg9
S'false'
p2646
sg11
S'MCO'
p2647
ssS'542'
p2648
(dp2649
g4
S'SEA'
p2650
sg6
S'1'
sg7
S'4'
sg8
S'4'
sg9
S'false'
p2651
sg11
S'SHA'
p2652
ssS'543'
p2653
(dp2654
g4
S'MUC'
p2655
sg6
S'0'
sg7
S'1'
sg8
S'5'
sg9
S'false'
p2656
sg11
S'SYD'
p2657
ssS'540'
p2658
(dp2659
g4
S'FCO'
p2660
sg6
S'1'
sg7
S'2'
sg8
S'3'
sg9
S'true'
p2661
sg11
S'SYD'
p2662
ssS'541'
p2663
(dp2664
g4
S'CTU'
p2665
sg6
S'0'
sg7
S'2'
sg8
S'6'
sg9
S'true'
p2666
sg11
S'SZX'
p2667
ssS'546'
p2668
(dp2669
g4
S'SEA'
p2670
sg6
S'0'
sg7
S'1'
sg8
S'3'
sg9
S'false'
p2671
sg11
S'SYD'
p2672
ssS'547'
p2673
(dp2674
g4
S'FCO'
p2675
sg6
S'1'
sg7
S'3'
sg8
S'3'
sg9
S'true'
p2676
sg11
S'BCN'
p2677
ssS'544'
p2678
(dp2679
g4
S'FCO'
p2680
sg6
S'2'
sg7
S'2'
sg8
S'3'
sg9
S'false'
p2681
sg11
S'MCO'
p2682
ssS'545'
p2683
(dp2684
g4
S'SEA'
p2685
sg6
S'0'
sg7
S'1'
sg8
S'5'
sg9
S'true'
p2686
sg11
S'MCO'
p2687
ssS'8'
(dp2688
g4
S'CTU'
p2689
sg6
S'2'
sg7
S'4'
sg8
S'4'
sg9
S'false'
p2690
sg11
S'GRU'
p2691
ssS'548'
p2692
(dp2693
g4
S'FCO'
p2694
sg6
S'2'
sg7
S'3'
sg8
S'5'
sg9
S'false'
p2695
sg11
S'BCN'
p2696
ssS'549'
p2697
(dp2698
g4
S'CTU'
p2699
sg6
S'0'
sg7
S'3'
sg8
S'3'
sg9
S'false'
p2700
sg11
S'BCN'
p2701
ssS'68'
p2702
(dp2703
g4
S'CTU'
p2704
sg6
S'1'
sg7
S'2'
sg8
S'6'
sg9
S'false'
p2705
sg11
S'BCN'
p2706
ssS'598'
p2707
(dp2708
g4
S'SEA'
p2709
sg6
S'1'
sg7
S'1'
sg8
S'4'
sg9
S'false'
p2710
sg11
S'MCO'
p2711
ssS'995'
p2712
(dp2713
g4
S'BOM'
p2714
sg6
S'0'
sg7
S'2'
sg8
S'4'
sg9
S'true'
p2715
sg11
S'MCO'
p2716
ssS'869'
p2717
(dp2718
g4
S'SEA'
p2719
sg6
S'0'
sg7
S'4'
sg8
S'5'
sg9
S'true'
p2720
sg11
S'SYD'
p2721
ssS'997'
p2722
(dp2723
g4
S'CTU'
p2724
sg6
S'0'
sg7
S'1'
sg8
S'6'
sg9
S'false'
p2725
sg11
S'GRU'
p2726
ssS'996'
p2727
(dp2728
g4
S'CTU'
p2729
sg6
S'2'
sg7
S'1'
sg8
S'4'
sg9
S'true'
p2730
sg11
S'SHA'
p2731
ssS'991'
p2732
(dp2733
g4
S'YYZ'
p2734
sg6
S'2'
sg7
S'4'
sg8
S'6'
sg9
S'false'
p2735
sg11
S'SHA'
p2736
ssS'990'
p2737
(dp2738
g4
S'CTU'
p2739
sg6
S'0'
sg7
S'4'
sg8
S'6'
sg9
S'false'
p2740
sg11
S'SHA'
p2741
ssS'993'
p2742
(dp2743
g4
S'FCO'
p2744
sg6
S'2'
sg7
S'1'
sg8
S'5'
sg9
S'true'
p2745
sg11
S'GRU'
p2746
ssS'868'
p2747
(dp2748
g4
S'MUC'
p2749
sg6
S'1'
sg7
S'4'
sg8
S'6'
sg9
S'true'
p2750
sg11
S'GRU'
p2751
ssS'999'
p2752
(dp2753
g4
S'YYZ'
p2754
sg6
S'2'
sg7
S'1'
sg8
S'3'
sg9
S'false'
p2755
sg11
S'SYD'
p2756
ssS'998'
p2757
(dp2758
g4
S'CTU'
p2759
sg6
S'1'
sg7
S'2'
sg8
S'3'
sg9
S'false'
p2760
sg11
S'SYD'
p2761
ssS'120'
p2762
(dp2763
g4
S'CTU'
p2764
sg6
S'1'
sg7
S'4'
sg8
S'3'
sg9
S'true'
p2765
sg11
S'SYD'
p2766
ssS'121'
p2767
(dp2768
g4
S'MUC'
p2769
sg6
S'1'
sg7
S'3'
sg8
S'4'
sg9
S'true'
p2770
sg11
S'MCO'
p2771
ssS'122'
p2772
(dp2773
g4
S'SEA'
p2774
sg6
S'0'
sg7
S'3'
sg8
S'5'
sg9
S'true'
p2775
sg11
S'MCO'
p2776
ssS'123'
p2777
(dp2778
g4
S'FCO'
p2779
sg6
S'2'
sg7
S'4'
sg8
S'4'
sg9
S'true'
p2780
sg11
S'BCN'
p2781
ssS'124'
p2782
(dp2783
g4
S'SEA'
p2784
sg6
S'0'
sg7
S'3'
sg8
S'6'
sg9
S'false'
p2785
sg11
S'GRU'
p2786
ssS'125'
p2787
(dp2788
g4
S'FCO'
p2789
sg6
S'2'
sg7
S'2'
sg8
S'3'
sg9
S'false'
p2790
sg11
S'SHA'
p2791
ssS'126'
p2792
(dp2793
g4
S'MUC'
p2794
sg6
S'0'
sg7
S'4'
sg8
S'4'
sg9
S'false'
p2795
sg11
S'SHA'
p2796
ssS'127'
p2797
(dp2798
g4
S'YYZ'
p2799
sg6
S'1'
sg7
S'3'
sg8
S'3'
sg9
S'true'
p2800
sg11
S'LGW'
p2801
ssS'128'
p2802
(dp2803
g4
S'FCO'
p2804
sg6
S'2'
sg7
S'2'
sg8
S'3'
sg9
S'false'
p2805
sg11
S'SHA'
p2806
ssS'129'
p2807
(dp2808
g4
S'CTU'
p2809
sg6
S'2'
sg7
S'4'
sg8
S'6'
sg9
S'true'
p2810
sg11
S'SYD'
p2811
ssS'765'
p2812
(dp2813
g4
S'SEA'
p2814
sg6
S'1'
sg7
S'3'
sg8
S'3'
sg9
S'false'
p2815
sg11
S'GRU'
p2816
ssS'69'
p2817
(dp2818
g4
S'SEA'
p2819
sg6
S'2'
sg7
S'2'
sg8
S'5'
sg9
S'false'
p2820
sg11
S'SHA'
p2821
ssS'414'
p2822
(dp2823
g4
S'CTU'
p2824
sg6
S'1'
sg7
S'3'
sg8
S'3'
sg9
S'true'
p2825
sg11
S'GRU'
p2826
ssS'415'
p2827
(dp2828
g4
S'YYZ'
p2829
sg6
S'1'
sg7
S'1'
sg8
S'6'
sg9
S'true'
p2830
sg11
S'LGW'
p2831
ssS'416'
p2832
(dp2833
g4
S'FCO'
p2834
sg6
S'1'
sg7
S'1'
sg8
S'4'
sg9
S'true'
p2835
sg11
S'LGW'
p2836
ssS'417'
p2837
(dp2838
g4
S'SEA'
p2839
sg6
S'1'
sg7
S'2'
sg8
S'5'
sg9
S'true'
p2840
sg11
S'BCN'
p2841
ssS'410'
p2842
(dp2843
g4
S'MUC'
p2844
sg6
S'1'
sg7
S'3'
sg8
S'3'
sg9
S'true'
p2845
sg11
S'LGW'
p2846
ssS'411'
p2847
(dp2848
g4
S'BOM'
p2849
sg6
S'0'
sg7
S'3'
sg8
S'4'
sg9
S'true'
p2850
sg11
S'SHA'
p2851
ssS'412'
p2852
(dp2853
g4
S'SEA'
p2854
sg6
S'2'
sg7
S'4'
sg8
S'4'
sg9
S'false'
p2855
sg11
S'LGW'
p2856
ssS'413'
p2857
(dp2858
g4
S'CTU'
p2859
sg6
S'1'
sg7
S'4'
sg8
S'6'
sg9
S'true'
p2860
sg11
S'SZX'
p2861
ssS'920'
p2862
(dp2863
g4
S'SEA'
p2864
sg6
S'2'
sg7
S'1'
sg8
S'4'
sg9
S'true'
p2865
sg11
S'SYD'
p2866
ssS'498'
p2867
(dp2868
g4
S'FCO'
p2869
sg6
S'1'
sg7
S'4'
sg8
S'4'
sg9
S'false'
p2870
sg11
S'SYD'
p2871
ssS'922'
p2872
(dp2873
g4
S'YYZ'
p2874
sg6
S'2'
sg7
S'2'
sg8
S'5'
sg9
S'false'
p2875
sg11
S'BCN'
p2876
ssS'923'
p2877
(dp2878
g4
S'SEA'
p2879
sg6
S'1'
sg7
S'1'
sg8
S'5'
sg9
S'true'
p2880
sg11
S'SHA'
p2881
ssS'418'
p2882
(dp2883
g4
S'SEA'
p2884
sg6
S'2'
sg7
S'3'
sg8
S'3'
sg9
S'false'
p2885
sg11
S'BCN'
p2886
ssS'419'
p2887
(dp2888
g4
S'YYZ'
p2889
sg6
S'2'
sg7
S'1'
sg8
S'5'
sg9
S'false'
p2890
sg11
S'SZX'
p2891
ssS'776'
p2892
(dp2893
g4
S'MUC'
p2894
sg6
S'0'
sg7
S'1'
sg8
S'3'
sg9
S'true'
p2895
sg11
S'LGW'
p2896
ssS'499'
p2897
(dp2898
g4
S'MUC'
p2899
sg6
S'1'
sg7
S'1'
sg8
S'5'
sg9
S'true'
p2900
sg11
S'SYD'
p2901
ssS'319'
p2902
(dp2903
g4
S'MUC'
p2904
sg6
S'2'
sg7
S'1'
sg8
S'5'
sg9
S'true'
p2905
sg11
S'BCN'
p2906
ssS'318'
p2907
(dp2908
g4
S'BOM'
p2909
sg6
S'0'
sg7
S'3'
sg8
S'6'
sg9
S'false'
p2910
sg11
S'BCN'
p2911
ssS'313'
p2912
(dp2913
g4
S'CTU'
p2914
sg6
S'0'
sg7
S'3'
sg8
S'3'
sg9
S'true'
p2915
sg11
S'LGW'
p2916
ssS'312'
p2917
(dp2918
g4
S'FCO'
p2919
sg6
S'2'
sg7
S'1'
sg8
S'5'
sg9
S'false'
p2920
sg11
S'LGW'
p2921
ssS'311'
p2922
(dp2923
g4
S'MUC'
p2924
sg6
S'0'
sg7
S'4'
sg8
S'5'
sg9
S'true'
p2925
sg11
S'GRU'
p2926
ssS'310'
p2927
(dp2928
g4
S'MUC'
p2929
sg6
S'2'
sg7
S'3'
sg8
S'5'
sg9
S'true'
p2930
sg11
S'MCO'
p2931
ssS'317'
p2932
(dp2933
g4
S'FCO'
p2934
sg6
S'1'
sg7
S'4'
sg8
S'4'
sg9
S'true'
p2935
sg11
S'SYD'
p2936
ssS'316'
p2937
(dp2938
g4
S'FCO'
p2939
sg6
S'2'
sg7
S'3'
sg8
S'3'
sg9
S'true'
p2940
sg11
S'SHA'
p2941
ssS'315'
p2942
(dp2943
g4
S'YYZ'
p2944
sg6
S'1'
sg7
S'3'
sg8
S'3'
sg9
S'false'
p2945
sg11
S'SYD'
p2946
ssS'314'
p2947
(dp2948
g4
S'CTU'
p2949
sg6
S'2'
sg7
S'3'
sg8
S'3'
sg9
S'true'
p2950
sg11
S'LGW'
p2951
ssS'861'
p2952
(dp2953
g4
S'BOM'
p2954
sg6
S'0'
sg7
S'3'
sg8
S'3'
sg9
S'false'
p2955
sg11
S'BCN'
p2956
ssS'921'
p2957
(dp2958
g4
S'CTU'
p2959
sg6
S'0'
sg7
S'3'
sg8
S'3'
sg9
S'true'
p2960
sg11
S'MCO'
p2961
ssS'496'
p2962
(dp2963
g4
S'FCO'
p2964
sg6
S'1'
sg7
S'3'
sg8
S'4'
sg9
S'true'
p2965
sg11
S'SYD'
p2966
ssS'832'
p2967
(dp2968
g4
S'SEA'
p2969
sg6
S'2'
sg7
S'3'
sg8
S'5'
sg9
S'true'
p2970
sg11
S'SZX'
p2971
ssS'833'
p2972
(dp2973
g4
S'FCO'
p2974
sg6
S'1'
sg7
S'4'
sg8
S'5'
sg9
S'true'
p2975
sg11
S'GRU'
p2976
ssS'830'
p2977
(dp2978
g4
S'SEA'
p2979
sg6
S'2'
sg7
S'3'
sg8
S'6'
sg9
S'true'
p2980
sg11
S'GRU'
p2981
ssS'497'
p2982
(dp2983
g4
S'BOM'
p2984
sg6
S'1'
sg7
S'4'
sg8
S'6'
sg9
S'true'
p2985
sg11
S'SYD'
p2986
ssS'836'
p2987
(dp2988
g4
S'FCO'
p2989
sg6
S'1'
sg7
S'4'
sg8
S'5'
sg9
S'true'
p2990
sg11
S'SZX'
p2991
ssS'837'
p2992
(dp2993
g4
S'MUC'
p2994
sg6
S'1'
sg7
S'4'
sg8
S'6'
sg9
S'false'
p2995
sg11
S'SYD'
p2996
ssS'834'
p2997
(dp2998
g4
S'MUC'
p2999
sg6
S'0'
sg7
S'4'
sg8
S'6'
sg9
S'true'
p3000
sg11
S'GRU'
p3001
ssS'835'
p3002
(dp3003
g4
S'YYZ'
p3004
sg6
S'0'
sg7
S'4'
sg8
S'4'
sg9
S'false'
p3005
sg11
S'LGW'
p3006
ssS'838'
p3007
(dp3008
g4
S'BOM'
p3009
sg6
S'2'
sg7
S'2'
sg8
S'3'
sg9
S'true'
p3010
sg11
S'MCO'
p3011
ssS'839'
p3012
(dp3013
g4
S'BOM'
p3014
sg6
S'0'
sg7
S'2'
sg8
S'6'
sg9
S'true'
p3015
sg11
S'SYD'
p3016
ssS'808'
p3017
(dp3018
g4
S'MUC'
p3019
sg6
S'2'
sg7
S'3'
sg8
S'5'
sg9
S'false'
p3020
sg11
S'MCO'
p3021
ssS'3'
(dp3022
g4
S'YYZ'
p3023
sg6
S'1'
sg7
S'1'
sg8
S'4'
sg9
S'true'
p3024
sg11
S'BCN'
p3025
ssS'368'
p3026
(dp3027
g4
S'YYZ'
p3028
sg6
S'2'
sg7
S'2'
sg8
S'3'
sg9
S'false'
p3029
sg11
S'MCO'
p3030
ssS'369'
p3031
(dp3032
g4
S'BOM'
p3033
sg6
S'1'
sg7
S'2'
sg8
S'4'
sg9
S'true'
p3034
sg11
S'SYD'
p3035
ssS'366'
p3036
(dp3037
g4
S'CTU'
p3038
sg6
S'2'
sg7
S'2'
sg8
S'6'
sg9
S'false'
p3039
sg11
S'BCN'
p3040
ssS'367'
p3041
(dp3042
g4
S'YYZ'
p3043
sg6
S'2'
sg7
S'1'
sg8
S'6'
sg9
S'true'
p3044
sg11
S'LGW'
p3045
ssS'364'
p3046
(dp3047
g4
S'MUC'
p3048
sg6
S'1'
sg7
S'4'
sg8
S'5'
sg9
S'true'
p3049
sg11
S'SYD'
p3050
ssS'365'
p3051
(dp3052
g4
S'SEA'
p3053
sg6
S'1'
sg7
S'4'
sg8
S'5'
sg9
S'true'
p3054
sg11
S'GRU'
p3055
ssS'362'
p3056
(dp3057
g4
S'CTU'
p3058
sg6
S'2'
sg7
S'2'
sg8
S'6'
sg9
S'true'
p3059
sg11
S'SYD'
p3060
ssS'363'
p3061
(dp3062
g4
S'YYZ'
p3063
sg6
S'2'
sg7
S'2'
sg8
S'3'
sg9
S'true'
p3064
sg11
S'SHA'
p3065
ssS'360'
p3066
(dp3067
g4
S'MUC'
p3068
sg6
S'2'
sg7
S'2'
sg8
S'5'
sg9
S'false'
p3069
sg11
S'MCO'
p3070
ssS'361'
p3071
(dp3072
g4
S'SEA'
p3073
sg6
S'1'
sg7
S'1'
sg8
S'4'
sg9
S'true'
p3074
sg11
S'LGW'
p3075
ssS'959'
p3076
(dp3077
g4
S'YYZ'
p3078
sg6
S'1'
sg7
S'3'
sg8
S'4'
sg9
S'false'
p3079
sg11
S'MCO'
p3080
ssS'952'
p3081
(dp3082
g4
S'SEA'
p3083
sg6
S'1'
sg7
S'2'
sg8
S'5'
sg9
S'false'
p3084
sg11
S'SYD'
p3085
ssS'882'
p3086
(dp3087
g4
S'SEA'
p3088
sg6
S'1'
sg7
S'1'
sg8
S'4'
sg9
S'false'
p3089
sg11
S'LGW'
p3090
ssS'380'
p3091
(dp3092
g4
S'FCO'
p3093
sg6
S'2'
sg7
S'4'
sg8
S'6'
sg9
S'false'
p3094
sg11
S'MCO'
p3095
ssS'381'
p3096
(dp3097
g4
S'SEA'
p3098
sg6
S'0'
sg7
S'2'
sg8
S'6'
sg9
S'false'
p3099
sg11
S'SZX'
p3100
ssS'382'
p3101
(dp3102
g4
S'SEA'
p3103
sg6
S'0'
sg7
S'4'
sg8
S'3'
sg9
S'true'
p3104
sg11
S'SYD'
p3105
ssS'383'
p3106
(dp3107
g4
S'FCO'
p3108
sg6
S'1'
sg7
S'1'
sg8
S'6'
sg9
S'false'
p3109
sg11
S'SZX'
p3110
ssS'384'
p3111
(dp3112
g4
S'SEA'
p3113
sg6
S'2'
sg7
S'3'
sg8
S'6'
sg9
S'true'
p3114
sg11
S'LGW'
p3115
ssS'385'
p3116
(dp3117
g4
S'FCO'
p3118
sg6
S'0'
sg7
S'4'
sg8
S'4'
sg9
S'false'
p3119
sg11
S'SHA'
p3120
ssS'386'
p3121
(dp3122
g4
S'FCO'
p3123
sg6
S'0'
sg7
S'4'
sg8
S'6'
sg9
S'true'
p3124
sg11
S'SZX'
p3125
ssS'387'
p3126
(dp3127
g4
S'SEA'
p3128
sg6
S'0'
sg7
S'3'
sg8
S'5'
sg9
S'false'
p3129
sg11
S'SZX'
p3130
ssS'388'
p3131
(dp3132
g4
S'CTU'
p3133
sg6
S'1'
sg7
S'1'
sg8
S'5'
sg9
S'false'
p3134
sg11
S'SYD'
p3135
ssS'389'
p3136
(dp3137
g4
S'CTU'
p3138
sg6
S'0'
sg7
S'3'
sg8
S'6'
sg9
S'true'
p3139
sg11
S'SZX'
p3140
ssS'784'
p3141
(dp3142
g4
S'FCO'
p3143
sg6
S'2'
sg7
S'4'
sg8
S'5'
sg9
S'false'
p3144
sg11
S'LGW'
p3145
ssS'785'
p3146
(dp3147
g4
S'BOM'
p3148
sg6
S'1'
sg7
S'3'
sg8
S'3'
sg9
S'true'
p3149
sg11
S'SHA'
p3150
ssS'786'
p3151
(dp3152
g4
S'FCO'
p3153
sg6
S'0'
sg7
S'3'
sg8
S'5'
sg9
S'false'
p3154
sg11
S'GRU'
p3155
ssS'787'
p3156
(dp3157
g4
S'YYZ'
p3158
sg6
S'0'
sg7
S'2'
sg8
S'5'
sg9
S'true'
p3159
sg11
S'SZX'
p3160
ssS'780'
p3161
(dp3162
g4
S'MUC'
p3163
sg6
S'1'
sg7
S'3'
sg8
S'4'
sg9
S'true'
p3164
sg11
S'LGW'
p3165
ssS'781'
p3166
(dp3167
g4
S'CTU'
p3168
sg6
S'1'
sg7
S'1'
sg8
S'3'
sg9
S'false'
p3169
sg11
S'SZX'
p3170
ssS'782'
p3171
(dp3172
g4
S'FCO'
p3173
sg6
S'0'
sg7
S'2'
sg8
S'4'
sg9
S'true'
p3174
sg11
S'SHA'
p3175
ssS'783'
p3176
(dp3177
g4
S'SEA'
p3178
sg6
S'1'
sg7
S'3'
sg8
S'4'
sg9
S'true'
p3179
sg11
S'BCN'
p3180
ssS'788'
p3181
(dp3182
g4
S'BOM'
p3183
sg6
S'0'
sg7
S'3'
sg8
S'5'
sg9
S'false'
p3184
sg11
S'LGW'
p3185
ssS'789'
p3186
(dp3187
g4
S'YYZ'
p3188
sg6
S'1'
sg7
S'3'
sg8
S'5'
sg9
S'false'
p3189
sg11
S'MCO'
p3190
ssS'860'
p3191
(dp3192
g4
S'CTU'
p3193
sg6
S'0'
sg7
S'4'
sg8
S'5'
sg9
S'true'
p3194
sg11
S'BCN'
p3195
ssS'605'
p3196
(dp3197
g4
S'YYZ'
p3198
sg6
S'0'
sg7
S'3'
sg8
S'4'
sg9
S'false'
p3199
sg11
S'MCO'
p3200
ssS'579'
p3201
(dp3202
g4
S'YYZ'
p3203
sg6
S'0'
sg7
S'1'
sg8
S'5'
sg9
S'false'
p3204
sg11
S'BCN'
p3205
ssS'578'
p3206
(dp3207
g4
S'MUC'
p3208
sg6
S'2'
sg7
S'3'
sg8
S'5'
sg9
S'true'
p3209
sg11
S'SZX'
p3210
ssS'604'
p3211
(dp3212
g4
S'SEA'
p3213
sg6
S'0'
sg7
S'3'
sg8
S'3'
sg9
S'true'
p3214
sg11
S'MCO'
p3215
ssS'573'
p3216
(dp3217
g4
S'MUC'
p3218
sg6
S'0'
sg7
S'1'
sg8
S'4'
sg9
S'true'
p3219
sg11
S'BCN'
p3220
ssS'572'
p3221
(dp3222
g4
S'FCO'
p3223
sg6
S'1'
sg7
S'2'
sg8
S'4'
sg9
S'true'
p3224
sg11
S'SZX'
p3225
ssS'571'
p3226
(dp3227
g4
S'YYZ'
p3228
sg6
S'1'
sg7
S'4'
sg8
S'3'
sg9
S'true'
p3229
sg11
S'GRU'
p3230
ssS'570'
p3231
(dp3232
g4
S'MUC'
p3233
sg6
S'0'
sg7
S'2'
sg8
S'3'
sg9
S'false'
p3234
sg11
S'GRU'
p3235
ssS'577'
p3236
(dp3237
g4
S'YYZ'
p3238
sg6
S'0'
sg7
S'2'
sg8
S'4'
sg9
S'false'
p3239
sg11
S'SZX'
p3240
ssS'576'
p3241
(dp3242
g4
S'CTU'
p3243
sg6
S'2'
sg7
S'1'
sg8
S'5'
sg9
S'true'
p3244
sg11
S'SYD'
p3245
ssS'575'
p3246
(dp3247
g4
S'YYZ'
p3248
sg6
S'2'
sg7
S'1'
sg8
S'6'
sg9
S'false'
p3249
sg11
S'LGW'
p3250
ssS'574'
p3251
(dp3252
g4
S'MUC'
p3253
sg6
S'2'
sg7
S'2'
sg8
S'5'
sg9
S'true'
p3254
sg11
S'MCO'
p3255
ssS'60'
p3256
(dp3257
g4
S'FCO'
p3258
sg6
S'2'
sg7
S'1'
sg8
S'6'
sg9
S'false'
p3259
sg11
S'SZX'
p3260
ssS'61'
p3261
(dp3262
g4
S'CTU'
p3263
sg6
S'1'
sg7
S'3'
sg8
S'4'
sg9
S'true'
p3264
sg11
S'MCO'
p3265
ssS'258'
p3266
(dp3267
g4
S'FCO'
p3268
sg6
S'2'
sg7
S'2'
sg8
S'4'
sg9
S'true'
p3269
sg11
S'SZX'
p3270
ssS'259'
p3271
(dp3272
g4
S'FCO'
p3273
sg6
S'2'
sg7
S'3'
sg8
S'4'
sg9
S'true'
p3274
sg11
S'LGW'
p3275
ssS'64'
p3276
(dp3277
g4
S'CTU'
p3278
sg6
S'1'
sg7
S'2'
sg8
S'6'
sg9
S'true'
p3279
sg11
S'SZX'
p3280
ssS'65'
p3281
(dp3282
g4
S'MUC'
p3283
sg6
S'2'
sg7
S'1'
sg8
S'6'
sg9
S'false'
p3284
sg11
S'SZX'
p3285
ssS'66'
p3286
(dp3287
g4
S'CTU'
p3288
sg6
S'1'
sg7
S'3'
sg8
S'5'
sg9
S'false'
p3289
sg11
S'SHA'
p3290
ssS'67'
p3291
(dp3292
g4
S'BOM'
p3293
sg6
S'0'
sg7
S'2'
sg8
S'6'
sg9
S'false'
p3294
sg11
S'SZX'
p3295
ssS'252'
p3296
(dp3297
g4
S'YYZ'
p3298
sg6
S'2'
sg7
S'3'
sg8
S'5'
sg9
S'true'
p3299
sg11
S'SYD'
p3300
ssS'253'
p3301
(dp3302
g4
S'BOM'
p3303
sg6
S'2'
sg7
S'2'
sg8
S'3'
sg9
S'true'
p3304
sg11
S'GRU'
p3305
ssS'250'
p3306
(dp3307
g4
S'FCO'
p3308
sg6
S'0'
sg7
S'2'
sg8
S'4'
sg9
S'false'
p3309
sg11
S'SYD'
p3310
ssS'251'
p3311
(dp3312
g4
S'SEA'
p3313
sg6
S'2'
sg7
S'3'
sg8
S'6'
sg9
S'true'
p3314
sg11
S'SHA'
p3315
ssS'256'
p3316
(dp3317
g4
S'YYZ'
p3318
sg6
S'0'
sg7
S'4'
sg8
S'5'
sg9
S'false'
p3319
sg11
S'BCN'
p3320
ssS'257'
p3321
(dp3322
g4
S'FCO'
p3323
sg6
S'1'
sg7
S'4'
sg8
S'4'
sg9
S'true'
p3324
sg11
S'SYD'
p3325
ssS'254'
p3326
(dp3327
g4
S'BOM'
p3328
sg6
S'0'
sg7
S'2'
sg8
S'5'
sg9
S'false'
p3329
sg11
S'SHA'
p3330
ssS'255'
p3331
(dp3332
g4
S'CTU'
p3333
sg6
S'2'
sg7
S'3'
sg8
S'6'
sg9
S'true'
p3334
sg11
S'GRU'
p3335
ssS'603'
p3336
(dp3337
g4
S'CTU'
p3338
sg6
S'0'
sg7
S'2'
sg8
S'3'
sg9
S'false'
p3339
sg11
S'GRU'
p3340
ssS'602'
p3341
(dp3342
g4
S'YYZ'
p3343
sg6
S'0'
sg7
S'2'
sg8
S'4'
sg9
S'false'
p3344
sg11
S'LGW'
p3345
ssS'939'
p3346
(dp3347
g4
S'BOM'
p3348
sg6
S'1'
sg7
S'3'
sg8
S'5'
sg9
S'false'
p3349
sg11
S'MCO'
p3350
ssS'731'
p3351
(dp3352
g4
S'BOM'
p3353
sg6
S'0'
sg7
S'1'
sg8
S'4'
sg9
S'false'
p3354
sg11
S'BCN'
p3355
ssS'730'
p3356
(dp3357
g4
S'BOM'
p3358
sg6
S'2'
sg7
S'2'
sg8
S'5'
sg9
S'true'
p3359
sg11
S'GRU'
p3360
ssS'733'
p3361
(dp3362
g4
S'FCO'
p3363
sg6
S'0'
sg7
S'2'
sg8
S'3'
sg9
S'true'
p3364
sg11
S'SZX'
p3365
ssS'732'
p3366
(dp3367
g4
S'CTU'
p3368
sg6
S'2'
sg7
S'4'
sg8
S'4'
sg9
S'true'
p3369
sg11
S'GRU'
p3370
ssS'735'
p3371
(dp3372
g4
S'MUC'
p3373
sg6
S'1'
sg7
S'4'
sg8
S'3'
sg9
S'true'
p3374
sg11
S'SZX'
p3375
ssS'734'
p3376
(dp3377
g4
S'SEA'
p3378
sg6
S'2'
sg7
S'4'
sg8
S'6'
sg9
S'true'
p3379
sg11
S'SHA'
p3380
ssS'508'
p3381
(dp3382
g4
S'SEA'
p3383
sg6
S'0'
sg7
S'2'
sg8
S'6'
sg9
S'false'
p3384
sg11
S'MCO'
p3385
ssS'509'
p3386
(dp3387
g4
S'BOM'
p3388
sg6
S'0'
sg7
S'2'
sg8
S'4'
sg9
S'true'
p3389
sg11
S'GRU'
p3390
ssS'506'
p3391
(dp3392
g4
S'FCO'
p3393
sg6
S'2'
sg7
S'4'
sg8
S'6'
sg9
S'false'
p3394
sg11
S'LGW'
p3395
ssS'507'
p3396
(dp3397
g4
S'CTU'
p3398
sg6
S'1'
sg7
S'2'
sg8
S'4'
sg9
S'false'
p3399
sg11
S'LGW'
p3400
ssS'504'
p3401
(dp3402
g4
S'SEA'
p3403
sg6
S'2'
sg7
S'2'
sg8
S'4'
sg9
S'false'
p3404
sg11
S'GRU'
p3405
ssS'505'
p3406
(dp3407
g4
S'MUC'
p3408
sg6
S'1'
sg7
S'4'
sg8
S'4'
sg9
S'false'
p3409
sg11
S'SZX'
p3410
ssS'502'
p3411
(dp3412
g4
S'BOM'
p3413
sg6
S'1'
sg7
S'3'
sg8
S'4'
sg9
S'false'
p3414
sg11
S'BCN'
p3415
ssS'503'
p3416
(dp3417
g4
S'SEA'
p3418
sg6
S'2'
sg7
S'3'
sg8
S'5'
sg9
S'false'
p3419
sg11
S'SYD'
p3420
ssS'500'
p3421
(dp3422
g4
S'CTU'
p3423
sg6
S'2'
sg7
S'1'
sg8
S'5'
sg9
S'true'
p3424
sg11
S'SHA'
p3425
ssS'501'
p3426
(dp3427
g4
S'YYZ'
p3428
sg6
S'2'
sg7
S'1'
sg8
S'3'
sg9
S'false'
p3429
sg11
S'MCO'
p3430
ssS'630'
p3431
(dp3432
g4
S'YYZ'
p3433
sg6
S'1'
sg7
S'1'
sg8
S'3'
sg9
S'false'
p3434
sg11
S'SZX'
p3435
ssS'631'
p3436
(dp3437
g4
S'BOM'
p3438
sg6
S'0'
sg7
S'2'
sg8
S'3'
sg9
S'true'
p3439
sg11
S'SYD'
p3440
ssS'632'
p3441
(dp3442
g4
S'BOM'
p3443
sg6
S'0'
sg7
S'3'
sg8
S'5'
sg9
S'false'
p3444
sg11
S'SHA'
p3445
ssS'633'
p3446
(dp3447
g4
S'SEA'
p3448
sg6
S'1'
sg7
S'1'
sg8
S'3'
sg9
S'false'
p3449
sg11
S'SZX'
p3450
ssS'469'
p3451
(dp3452
g4
S'CTU'
p3453
sg6
S'2'
sg7
S'3'
sg8
S'6'
sg9
S'true'
p3454
sg11
S'GRU'
p3455
ssS'468'
p3456
(dp3457
g4
S'FCO'
p3458
sg6
S'0'
sg7
S'2'
sg8
S'5'
sg9
S'false'
p3459
sg11
S'SHA'
p3460
ssS'636'
p3461
(dp3462
g4
S'SEA'
p3463
sg6
S'2'
sg7
S'3'
sg8
S'4'
sg9
S'true'
p3464
sg11
S'LGW'
p3465
ssS'637'
p3466
(dp3467
g4
S'SEA'
p3468
sg6
S'2'
sg7
S'1'
sg8
S'5'
sg9
S'true'
p3469
sg11
S'SZX'
p3470
ssS'465'
p3471
(dp3472
g4
S'SEA'
p3473
sg6
S'2'
sg7
S'2'
sg8
S'4'
sg9
S'false'
p3474
sg11
S'MCO'
p3475
ssS'464'
p3476
(dp3477
g4
S'CTU'
p3478
sg6
S'2'
sg7
S'1'
sg8
S'6'
sg9
S'true'
p3479
sg11
S'GRU'
p3480
ssS'467'
p3481
(dp3482
g4
S'SEA'
p3483
sg6
S'2'
sg7
S'1'
sg8
S'3'
sg9
S'false'
p3484
sg11
S'SYD'
p3485
ssS'466'
p3486
(dp3487
g4
S'YYZ'
p3488
sg6
S'0'
sg7
S'4'
sg8
S'6'
sg9
S'true'
p3489
sg11
S'MCO'
p3490
ssS'461'
p3491
(dp3492
g4
S'FCO'
p3493
sg6
S'2'
sg7
S'1'
sg8
S'3'
sg9
S'true'
p3494
sg11
S'MCO'
p3495
ssS'460'
p3496
(dp3497
g4
S'YYZ'
p3498
sg6
S'0'
sg7
S'4'
sg8
S'5'
sg9
S'false'
p3499
sg11
S'MCO'
p3500
ssS'463'
p3501
(dp3502
g4
S'CTU'
p3503
sg6
S'0'
sg7
S'2'
sg8
S'5'
sg9
S'true'
p3504
sg11
S'MCO'
p3505
ssS'462'
p3506
(dp3507
g4
S'BOM'
p3508
sg6
S'1'
sg7
S'4'
sg8
S'6'
sg9
S'true'
p3509
sg11
S'SHA'
p3510
ssS'901'
p3511
(dp3512
g4
S'BOM'
p3513
sg6
S'0'
sg7
S'3'
sg8
S'6'
sg9
S'false'
p3514
sg11
S'GRU'
p3515
ssS'168'
p3516
(dp3517
g4
S'SEA'
p3518
sg6
S'2'
sg7
S'1'
sg8
S'4'
sg9
S'false'
p3519
sg11
S'GRU'
p3520
ssS'169'
p3521
(dp3522
g4
S'YYZ'
p3523
sg6
S'1'
sg7
S'2'
sg8
S'5'
sg9
S'true'
p3524
sg11
S'SYD'
p3525
ssS'164'
p3526
(dp3527
g4
S'SEA'
p3528
sg6
S'1'
sg7
S'4'
sg8
S'5'
sg9
S'false'
p3529
sg11
S'SYD'
p3530
ssS'165'
p3531
(dp3532
g4
S'BOM'
p3533
sg6
S'2'
sg7
S'1'
sg8
S'4'
sg9
S'true'
p3534
sg11
S'BCN'
p3535
ssS'166'
p3536
(dp3537
g4
S'FCO'
p3538
sg6
S'2'
sg7
S'2'
sg8
S'3'
sg9
S'true'
p3539
sg11
S'SZX'
p3540
ssS'167'
p3541
(dp3542
g4
S'FCO'
p3543
sg6
S'1'
sg7
S'2'
sg8
S'3'
sg9
S'false'
p3544
sg11
S'SZX'
p3545
ssS'160'
p3546
(dp3547
g4
S'SEA'
p3548
sg6
S'0'
sg7
S'4'
sg8
S'5'
sg9
S'false'
p3549
sg11
S'SHA'
p3550
ssS'161'
p3551
(dp3552
g4
S'MUC'
p3553
sg6
S'1'
sg7
S'2'
sg8
S'5'
sg9
S'false'
p3554
sg11
S'BCN'
p3555
ssS'162'
p3556
(dp3557
g4
S'SEA'
p3558
sg6
S'0'
sg7
S'1'
sg8
S'5'
sg9
S'true'
p3559
sg11
S'SZX'
p3560
ssS'163'
p3561
(dp3562
g4
S'FCO'
p3563
sg6
S'1'
sg7
S'4'
sg8
S'5'
sg9
S'false'
p3564
sg11
S'SZX'
p3565
ssS'964'
p3566
(dp3567
g4
S'BOM'
p3568
sg6
S'1'
sg7
S'4'
sg8
S'3'
sg9
S'false'
p3569
sg11
S'SHA'
p3570
ssS'965'
p3571
(dp3572
g4
S'SEA'
p3573
sg6
S'2'
sg7
S'4'
sg8
S'5'
sg9
S'true'
p3574
sg11
S'SYD'
p3575
ssS'966'
p3576
(dp3577
g4
S'BOM'
p3578
sg6
S'1'
sg7
S'4'
sg8
S'5'
sg9
S'false'
p3579
sg11
S'SYD'
p3580
ssS'967'
p3581
(dp3582
g4
S'SEA'
p3583
sg6
S'2'
sg7
S'3'
sg8
S'6'
sg9
S'true'
p3584
sg11
S'SHA'
p3585
ssS'960'
p3586
(dp3587
g4
S'FCO'
p3588
sg6
S'1'
sg7
S'2'
sg8
S'6'
sg9
S'true'
p3589
sg11
S'BCN'
p3590
ssS'961'
p3591
(dp3592
g4
S'MUC'
p3593
sg6
S'2'
sg7
S'3'
sg8
S'6'
sg9
S'false'
p3594
sg11
S'MCO'
p3595
ssS'962'
p3596
(dp3597
g4
S'CTU'
p3598
sg6
S'1'
sg7
S'4'
sg8
S'6'
sg9
S'false'
p3599
sg11
S'SYD'
p3600
ssS'963'
p3601
(dp3602
g4
S'FCO'
p3603
sg6
S'2'
sg7
S'2'
sg8
S'5'
sg9
S'false'
p3604
sg11
S'BCN'
p3605
ssS'968'
p3606
(dp3607
g4
S'FCO'
p3608
sg6
S'0'
sg7
S'1'
sg8
S'6'
sg9
S'false'
p3609
sg11
S'BCN'
p3610
ssS'969'
p3611
(dp3612
g4
S'FCO'
p3613
sg6
S'0'
sg7
S'4'
sg8
S'6'
sg9
S'true'
p3614
sg11
S'SZX'
p3615
ssS'936'
p3616
(dp3617
g4
S'MUC'
p3618
sg6
S'1'
sg7
S'4'
sg8
S'3'
sg9
S'true'
p3619
sg11
S'SHA'
p3620
ssS'935'
p3621
(dp3622
g4
S'YYZ'
p3623
sg6
S'2'
sg7
S'4'
sg8
S'3'
sg9
S'true'
p3624
sg11
S'SZX'
p3625
ssS'934'
p3626
(dp3627
g4
S'BOM'
p3628
sg6
S'1'
sg7
S'4'
sg8
S'5'
sg9
S'true'
p3629
sg11
S'MCO'
p3630
ssS'908'
p3631
(dp3632
g4
S'SEA'
p3633
sg6
S'1'
sg7
S'4'
sg8
S'6'
sg9
S'false'
p3634
sg11
S'SZX'
p3635
ssS'909'
p3636
(dp3637
g4
S'BOM'
p3638
sg6
S'0'
sg7
S'2'
sg8
S'4'
sg9
S'false'
p3639
sg11
S'BCN'
p3640
ssS'600'
p3641
(dp3642
g4
S'CTU'
p3643
sg6
S'0'
sg7
S'1'
sg8
S'6'
sg9
S'false'
p3644
sg11
S'SYD'
p3645
ssS'878'
p3646
(dp3647
g4
S'CTU'
p3648
sg6
S'1'
sg7
S'2'
sg8
S'6'
sg9
S'false'
p3649
sg11
S'LGW'
p3650
ssS'879'
p3651
(dp3652
g4
S'BOM'
p3653
sg6
S'1'
sg7
S'4'
sg8
S'5'
sg9
S'false'
p3654
sg11
S'SZX'
p3655
ssS'876'
p3656
(dp3657
g4
S'MUC'
p3658
sg6
S'0'
sg7
S'1'
sg8
S'4'
sg9
S'false'
p3659
sg11
S'LGW'
p3660
ssS'877'
p3661
(dp3662
g4
S'CTU'
p3663
sg6
S'2'
sg7
S'1'
sg8
S'5'
sg9
S'false'
p3664
sg11
S'MCO'
p3665
ssS'874'
p3666
(dp3667
g4
S'CTU'
p3668
sg6
S'1'
sg7
S'1'
sg8
S'3'
sg9
S'true'
p3669
sg11
S'GRU'
p3670
ssS'875'
p3671
(dp3672
g4
S'BOM'
p3673
sg6
S'2'
sg7
S'4'
sg8
S'3'
sg9
S'true'
p3674
sg11
S'GRU'
p3675
ssS'872'
p3676
(dp3677
g4
S'YYZ'
p3678
sg6
S'2'
sg7
S'4'
sg8
S'4'
sg9
S'false'
p3679
sg11
S'MCO'
p3680
ssS'873'
p3681
(dp3682
g4
S'YYZ'
p3683
sg6
S'1'
sg7
S'1'
sg8
S'3'
sg9
S'false'
p3684
sg11
S'GRU'
p3685
ssS'870'
p3686
(dp3687
g4
S'MUC'
p3688
sg6
S'0'
sg7
S'1'
sg8
S'6'
sg9
S'true'
p3689
sg11
S'LGW'
p3690
ssS'871'
p3691
(dp3692
g4
S'BOM'
p3693
sg6
S'2'
sg7
S'3'
sg8
S'6'
sg9
S'true'
p3694
sg11
S'LGW'
p3695
ssS'9'
(dp3696
g4
S'BOM'
p3697
sg6
S'1'
sg7
S'3'
sg8
S'4'
sg9
S'false'
p3698
sg11
S'BCN'
p3699
ssS'890'
p3700
(dp3701
g4
S'FCO'
p3702
sg6
S'1'
sg7
S'3'
sg8
S'5'
sg9
S'true'
p3703
sg11
S'SHA'
p3704
ssS'891'
p3705
(dp3706
g4
S'SEA'
p3707
sg6
S'0'
sg7
S'1'
sg8
S'5'
sg9
S'true'
p3708
sg11
S'SZX'
p3709
ssS'892'
p3710
(dp3711
g4
S'YYZ'
p3712
sg6
S'1'
sg7
S'1'
sg8
S'6'
sg9
S'true'
p3713
sg11
S'LGW'
p3714
ssS'893'
p3715
(dp3716
g4
S'MUC'
p3717
sg6
S'2'
sg7
S'4'
sg8
S'3'
sg9
S'false'
p3718
sg11
S'SYD'
p3719
ssS'894'
p3720
(dp3721
g4
S'BOM'
p3722
sg6
S'1'
sg7
S'2'
sg8
S'6'
sg9
S'true'
p3723
sg11
S'LGW'
p3724
ssS'647'
p3725
(dp3726
g4
S'SEA'
p3727
sg6
S'2'
sg7
S'1'
sg8
S'3'
sg9
S'false'
p3728
sg11
S'SZX'
p3729
ssS'896'
p3730
(dp3731
g4
S'SEA'
p3732
sg6
S'1'
sg7
S'3'
sg8
S'5'
sg9
S'true'
p3733
sg11
S'SYD'
p3734
ssS'897'
p3735
(dp3736
g4
S'MUC'
p3737
sg6
S'0'
sg7
S'2'
sg8
S'6'
sg9
S'true'
p3738
sg11
S'BCN'
p3739
ssS'898'
p3740
(dp3741
g4
S'CTU'
p3742
sg6
S'2'
sg7
S'3'
sg8
S'6'
sg9
S'false'
p3743
sg11
S'BCN'
p3744
ssS'899'
p3745
(dp3746
g4
S'BOM'
p3747
sg6
S'1'
sg7
S'4'
sg8
S'6'
sg9
S'false'
p3748
sg11
S'LGW'
p3749
ssS'646'
p3750
(dp3751
g4
S'YYZ'
p3752
sg6
S'2'
sg7
S'1'
sg8
S'6'
sg9
S'false'
p3753
sg11
S'MCO'
p3754
ssS'649'
p3755
(dp3756
g4
S'SEA'
p3757
sg6
S'2'
sg7
S'3'
sg8
S'6'
sg9
S'false'
p3758
sg11
S'MCO'
p3759
ssS'648'
p3760
(dp3761
g4
S'YYZ'
p3762
sg6
S'0'
sg7
S'2'
sg8
S'5'
sg9
S'true'
p3763
sg11
S'LGW'
p3764
ssS'357'
p3765
(dp3766
g4
S'FCO'
p3767
sg6
S'2'
sg7
S'2'
sg8
S'4'
sg9
S'true'
p3768
sg11
S'MCO'
p3769
ssS'356'
p3770
(dp3771
g4
S'MUC'
p3772
sg6
S'1'
sg7
S'3'
sg8
S'3'
sg9
S'true'
p3773
sg11
S'SZX'
p3774
ssS'355'
p3775
(dp3776
g4
S'YYZ'
p3777
sg6
S'1'
sg7
S'1'
sg8
S'3'
sg9
S'true'
p3778
sg11
S'SHA'
p3779
ssS'354'
p3780
(dp3781
g4
S'YYZ'
p3782
sg6
S'0'
sg7
S'4'
sg8
S'4'
sg9
S'true'
p3783
sg11
S'SHA'
p3784
ssS'353'
p3785
(dp3786
g4
S'YYZ'
p3787
sg6
S'0'
sg7
S'2'
sg8
S'5'
sg9
S'true'
p3788
sg11
S'MCO'
p3789
ssS'352'
p3790
(dp3791
g4
S'FCO'
p3792
sg6
S'2'
sg7
S'3'
sg8
S'4'
sg9
S'true'
p3793
sg11
S'MCO'
p3794
ssS'351'
p3795
(dp3796
g4
S'MUC'
p3797
sg6
S'2'
sg7
S'1'
sg8
S'5'
sg9
S'false'
p3798
sg11
S'BCN'
p3799
ssS'350'
p3800
(dp3801
g4
S'SEA'
p3802
sg6
S'0'
sg7
S'2'
sg8
S'5'
sg9
S'false'
p3803
sg11
S'SYD'
p3804
ssS'803'
p3805
(dp3806
g4
S'BOM'
p3807
sg6
S'1'
sg7
S'2'
sg8
S'5'
sg9
S'true'
p3808
sg11
S'SYD'
p3809
ssS'802'
p3810
(dp3811
g4
S'SEA'
p3812
sg6
S'1'
sg7
S'1'
sg8
S'3'
sg9
S'true'
p3813
sg11
S'GRU'
p3814
ssS'801'
p3815
(dp3816
g4
S'MUC'
p3817
sg6
S'1'
sg7
S'4'
sg8
S'4'
sg9
S'true'
p3818
sg11
S'BCN'
p3819
ssS'800'
p3820
(dp3821
g4
S'FCO'
p3822
sg6
S'2'
sg7
S'2'
sg8
S'4'
sg9
S'false'
p3823
sg11
S'BCN'
p3824
ssS'807'
p3825
(dp3826
g4
S'YYZ'
p3827
sg6
S'2'
sg7
S'2'
sg8
S'3'
sg9
S'false'
p3828
sg11
S'SYD'
p3829
ssS'806'
p3830
(dp3831
g4
S'YYZ'
p3832
sg6
S'0'
sg7
S'1'
sg8
S'3'
sg9
S'false'
p3833
sg11
S'BCN'
p3834
ssS'359'
p3835
(dp3836
g4
S'CTU'
p3837
sg6
S'0'
sg7
S'1'
sg8
S'6'
sg9
S'true'
p3838
sg11
S'GRU'
p3839
ssS'358'
p3840
(dp3841
g4
S'FCO'
p3842
sg6
S'1'
sg7
S'2'
sg8
S'3'
sg9
S'true'
p3843
sg11
S'SYD'
p3844
ssS'216'
p3845
(dp3846
g4
S'BOM'
p3847
sg6
S'1'
sg7
S'3'
sg8
S'4'
sg9
S'true'
p3848
sg11
S'SZX'
p3849
ssS'217'
p3850
(dp3851
g4
S'BOM'
p3852
sg6
S'1'
sg7
S'2'
sg8
S'6'
sg9
S'true'
p3853
sg11
S'SHA'
p3854
ssS'214'
p3855
(dp3856
g4
S'FCO'
p3857
sg6
S'0'
sg7
S'1'
sg8
S'3'
sg9
S'true'
p3858
sg11
S'SZX'
p3859
ssS'215'
p3860
(dp3861
g4
S'FCO'
p3862
sg6
S'2'
sg7
S'2'
sg8
S'4'
sg9
S'true'
p3863
sg11
S'SYD'
p3864
ssS'212'
p3865
(dp3866
g4
S'YYZ'
p3867
sg6
S'2'
sg7
S'1'
sg8
S'6'
sg9
S'true'
p3868
sg11
S'SYD'
p3869
ssS'213'
p3870
(dp3871
g4
S'SEA'
p3872
sg6
S'0'
sg7
S'1'
sg8
S'5'
sg9
S'false'
p3873
sg11
S'BCN'
p3874
ssS'210'
p3875
(dp3876
g4
S'BOM'
p3877
sg6
S'2'
sg7
S'2'
sg8
S'5'
sg9
S'false'
p3878
sg11
S'GRU'
p3879
ssS'211'
p3880
(dp3881
g4
S'CTU'
p3882
sg6
S'0'
sg7
S'3'
sg8
S'3'
sg9
S'true'
p3883
sg11
S'SHA'
p3884
ssS'762'
p3885
(dp3886
g4
S'MUC'
p3887
sg6
S'1'
sg7
S'3'
sg8
S'6'
sg9
S'false'
p3888
sg11
S'BCN'
p3889
ssS'763'
p3890
(dp3891
g4
S'MUC'
p3892
sg6
S'2'
sg7
S'2'
sg8
S'6'
sg9
S'false'
p3893
sg11
S'SZX'
p3894
ssS'760'
p3895
(dp3896
g4
S'CTU'
p3897
sg6
S'1'
sg7
S'1'
sg8
S'4'
sg9
S'true'
p3898
sg11
S'LGW'
p3899
ssS'761'
p3900
(dp3901
g4
S'YYZ'
p3902
sg6
S'2'
sg7
S'4'
sg8
S'3'
sg9
S'false'
p3903
sg11
S'BCN'
p3904
ssS'766'
p3905
(dp3906
g4
S'SEA'
p3907
sg6
S'2'
sg7
S'4'
sg8
S'4'
sg9
S'false'
p3908
sg11
S'SZX'
p3909
ssS'767'
p3910
(dp3911
g4
S'SEA'
p3912
sg6
S'0'
sg7
S'3'
sg8
S'6'
sg9
S'true'
p3913
sg11
S'BCN'
p3914
ssS'218'
p3915
(dp3916
g4
S'FCO'
p3917
sg6
S'0'
sg7
S'1'
sg8
S'4'
sg9
S'true'
p3918
sg11
S'BCN'
p3919
ssS'219'
p3920
(dp3921
g4
S'BOM'
p3922
sg6
S'0'
sg7
S'3'
sg8
S'3'
sg9
S'true'
p3923
sg11
S'SYD'
p3924
ssS'957'
p3925
(dp3926
g4
S'YYZ'
p3927
sg6
S'1'
sg7
S'2'
sg8
S'3'
sg9
S'false'
p3928
sg11
S'LGW'
p3929
ssS'956'
p3930
(dp3931
g4
S'YYZ'
p3932
sg6
S'0'
sg7
S'3'
sg8
S'4'
sg9
S'false'
p3933
sg11
S'SZX'
p3934
ssS'289'
p3935
(dp3936
g4
S'SEA'
p3937
sg6
S'1'
sg7
S'2'
sg8
S'3'
sg9
S'true'
p3938
sg11
S'SYD'
p3939
ssS'288'
p3940
(dp3941
g4
S'BOM'
p3942
sg6
S'0'
sg7
S'3'
sg8
S'4'
sg9
S'true'
p3943
sg11
S'MCO'
p3944
ssS'4'
(dp3945
g4
S'FCO'
p3946
sg6
S'0'
sg7
S'2'
sg8
S'4'
sg9
S'true'
p3947
sg11
S'LGW'
p3948
ssS'281'
p3949
(dp3950
g4
S'MUC'
p3951
sg6
S'2'
sg7
S'4'
sg8
S'6'
sg9
S'false'
p3952
sg11
S'MCO'
p3953
ssS'280'
p3954
(dp3955
g4
S'FCO'
p3956
sg6
S'0'
sg7
S'2'
sg8
S'5'
sg9
S'true'
p3957
sg11
S'SHA'
p3958
ssS'283'
p3959
(dp3960
g4
S'SEA'
p3961
sg6
S'1'
sg7
S'4'
sg8
S'4'
sg9
S'true'
p3962
sg11
S'SHA'
p3963
ssS'282'
p3964
(dp3965
g4
S'MUC'
p3966
sg6
S'2'
sg7
S'1'
sg8
S'4'
sg9
S'false'
p3967
sg11
S'SHA'
p3968
ssS'285'
p3969
(dp3970
g4
S'SEA'
p3971
sg6
S'2'
sg7
S'2'
sg8
S'6'
sg9
S'false'
p3972
sg11
S'MCO'
p3973
ssS'284'
p3974
(dp3975
g4
S'MUC'
p3976
sg6
S'1'
sg7
S'2'
sg8
S'4'
sg9
S'false'
p3977
sg11
S'MCO'
p3978
ssS'287'
p3979
(dp3980
g4
S'CTU'
p3981
sg6
S'1'
sg7
S'2'
sg8
S'5'
sg9
S'false'
p3982
sg11
S'GRU'
p3983
ssS'286'
p3984
(dp3985
g4
S'MUC'
p3986
sg6
S'0'
sg7
S'3'
sg8
S'3'
sg9
S'false'
p3987
sg11
S'MCO'
p3988
ssS'678'
p3989
(dp3990
g4
S'FCO'
p3991
sg6
S'1'
sg7
S'2'
sg8
S'6'
sg9
S'true'
p3992
sg11
S'SHA'
p3993
ssS'679'
p3994
(dp3995
g4
S'BOM'
p3996
sg6
S'0'
sg7
S'1'
sg8
S'3'
sg9
S'false'
p3997
sg11
S'SYD'
p3998
ssS'674'
p3999
(dp4000
g4
S'FCO'
p4001
sg6
S'1'
sg7
S'1'
sg8
S'3'
sg9
S'true'
p4002
sg11
S'SHA'
p4003
ssS'675'
p4004
(dp4005
g4
S'FCO'
p4006
sg6
S'2'
sg7
S'4'
sg8
S'5'
sg9
S'false'
p4007
sg11
S'SYD'
p4008
ssS'676'
p4009
(dp4010
g4
S'FCO'
p4011
sg6
S'1'
sg7
S'4'
sg8
S'4'
sg9
S'true'
p4012
sg11
S'SZX'
p4013
ssS'677'
p4014
(dp4015
g4
S'FCO'
p4016
sg6
S'1'
sg7
S'4'
sg8
S'4'
sg9
S'false'
p4017
sg11
S'SZX'
p4018
ssS'670'
p4019
(dp4020
g4
S'YYZ'
p4021
sg6
S'0'
sg7
S'2'
sg8
S'3'
sg9
S'false'
p4022
sg11
S'BCN'
p4023
ssS'671'
p4024
(dp4025
g4
S'YYZ'
p4026
sg6
S'2'
sg7
S'1'
sg8
S'3'
sg9
S'false'
p4027
sg11
S'SZX'
p4028
ssS'672'
p4029
(dp4030
g4
S'SEA'
p4031
sg6
S'2'
sg7
S'2'
sg8
S'4'
sg9
S'false'
p4032
sg11
S'LGW'
p4033
ssS'673'
p4034
(dp4035
g4
S'SEA'
p4036
sg6
S'2'
sg7
S'2'
sg8
S'3'
sg9
S'false'
p4037
sg11
S'SHA'
p4038
ssS'263'
p4039
(dp4040
g4
S'FCO'
p4041
sg6
S'0'
sg7
S'3'
sg8
S'6'
sg9
S'true'
p4042
sg11
S'SZX'
p4043
ssS'262'
p4044
(dp4045
g4
S'YYZ'
p4046
sg6
S'0'
sg7
S'4'
sg8
S'6'
sg9
S'true'
p4047
sg11
S'SHA'
p4048
ssS'261'
p4049
(dp4050
g4
S'BOM'
p4051
sg6
S'2'
sg7
S'2'
sg8
S'3'
sg9
S'true'
p4052
sg11
S'LGW'
p4053
ssS'260'
p4054
(dp4055
g4
S'YYZ'
p4056
sg6
S'2'
sg7
S'3'
sg8
S'6'
sg9
S'true'
p4057
sg11
S'SYD'
p4058
ssS'267'
p4059
(dp4060
g4
S'MUC'
p4061
sg6
S'2'
sg7
S'3'
sg8
S'4'
sg9
S'false'
p4062
sg11
S'MCO'
p4063
ssS'266'
p4064
(dp4065
g4
S'FCO'
p4066
sg6
S'0'
sg7
S'1'
sg8
S'5'
sg9
S'false'
p4067
sg11
S'MCO'
p4068
ssS'265'
p4069
(dp4070
g4
S'FCO'
p4071
sg6
S'1'
sg7
S'3'
sg8
S'4'
sg9
S'false'
p4072
sg11
S'BCN'
p4073
ssS'264'
p4074
(dp4075
g4
S'MUC'
p4076
sg6
S'0'
sg7
S'3'
sg8
S'4'
sg9
S'false'
p4077
sg11
S'GRU'
p4078
ssS'269'
p4079
(dp4080
g4
S'YYZ'
p4081
sg6
S'2'
sg7
S'3'
sg8
S'5'
sg9
S'false'
p4082
sg11
S'SZX'
p4083
ssS'268'
p4084
(dp4085
g4
S'YYZ'
p4086
sg6
S'1'
sg7
S'2'
sg8
S'4'
sg9
S'true'
p4087
sg11
S'BCN'
p4088
ssS'701'
p4089
(dp4090
g4
S'SEA'
p4091
sg6
S'0'
sg7
S'4'
sg8
S'5'
sg9
S'true'
p4092
sg11
S'SHA'
p4093
ssS'59'
p4094
(dp4095
g4
S'FCO'
p4096
sg6
S'0'
sg7
S'1'
sg8
S'5'
sg9
S'false'
p4097
sg11
S'BCN'
p4098
ssS'58'
p4099
(dp4100
g4
S'SEA'
p4101
sg6
S'2'
sg7
S'2'
sg8
S'4'
sg9
S'false'
p4102
sg11
S'MCO'
p4103
ssS'55'
p4104
(dp4105
g4
S'MUC'
p4106
sg6
S'1'
sg7
S'1'
sg8
S'3'
sg9
S'false'
p4107
sg11
S'MCO'
p4108
ssS'54'
p4109
(dp4110
g4
S'YYZ'
p4111
sg6
S'2'
sg7
S'3'
sg8
S'3'
sg9
S'true'
p4112
sg11
S'BCN'
p4113
ssS'57'
p4114
(dp4115
g4
S'BOM'
p4116
sg6
S'2'
sg7
S'3'
sg8
S'4'
sg9
S'true'
p4117
sg11
S'BCN'
p4118
ssS'56'
p4119
(dp4120
g4
S'MUC'
p4121
sg6
S'2'
sg7
S'3'
sg8
S'6'
sg9
S'true'
p4122
sg11
S'SZX'
p4123
ssS'51'
p4124
(dp4125
g4
S'BOM'
p4126
sg6
S'2'
sg7
S'4'
sg8
S'5'
sg9
S'false'
p4127
sg11
S'BCN'
p4128
ssS'50'
p4129
(dp4130
g4
S'BOM'
p4131
sg6
S'1'
sg7
S'1'
sg8
S'3'
sg9
S'false'
p4132
sg11
S'GRU'
p4133
ssS'53'
p4134
(dp4135
g4
S'CTU'
p4136
sg6
S'1'
sg7
S'1'
sg8
S'5'
sg9
S'true'
p4137
sg11
S'BCN'
p4138
ssS'52'
p4139
(dp4140
g4
S'MUC'
p4141
sg6
S'0'
sg7
S'3'
sg8
S'4'
sg9
S'true'
p4142
sg11
S'MCO'
p4143
ssS'537'
p4144
(dp4145
g4
S'FCO'
p4146
sg6
S'1'
sg7
S'4'
sg8
S'6'
sg9
S'false'
p4147
sg11
S'SYD'
p4148
ssS'536'
p4149
(dp4150
g4
S'BOM'
p4151
sg6
S'1'
sg7
S'1'
sg8
S'6'
sg9
S'true'
p4152
sg11
S'GRU'
p4153
ssS'535'
p4154
(dp4155
g4
S'FCO'
p4156
sg6
S'1'
sg7
S'2'
sg8
S'6'
sg9
S'false'
p4157
sg11
S'GRU'
p4158
ssS'534'
p4159
(dp4160
g4
S'FCO'
p4161
sg6
S'2'
sg7
S'4'
sg8
S'3'
sg9
S'false'
p4162
sg11
S'BCN'
p4163
ssS'533'
p4164
(dp4165
g4
S'CTU'
p4166
sg6
S'0'
sg7
S'2'
sg8
S'5'
sg9
S'true'
p4167
sg11
S'BCN'
p4168
ssS'532'
p4169
(dp4170
g4
S'SEA'
p4171
sg6
S'1'
sg7
S'4'
sg8
S'6'
sg9
S'false'
p4172
sg11
S'SHA'
p4173
ssS'531'
p4174
(dp4175
g4
S'BOM'
p4176
sg6
S'1'
sg7
S'2'
sg8
S'4'
sg9
S'false'
p4177
sg11
S'MCO'
p4178
ssS'530'
p4179
(dp4180
g4
S'BOM'
p4181
sg6
S'2'
sg7
S'4'
sg8
S'6'
sg9
S'false'
p4182
sg11
S'LGW'
p4183
ssS'539'
p4184
(dp4185
g4
S'BOM'
p4186
sg6
S'1'
sg7
S'3'
sg8
S'5'
sg9
S'true'
p4187
sg11
S'SZX'
p4188
ssS'538'
p4189
(dp4190
g4
S'FCO'
p4191
sg6
S'1'
sg7
S'2'
sg8
S'3'
sg9
S'false'
p4192
sg11
S'LGW'
p4193
ssS'987'
p4194
(dp4195
g4
S'YYZ'
p4196
sg6
S'2'
sg7
S'4'
sg8
S'5'
sg9
S'false'
p4197
sg11
S'BCN'
p4198
ssS'775'
p4199
(dp4200
g4
S'BOM'
p4201
sg6
S'0'
sg7
S'2'
sg8
S'5'
sg9
S'false'
p4202
sg11
S'SYD'
p4203
ssS'988'
p4204
(dp4205
g4
S'CTU'
p4206
sg6
S'2'
sg7
S'3'
sg8
S'4'
sg9
S'false'
p4207
sg11
S'LGW'
p4208
ssS'989'
p4209
(dp4210
g4
S'CTU'
p4211
sg6
S'1'
sg7
S'4'
sg8
S'4'
sg9
S'true'
p4212
sg11
S'BCN'
p4213
ssS'774'
p4214
(dp4215
g4
S'YYZ'
p4216
sg6
S'0'
sg7
S'2'
sg8
S'5'
sg9
S'false'
p4217
sg11
S'SYD'
p4218
ssS'982'
p4219
(dp4220
g4
S'FCO'
p4221
sg6
S'1'
sg7
S'2'
sg8
S'3'
sg9
S'false'
p4222
sg11
S'MCO'
p4223
ssS'983'
p4224
(dp4225
g4
S'YYZ'
p4226
sg6
S'2'
sg7
S'3'
sg8
S'4'
sg9
S'true'
p4227
sg11
S'SHA'
p4228
ssS'980'
p4229
(dp4230
g4
S'MUC'
p4231
sg6
S'1'
sg7
S'2'
sg8
S'6'
sg9
S'true'
p4232
sg11
S'BCN'
p4233
ssS'981'
p4234
(dp4235
g4
S'SEA'
p4236
sg6
S'1'
sg7
S'4'
sg8
S'6'
sg9
S'false'
p4237
sg11
S'GRU'
p4238
ssS'986'
p4239
(dp4240
g4
S'BOM'
p4241
sg6
S'2'
sg7
S'1'
sg8
S'4'
sg9
S'false'
p4242
sg11
S'GRU'
p4243
ssS'777'
p4244
(dp4245
g4
S'MUC'
p4246
sg6
S'1'
sg7
S'3'
sg8
S'3'
sg9
S'true'
p4247
sg11
S'GRU'
p4248
ssS'984'
p4249
(dp4250
g4
S'FCO'
p4251
sg6
S'0'
sg7
S'3'
sg8
S'6'
sg9
S'true'
p4252
sg11
S'GRU'
p4253
ssS'985'
p4254
(dp4255
g4
S'CTU'
p4256
sg6
S'1'
sg7
S'3'
sg8
S'6'
sg9
S'false'
p4257
sg11
S'MCO'
p4258
ssS'115'
p4259
(dp4260
g4
S'MUC'
p4261
sg6
S'0'
sg7
S'1'
sg8
S'6'
sg9
S'false'
p4262
sg11
S'BCN'
p4263
ssS'114'
p4264
(dp4265
g4
S'YYZ'
p4266
sg6
S'0'
sg7
S'3'
sg8
S'5'
sg9
S'false'
p4267
sg11
S'SZX'
p4268
ssS'117'
p4269
(dp4270
g4
S'YYZ'
p4271
sg6
S'1'
sg7
S'1'
sg8
S'3'
sg9
S'false'
p4272
sg11
S'GRU'
p4273
ssS'116'
p4274
(dp4275
g4
S'MUC'
p4276
sg6
S'1'
sg7
S'1'
sg8
S'3'
sg9
S'true'
p4277
sg11
S'SYD'
p4278
ssS'111'
p4279
(dp4280
g4
S'BOM'
p4281
sg6
S'1'
sg7
S'1'
sg8
S'4'
sg9
S'false'
p4282
sg11
S'GRU'
p4283
ssS'110'
p4284
(dp4285
g4
S'SEA'
p4286
sg6
S'2'
sg7
S'1'
sg8
S'4'
sg9
S'true'
p4287
sg11
S'SYD'
p4288
ssS'113'
p4289
(dp4290
g4
S'YYZ'
p4291
sg6
S'1'
sg7
S'4'
sg8
S'3'
sg9
S'true'
p4292
sg11
S'BCN'
p4293
ssS'112'
p4294
(dp4295
g4
S'BOM'
p4296
sg6
S'0'
sg7
S'1'
sg8
S'5'
sg9
S'true'
p4297
sg11
S'SYD'
p4298
ssS'771'
p4299
(dp4300
g4
S'FCO'
p4301
sg6
S'1'
sg7
S'1'
sg8
S'5'
sg9
S'true'
p4302
sg11
S'SYD'
p4303
ssS'119'
p4304
(dp4305
g4
S'CTU'
p4306
sg6
S'2'
sg7
S'1'
sg8
S'3'
sg9
S'true'
p4307
sg11
S'MCO'
p4308
ssS'118'
p4309
(dp4310
g4
S'SEA'
p4311
sg6
S'2'
sg7
S'1'
sg8
S'6'
sg9
S'false'
p4312
sg11
S'SHA'
p4313
ssS'770'
p4314
(dp4315
g4
S'BOM'
p4316
sg6
S'1'
sg7
S'2'
sg8
S'3'
sg9
S'true'
p4317
sg11
S'SYD'
p4318
ssS'773'
p4319
(dp4320
g4
S'FCO'
p4321
sg6
S'1'
sg7
S'4'
sg8
S'3'
sg9
S'false'
p4322
sg11
S'MCO'
p4323
ssS'772'
p4324
(dp4325
g4
S'BOM'
p4326
sg6
S'0'
sg7
S'1'
sg8
S'5'
sg9
S'false'
p4327
sg11
S'BCN'
p4328
ssS'953'
p4329
(dp4330
g4
S'FCO'
p4331
sg6
S'0'
sg7
S'4'
sg8
S'6'
sg9
S'false'
p4332
sg11
S'GRU'
p4333
ssS'429'
p4334
(dp4335
g4
S'SEA'
p4336
sg6
S'0'
sg7
S'3'
sg8
S'5'
sg9
S'true'
p4337
sg11
S'MCO'
p4338
ssS'428'
p4339
(dp4340
g4
S'BOM'
p4341
sg6
S'0'
sg7
S'2'
sg8
S'5'
sg9
S'false'
p4342
sg11
S'SHA'
p4343
ssS'919'
p4344
(dp4345
g4
S'BOM'
p4346
sg6
S'1'
sg7
S'1'
sg8
S'4'
sg9
S'true'
p4347
sg11
S'GRU'
p4348
ssS'918'
p4349
(dp4350
g4
S'SEA'
p4351
sg6
S'2'
sg7
S'1'
sg8
S'3'
sg9
S'false'
p4352
sg11
S'SZX'
p4353
ssS'421'
p4354
(dp4355
g4
S'MUC'
p4356
sg6
S'0'
sg7
S'2'
sg8
S'5'
sg9
S'true'
p4357
sg11
S'LGW'
p4358
ssS'420'
p4359
(dp4360
g4
S'FCO'
p4361
sg6
S'2'
sg7
S'3'
sg8
S'5'
sg9
S'false'
p4362
sg11
S'MCO'
p4363
ssS'423'
p4364
(dp4365
g4
S'FCO'
p4366
sg6
S'1'
sg7
S'2'
sg8
S'3'
sg9
S'false'
p4367
sg11
S'LGW'
p4368
ssS'422'
p4369
(dp4370
g4
S'MUC'
p4371
sg6
S'0'
sg7
S'1'
sg8
S'6'
sg9
S'true'
p4372
sg11
S'MCO'
p4373
ssS'425'
p4374
(dp4375
g4
S'CTU'
p4376
sg6
S'2'
sg7
S'2'
sg8
S'5'
sg9
S'false'
p4377
sg11
S'MCO'
p4378
ssS'424'
p4379
(dp4380
g4
S'BOM'
p4381
sg6
S'1'
sg7
S'2'
sg8
S'3'
sg9
S'true'
p4382
sg11
S'BCN'
p4383
ssS'427'
p4384
(dp4385
g4
S'FCO'
p4386
sg6
S'1'
sg7
S'1'
sg8
S'4'
sg9
S'false'
p4387
sg11
S'MCO'
p4388
ssS'426'
p4389
(dp4390
g4
S'FCO'
p4391
sg6
S'1'
sg7
S'4'
sg8
S'5'
sg9
S'false'
p4392
sg11
S'LGW'
p4393
ssS'308'
p4394
(dp4395
g4
S'CTU'
p4396
sg6
S'2'
sg7
S'2'
sg8
S'3'
sg9
S'true'
p4397
sg11
S'GRU'
p4398
ssS'309'
p4399
(dp4400
g4
S'YYZ'
p4401
sg6
S'0'
sg7
S'1'
sg8
S'6'
sg9
S'true'
p4402
sg11
S'MCO'
p4403
ssS'855'
p4404
(dp4405
g4
S'FCO'
p4406
sg6
S'1'
sg7
S'1'
sg8
S'5'
sg9
S'false'
p4407
sg11
S'SZX'
p4408
ssS'300'
p4409
(dp4410
g4
S'YYZ'
p4411
sg6
S'2'
sg7
S'4'
sg8
S'5'
sg9
S'false'
p4412
sg11
S'SZX'
p4413
ssS'301'
p4414
(dp4415
g4
S'FCO'
p4416
sg6
S'1'
sg7
S'2'
sg8
S'3'
sg9
S'true'
p4417
sg11
S'MCO'
p4418
ssS'302'
p4419
(dp4420
g4
S'CTU'
p4421
sg6
S'1'
sg7
S'4'
sg8
S'3'
sg9
S'false'
p4422
sg11
S'SYD'
p4423
ssS'303'
p4424
(dp4425
g4
S'SEA'
p4426
sg6
S'0'
sg7
S'1'
sg8
S'6'
sg9
S'true'
p4427
sg11
S'MCO'
p4428
ssS'304'
p4429
(dp4430
g4
S'FCO'
p4431
sg6
S'0'
sg7
S'3'
sg8
S'4'
sg9
S'true'
p4432
sg11
S'SZX'
p4433
ssS'305'
p4434
(dp4435
g4
S'CTU'
p4436
sg6
S'0'
sg7
S'2'
sg8
S'3'
sg9
S'true'
p4437
sg11
S'BCN'
p4438
ssS'306'
p4439
(dp4440
g4
S'BOM'
p4441
sg6
S'0'
sg7
S'4'
sg8
S'4'
sg9
S'false'
p4442
sg11
S'SZX'
p4443
ssS'307'
p4444
(dp4445
g4
S'YYZ'
p4446
sg6
S'2'
sg7
S'3'
sg8
S'4'
sg9
S'true'
p4447
sg11
S'MCO'
p4448
ssS'895'
p4449
(dp4450
g4
S'YYZ'
p4451
sg6
S'2'
sg7
S'3'
sg8
S'4'
sg9
S'false'
p4452
sg11
S'BCN'
p4453
ssS'825'
p4454
(dp4455
g4
S'FCO'
p4456
sg6
S'1'
sg7
S'2'
sg8
S'4'
sg9
S'false'
p4457
sg11
S'SZX'
p4458
ssS'824'
p4459
(dp4460
g4
S'FCO'
p4461
sg6
S'1'
sg7
S'2'
sg8
S'6'
sg9
S'true'
p4462
sg11
S'SZX'
p4463
ssS'827'
p4464
(dp4465
g4
S'CTU'
p4466
sg6
S'1'
sg7
S'1'
sg8
S'5'
sg9
S'false'
p4467
sg11
S'SYD'
p4468
ssS'847'
p4469
(dp4470
g4
S'YYZ'
p4471
sg6
S'2'
sg7
S'2'
sg8
S'3'
sg9
S'true'
p4472
sg11
S'SYD'
p4473
ssS'846'
p4474
(dp4475
g4
S'BOM'
p4476
sg6
S'2'
sg7
S'3'
sg8
S'4'
sg9
S'false'
p4477
sg11
S'MCO'
p4478
ssS'845'
p4479
(dp4480
g4
S'BOM'
p4481
sg6
S'1'
sg7
S'4'
sg8
S'4'
sg9
S'true'
p4482
sg11
S'SHA'
p4483
ssS'826'
p4484
(dp4485
g4
S'BOM'
p4486
sg6
S'1'
sg7
S'1'
sg8
S'4'
sg9
S'true'
p4487
sg11
S'BCN'
p4488
ssS'843'
p4489
(dp4490
g4
S'YYZ'
p4491
sg6
S'0'
sg7
S'1'
sg8
S'5'
sg9
S'false'
p4492
sg11
S'LGW'
p4493
ssS'842'
p4494
(dp4495
g4
S'FCO'
p4496
sg6
S'2'
sg7
S'1'
sg8
S'3'
sg9
S'false'
p4497
sg11
S'GRU'
p4498
ssS'841'
p4499
(dp4500
g4
S'YYZ'
p4501
sg6
S'1'
sg7
S'4'
sg8
S'6'
sg9
S'true'
p4502
sg11
S'MCO'
p4503
ssS'840'
p4504
(dp4505
g4
S'MUC'
p4506
sg6
S'2'
sg7
S'4'
sg8
S'5'
sg9
S'false'
p4507
sg11
S'BCN'
p4508
ssS'821'
p4509
(dp4510
g4
S'MUC'
p4511
sg6
S'2'
sg7
S'2'
sg8
S'5'
sg9
S'false'
p4512
sg11
S'BCN'
p4513
ssS'853'
p4514
(dp4515
g4
S'CTU'
p4516
sg6
S'2'
sg7
S'3'
sg8
S'4'
sg9
S'false'
p4517
sg11
S'SZX'
p4518
ssS'849'
p4519
(dp4520
g4
S'BOM'
p4521
sg6
S'1'
sg7
S'4'
sg8
S'6'
sg9
S'false'
p4522
sg11
S'SZX'
p4523
ssS'820'
p4524
(dp4525
g4
S'CTU'
p4526
sg6
S'1'
sg7
S'3'
sg8
S'5'
sg9
S'false'
p4527
sg11
S'SHA'
p4528
ssS'823'
p4529
(dp4530
g4
S'SEA'
p4531
sg6
S'0'
sg7
S'3'
sg8
S'6'
sg9
S'false'
p4532
sg11
S'SZX'
p4533
ssS'822'
p4534
(dp4535
g4
S'FCO'
p4536
sg6
S'2'
sg7
S'1'
sg8
S'3'
sg9
S'true'
p4537
sg11
S'LGW'
p4538
ssS'954'
p4539
(dp4540
g4
S'BOM'
p4541
sg6
S'2'
sg7
S'2'
sg8
S'4'
sg9
S'false'
p4542
sg11
S'SYD'
p4543
ssS'568'
p4544
(dp4545
g4
S'SEA'
p4546
sg6
S'1'
sg7
S'2'
sg8
S'5'
sg9
S'true'
p4547
sg11
S'GRU'
p4548
ssS'569'
p4549
(dp4550
g4
S'FCO'
p4551
sg6
S'0'
sg7
S'2'
sg8
S'5'
sg9
S'false'
p4552
sg11
S'SZX'
p4553
ssS'751'
p4554
(dp4555
g4
S'CTU'
p4556
sg6
S'2'
sg7
S'4'
sg8
S'5'
sg9
S'false'
p4557
sg11
S'GRU'
p4558
ssS'750'
p4559
(dp4560
g4
S'FCO'
p4561
sg6
S'1'
sg7
S'3'
sg8
S'4'
sg9
S'true'
p4562
sg11
S'LGW'
p4563
ssS'757'
p4564
(dp4565
g4
S'FCO'
p4566
sg6
S'1'
sg7
S'2'
sg8
S'3'
sg9
S'false'
p4567
sg11
S'SYD'
p4568
ssS'737'
p4569
(dp4570
g4
S'CTU'
p4571
sg6
S'2'
sg7
S'3'
sg8
S'6'
sg9
S'true'
p4572
sg11
S'SZX'
p4573
ssS'755'
p4574
(dp4575
g4
S'CTU'
p4576
sg6
S'2'
sg7
S'3'
sg8
S'6'
sg9
S'true'
p4577
sg11
S'SHA'
p4578
ssS'754'
p4579
(dp4580
g4
S'YYZ'
p4581
sg6
S'2'
sg7
S'2'
sg8
S'6'
sg9
S'false'
p4582
sg11
S'SYD'
p4583
ssS'560'
p4584
(dp4585
g4
S'SEA'
p4586
sg6
S'0'
sg7
S'4'
sg8
S'5'
sg9
S'false'
p4587
sg11
S'SYD'
p4588
ssS'561'
p4589
(dp4590
g4
S'MUC'
p4591
sg6
S'1'
sg7
S'4'
sg8
S'4'
sg9
S'false'
p4592
sg11
S'SYD'
p4593
ssS'562'
p4594
(dp4595
g4
S'BOM'
p4596
sg6
S'1'
sg7
S'3'
sg8
S'4'
sg9
S'true'
p4597
sg11
S'MCO'
p4598
ssS'563'
p4599
(dp4600
g4
S'MUC'
p4601
sg6
S'0'
sg7
S'4'
sg8
S'5'
sg9
S'true'
p4602
sg11
S'SYD'
p4603
ssS'564'
p4604
(dp4605
g4
S'SEA'
p4606
sg6
S'0'
sg7
S'3'
sg8
S'6'
sg9
S'true'
p4607
sg11
S'LGW'
p4608
ssS'565'
p4609
(dp4610
g4
S'MUC'
p4611
sg6
S'0'
sg7
S'2'
sg8
S'3'
sg9
S'true'
p4612
sg11
S'MCO'
p4613
ssS'566'
p4614
(dp4615
g4
S'CTU'
p4616
sg6
S'1'
sg7
S'2'
sg8
S'3'
sg9
S'false'
p4617
sg11
S'SZX'
p4618
ssS'567'
p4619
(dp4620
g4
S'MUC'
p4621
sg6
S'0'
sg7
S'1'
sg8
S'4'
sg9
S'false'
p4622
sg11
S'BCN'
p4623
ssS'739'
p4624
(dp4625
g4
S'CTU'
p4626
sg6
S'1'
sg7
S'1'
sg8
S'4'
sg9
S'true'
p4627
sg11
S'SZX'
p4628
ssS'229'
p4629
(dp4630
g4
S'MUC'
p4631
sg6
S'0'
sg7
S'4'
sg8
S'4'
sg9
S'false'
p4632
sg11
S'BCN'
p4633
ssS'228'
p4634
(dp4635
g4
S'MUC'
p4636
sg6
S'0'
sg7
S'4'
sg8
S'6'
sg9
S'false'
p4637
sg11
S'MCO'
p4638
ssS'227'
p4639
(dp4640
g4
S'YYZ'
p4641
sg6
S'0'
sg7
S'2'
sg8
S'4'
sg9
S'true'
p4642
sg11
S'SHA'
p4643
ssS'226'
p4644
(dp4645
g4
S'SEA'
p4646
sg6
S'1'
sg7
S'2'
sg8
S'5'
sg9
S'true'
p4647
sg11
S'BCN'
p4648
ssS'225'
p4649
(dp4650
g4
S'FCO'
p4651
sg6
S'2'
sg7
S'3'
sg8
S'5'
sg9
S'true'
p4652
sg11
S'SZX'
p4653
ssS'224'
p4654
(dp4655
g4
S'FCO'
p4656
sg6
S'1'
sg7
S'2'
sg8
S'5'
sg9
S'false'
p4657
sg11
S'SZX'
p4658
ssS'223'
p4659
(dp4660
g4
S'YYZ'
p4661
sg6
S'2'
sg7
S'4'
sg8
S'4'
sg9
S'true'
p4662
sg11
S'LGW'
p4663
ssS'222'
p4664
(dp4665
g4
S'SEA'
p4666
sg6
S'0'
sg7
S'1'
sg8
S'5'
sg9
S'true'
p4667
sg11
S'BCN'
p4668
ssS'221'
p4669
(dp4670
g4
S'YYZ'
p4671
sg6
S'2'
sg7
S'4'
sg8
S'3'
sg9
S'false'
p4672
sg11
S'GRU'
p4673
ssS'220'
p4674
(dp4675
g4
S'CTU'
p4676
sg6
S'2'
sg7
S'3'
sg8
S'6'
sg9
S'false'
p4677
sg11
S'BCN'
p4678
ssS'88'
p4679
(dp4680
g4
S'FCO'
p4681
sg6
S'2'
sg7
S'2'
sg8
S'6'
sg9
S'true'
p4682
sg11
S'SZX'
p4683
ssS'726'
p4684
(dp4685
g4
S'SEA'
p4686
sg6
S'0'
sg7
S'3'
sg8
S'4'
sg9
S'false'
p4687
sg11
S'BCN'
p4688
ssS'727'
p4689
(dp4690
g4
S'FCO'
p4691
sg6
S'2'
sg7
S'4'
sg8
S'6'
sg9
S'false'
p4692
sg11
S'SYD'
p4693
ssS'724'
p4694
(dp4695
g4
S'SEA'
p4696
sg6
S'2'
sg7
S'4'
sg8
S'6'
sg9
S'false'
p4697
sg11
S'SHA'
p4698
ssS'725'
p4699
(dp4700
g4
S'SEA'
p4701
sg6
S'0'
sg7
S'4'
sg8
S'4'
sg9
S'false'
p4702
sg11
S'GRU'
p4703
ssS'722'
p4704
(dp4705
g4
S'FCO'
p4706
sg6
S'1'
sg7
S'4'
sg8
S'5'
sg9
S'true'
p4707
sg11
S'SHA'
p4708
ssS'723'
p4709
(dp4710
g4
S'MUC'
p4711
sg6
S'1'
sg7
S'2'
sg8
S'6'
sg9
S'false'
p4712
sg11
S'LGW'
p4713
ssS'720'
p4714
(dp4715
g4
S'MUC'
p4716
sg6
S'2'
sg7
S'4'
sg8
S'6'
sg9
S'false'
p4717
sg11
S'SYD'
p4718
ssS'721'
p4719
(dp4720
g4
S'SEA'
p4721
sg6
S'0'
sg7
S'4'
sg8
S'4'
sg9
S'true'
p4722
sg11
S'SZX'
p4723
ssS'728'
p4724
(dp4725
g4
S'BOM'
p4726
sg6
S'0'
sg7
S'1'
sg8
S'6'
sg9
S'false'
p4727
sg11
S'MCO'
p4728
ssS'729'
p4729
(dp4730
g4
S'CTU'
p4731
sg6
S'1'
sg7
S'4'
sg8
S'5'
sg9
S'true'
p4732
sg11
S'BCN'
p4733
ssS'151'
p4734
(dp4735
g4
S'MUC'
p4736
sg6
S'1'
sg7
S'3'
sg8
S'3'
sg9
S'false'
p4737
sg11
S'LGW'
p4738
ssS'150'
p4739
(dp4740
g4
S'MUC'
p4741
sg6
S'1'
sg7
S'2'
sg8
S'6'
sg9
S'false'
p4742
sg11
S'MCO'
p4743
ssS'153'
p4744
(dp4745
g4
S'BOM'
p4746
sg6
S'2'
sg7
S'4'
sg8
S'5'
sg9
S'true'
p4747
sg11
S'LGW'
p4748
ssS'152'
p4749
(dp4750
g4
S'MUC'
p4751
sg6
S'0'
sg7
S'3'
sg8
S'5'
sg9
S'false'
p4752
sg11
S'GRU'
p4753
ssS'155'
p4754
(dp4755
g4
S'BOM'
p4756
sg6
S'1'
sg7
S'1'
sg8
S'5'
sg9
S'false'
p4757
sg11
S'SHA'
p4758
ssS'154'
p4759
(dp4760
g4
S'CTU'
p4761
sg6
S'0'
sg7
S'1'
sg8
S'5'
sg9
S'false'
p4762
sg11
S'LGW'
p4763
ssS'157'
p4764
(dp4765
g4
S'FCO'
p4766
sg6
S'0'
sg7
S'1'
sg8
S'6'
sg9
S'true'
p4767
sg11
S'MCO'
p4768
ssS'156'
p4769
(dp4770
g4
S'CTU'
p4771
sg6
S'1'
sg7
S'4'
sg8
S'6'
sg9
S'false'
p4772
sg11
S'MCO'
p4773
ssS'159'
p4774
(dp4775
g4
S'MUC'
p4776
sg6
S'1'
sg7
S'4'
sg8
S'3'
sg9
S'true'
p4777
sg11
S'GRU'
p4778
ssS'158'
p4779
(dp4780
g4
S'CTU'
p4781
sg6
S'0'
sg7
S'4'
sg8
S'3'
sg9
S'true'
p4782
sg11
S'SZX'
p4783
ssS'609'
p4784
(dp4785
g4
S'YYZ'
p4786
sg6
S'1'
sg7
S'3'
sg8
S'6'
sg9
S'false'
p4787
sg11
S'MCO'
p4788
ssS'608'
p4789
(dp4790
g4
S'MUC'
p4791
sg6
S'1'
sg7
S'1'
sg8
S'6'
sg9
S'false'
p4792
sg11
S'SHA'
p4793
ssS'976'
p4794
(dp4795
g4
S'CTU'
p4796
sg6
S'2'
sg7
S'2'
sg8
S'4'
sg9
S'true'
p4797
sg11
S'SZX'
p4798
ssS'634'
p4799
(dp4800
g4
S'MUC'
p4801
sg6
S'2'
sg7
S'1'
sg8
S'3'
sg9
S'true'
p4802
sg11
S'SZX'
p4803
ssS'80'
p4804
(dp4805
g4
S'FCO'
p4806
sg6
S'2'
sg7
S'3'
sg8
S'5'
sg9
S'true'
p4807
sg11
S'SHA'
p4808
ssS'635'
p4809
(dp4810
g4
S'SEA'
p4811
sg6
S'0'
sg7
S'1'
sg8
S'4'
sg9
S'true'
p4812
sg11
S'GRU'
p4813
ssS'749'
p4814
(dp4815
g4
S'YYZ'
p4816
sg6
S'0'
sg7
S'1'
sg8
S'3'
sg9
S'true'
p4817
sg11
S'MCO'
p4818
ssS'958'
p4819
(dp4820
g4
S'BOM'
p4821
sg6
S'1'
sg7
S'3'
sg8
S'4'
sg9
S'false'
p4822
sg11
S'SYD'
p4823
ssS'81'
p4824
(dp4825
g4
S'SEA'
p4826
sg6
S'2'
sg7
S'3'
sg8
S'5'
sg9
S'false'
p4827
sg11
S'SYD'
p4828
ssS'48'
p4829
(dp4830
g4
S'CTU'
p4831
sg6
S'1'
sg7
S'4'
sg8
S'3'
sg9
S'true'
p4832
sg11
S'SHA'
p4833
ssS'49'
p4834
(dp4835
g4
S'YYZ'
p4836
sg6
S'2'
sg7
S'4'
sg8
S'5'
sg9
S'true'
p4837
sg11
S'LGW'
p4838
ssS'46'
p4839
(dp4840
g4
S'MUC'
p4841
sg6
S'1'
sg7
S'2'
sg8
S'4'
sg9
S'false'
p4842
sg11
S'BCN'
p4843
ssS'47'
p4844
(dp4845
g4
S'CTU'
p4846
sg6
S'0'
sg7
S'2'
sg8
S'4'
sg9
S'true'
p4847
sg11
S'SZX'
p4848
ssS'44'
p4849
(dp4850
g4
S'CTU'
p4851
sg6
S'2'
sg7
S'4'
sg8
S'6'
sg9
S'true'
p4852
sg11
S'SYD'
p4853
ssS'45'
p4854
(dp4855
g4
S'SEA'
p4856
sg6
S'1'
sg7
S'2'
sg8
S'6'
sg9
S'false'
p4857
sg11
S'MCO'
p4858
ssS'42'
p4859
(dp4860
g4
S'FCO'
p4861
sg6
S'1'
sg7
S'2'
sg8
S'3'
sg9
S'true'
p4862
sg11
S'MCO'
p4863
ssS'43'
p4864
(dp4865
g4
S'FCO'
p4866
sg6
S'1'
sg7
S'4'
sg8
S'3'
sg9
S'true'
p4867
sg11
S'SZX'
p4868
ssS'40'
p4869
(dp4870
g4
S'MUC'
p4871
sg6
S'2'
sg7
S'1'
sg8
S'3'
sg9
S'true'
p4872
sg11
S'SZX'
p4873
ssS'41'
p4874
(dp4875
g4
S'MUC'
p4876
sg6
S'0'
sg7
S'2'
sg8
S'4'
sg9
S'false'
p4877
sg11
S'SYD'
p4878
ssS'638'
p4879
(dp4880
g4
S'BOM'
p4881
sg6
S'0'
sg7
S'2'
sg8
S'4'
sg9
S'false'
p4882
sg11
S'SHA'
p4883
ssS'5'
(dp4884
g4
S'BOM'
p4885
sg6
S'0'
sg7
S'2'
sg8
S'5'
sg9
S'false'
p4886
sg11
S'SYD'
p4887
ssS'639'
p4888
(dp4889
g4
S'FCO'
p4890
sg6
S'0'
sg7
S'2'
sg8
S'6'
sg9
S'true'
p4891
sg11
S'SYD'
p4892
ssS'489'
p4893
(dp4894
g4
S'BOM'
p4895
sg6
S'0'
sg7
S'3'
sg8
S'5'
sg9
S'false'
p4896
sg11
S'MCO'
p4897
ssS'488'
p4898
(dp4899
g4
S'YYZ'
p4900
sg6
S'0'
sg7
S'3'
sg8
S'5'
sg9
S'false'
p4901
sg11
S'SHA'
p4902
ssS'487'
p4903
(dp4904
g4
S'FCO'
p4905
sg6
S'0'
sg7
S'4'
sg8
S'6'
sg9
S'true'
p4906
sg11
S'SZX'
p4907
ssS'486'
p4908
(dp4909
g4
S'FCO'
p4910
sg6
S'1'
sg7
S'2'
sg8
S'6'
sg9
S'false'
p4911
sg11
S'LGW'
p4912
ssS'485'
p4913
(dp4914
g4
S'FCO'
p4915
sg6
S'2'
sg7
S'3'
sg8
S'6'
sg9
S'false'
p4916
sg11
S'SZX'
p4917
ssS'484'
p4918
(dp4919
g4
S'MUC'
p4920
sg6
S'2'
sg7
S'2'
sg8
S'3'
sg9
S'true'
p4921
sg11
S'LGW'
p4922
ssS'483'
p4923
(dp4924
g4
S'SEA'
p4925
sg6
S'2'
sg7
S'4'
sg8
S'5'
sg9
S'true'
p4926
sg11
S'MCO'
p4927
ssS'482'
p4928
(dp4929
g4
S'BOM'
p4930
sg6
S'1'
sg7
S'4'
sg8
S'3'
sg9
S'false'
p4931
sg11
S'SYD'
p4932
ssS'481'
p4933
(dp4934
g4
S'CTU'
p4935
sg6
S'0'
sg7
S'4'
sg8
S'3'
sg9
S'true'
p4936
sg11
S'LGW'
p4937
ssS'480'
p4938
(dp4939
g4
S'FCO'
p4940
sg6
S'0'
sg7
S'3'
sg8
S'6'
sg9
S'false'
p4941
sg11
S'GRU'
p4942
ssS'955'
p4943
(dp4944
g4
S'MUC'
p4945
sg6
S'0'
sg7
S'4'
sg8
S'3'
sg9
S'true'
p4946
sg11
S'SZX'
p4947
ssS'472'
p4948
(dp4949
g4
S'MUC'
p4950
sg6
S'2'
sg7
S'1'
sg8
S'3'
sg9
S'false'
p4951
sg11
S'BCN'
p4952
ssS'473'
p4953
(dp4954
g4
S'MUC'
p4955
sg6
S'1'
sg7
S'3'
sg8
S'4'
sg9
S'true'
p4956
sg11
S'GRU'
p4957
ssS'470'
p4958
(dp4959
g4
S'SEA'
p4960
sg6
S'2'
sg7
S'3'
sg8
S'4'
sg9
S'true'
p4961
sg11
S'LGW'
p4962
ssS'471'
p4963
(dp4964
g4
S'CTU'
p4965
sg6
S'0'
sg7
S'1'
sg8
S'3'
sg9
S'true'
p4966
sg11
S'SHA'
p4967
ssS'476'
p4968
(dp4969
g4
S'MUC'
p4970
sg6
S'1'
sg7
S'4'
sg8
S'6'
sg9
S'true'
p4971
sg11
S'SHA'
p4972
ssS'477'
p4973
(dp4974
g4
S'CTU'
p4975
sg6
S'2'
sg7
S'1'
sg8
S'6'
sg9
S'true'
p4976
sg11
S'GRU'
p4977
ssS'474'
p4978
(dp4979
g4
S'BOM'
p4980
sg6
S'0'
sg7
S'1'
sg8
S'3'
sg9
S'false'
p4981
sg11
S'SHA'
p4982
ssS'475'
p4983
(dp4984
g4
S'CTU'
p4985
sg6
S'2'
sg7
S'4'
sg8
S'3'
sg9
S'false'
p4986
sg11
S'LGW'
p4987
ssS'478'
p4988
(dp4989
g4
S'SEA'
p4990
sg6
S'1'
sg7
S'1'
sg8
S'3'
sg9
S'true'
p4991
sg11
S'MCO'
p4992
ssS'479'
p4993
(dp4994
g4
S'YYZ'
p4995
sg6
S'1'
sg7
S'1'
sg8
S'6'
sg9
S'false'
p4996
sg11
S'SHA'
p4997
ss.