(dp1
S'344'
p2
(dp3
S'origin1'
p4
S'BOM'
p5
sS'flightDate1'
p6
I1
sS'travelers'
p7
I1
sS'flightDate2'
p8
I5
sS'flexible'
p9
I00
sS'destination1'
p10
S'MCO'
p11
ssS'0'
(dp12
g4
S'MUC'
p13
sg6
I1
sg7
I1
sg8
I5
sg9
I01
sg10
S'BCN'
p14
ssS'346'
p15
(dp16
g4
S'FCO'
p17
sg6
I0
sg7
I3
sg8
I3
sg9
I00
sg10
S'SHA'
p18
ssS'347'
p19
(dp20
g4
S'MUC'
p21
sg6
I0
sg7
I3
sg8
I3
sg9
I01
sg10
S'BCN'
p22
ssS'340'
p23
(dp24
g4
S'CTU'
p25
sg6
I1
sg7
I3
sg8
I3
sg9
I01
sg10
S'MCO'
p26
ssS'341'
p27
(dp28
g4
S'CTU'
p29
sg6
I2
sg7
I2
sg8
I4
sg9
I01
sg10
S'SHA'
p30
ssS'342'
p31
(dp32
g4
S'BOM'
p33
sg6
I1
sg7
I4
sg8
I6
sg9
I01
sg10
S'MCO'
p34
ssS'343'
p35
(dp36
g4
S'BOM'
p37
sg6
I1
sg7
I4
sg8
I6
sg9
I00
sg10
S'SYD'
p38
ssS'810'
p39
(dp40
g4
S'CTU'
p41
sg6
I2
sg7
I4
sg8
I3
sg9
I00
sg10
S'SZX'
p42
ssS'811'
p43
(dp44
g4
S'BOM'
p45
sg6
I2
sg7
I1
sg8
I4
sg9
I01
sg10
S'BCN'
p46
ssS'812'
p47
(dp48
g4
S'CTU'
p49
sg6
I1
sg7
I4
sg8
I3
sg9
I01
sg10
S'GRU'
p50
ssS'813'
p51
(dp52
g4
S'CTU'
p53
sg6
I0
sg7
I4
sg8
I4
sg9
I00
sg10
S'MCO'
p54
ssS'348'
p55
(dp56
g4
S'SEA'
p57
sg6
I0
sg7
I3
sg8
I5
sg9
I01
sg10
S'BCN'
p58
ssS'349'
p59
(dp60
g4
S'BOM'
p61
sg6
I0
sg7
I2
sg8
I4
sg9
I00
sg10
S'SHA'
p62
ssS'816'
p63
(dp64
g4
S'YYZ'
p65
sg6
I1
sg7
I2
sg8
I6
sg9
I00
sg10
S'SHA'
p66
ssS'817'
p67
(dp68
g4
S'CTU'
p69
sg6
I0
sg7
I4
sg8
I5
sg9
I01
sg10
S'LGW'
p70
ssS'595'
p71
(dp72
g4
S'SEA'
p73
sg6
I1
sg7
I4
sg8
I5
sg9
I00
sg10
S'SYD'
p74
ssS'719'
p75
(dp76
g4
S'SEA'
p77
sg6
I1
sg7
I1
sg8
I3
sg9
I00
sg10
S'LGW'
p78
ssS'718'
p79
(dp80
g4
S'MUC'
p81
sg6
I0
sg7
I3
sg8
I6
sg9
I00
sg10
S'SYD'
p82
ssS'717'
p83
(dp84
g4
S'MUC'
p85
sg6
I2
sg7
I1
sg8
I4
sg9
I01
sg10
S'BCN'
p86
ssS'716'
p87
(dp88
g4
S'BOM'
p89
sg6
I1
sg7
I4
sg8
I3
sg9
I00
sg10
S'SYD'
p90
ssS'715'
p91
(dp92
g4
S'CTU'
p93
sg6
I2
sg7
I3
sg8
I6
sg9
I00
sg10
S'MCO'
p94
ssS'714'
p95
(dp96
g4
S'SEA'
p97
sg6
I1
sg7
I1
sg8
I4
sg9
I01
sg10
S'SYD'
p98
ssS'713'
p99
(dp100
g4
S'BOM'
p101
sg6
I0
sg7
I4
sg8
I3
sg9
I01
sg10
S'BCN'
p102
ssS'712'
p103
(dp104
g4
S'YYZ'
p105
sg6
I0
sg7
I2
sg8
I3
sg9
I00
sg10
S'LGW'
p106
ssS'711'
p107
(dp108
g4
S'BOM'
p109
sg6
I1
sg7
I2
sg8
I6
sg9
I01
sg10
S'SZX'
p110
ssS'710'
p111
(dp112
g4
S'BOM'
p113
sg6
I2
sg7
I3
sg8
I3
sg9
I00
sg10
S'SYD'
p114
ssS'915'
p115
(dp116
g4
S'CTU'
p117
sg6
I1
sg7
I2
sg8
I6
sg9
I00
sg10
S'SHA'
p118
ssS'914'
p119
(dp120
g4
S'SEA'
p121
sg6
I1
sg7
I2
sg8
I4
sg9
I01
sg10
S'MCO'
p122
ssS'606'
p123
(dp124
g4
S'YYZ'
p125
sg6
I2
sg7
I4
sg8
I3
sg9
I01
sg10
S'SHA'
p126
ssS'917'
p127
(dp128
g4
S'BOM'
p129
sg6
I2
sg7
I1
sg8
I5
sg9
I00
sg10
S'MCO'
p130
ssS'594'
p131
(dp132
g4
S'MUC'
p133
sg6
I2
sg7
I1
sg8
I4
sg9
I00
sg10
S'LGW'
p134
ssS'736'
p135
(dp136
g4
S'SEA'
p137
sg6
I1
sg7
I3
sg8
I4
sg9
I00
sg10
S'LGW'
p138
ssS'916'
p139
(dp140
g4
S'MUC'
p141
sg6
I0
sg7
I4
sg8
I6
sg9
I01
sg10
S'LGW'
p142
ssS'911'
p143
(dp144
g4
S'CTU'
p145
sg6
I0
sg7
I4
sg8
I3
sg9
I01
sg10
S'SZX'
p146
ssS'619'
p147
(dp148
g4
S'FCO'
p149
sg6
I1
sg7
I4
sg8
I5
sg9
I01
sg10
S'LGW'
p150
ssS'910'
p151
(dp152
g4
S'SEA'
p153
sg6
I1
sg7
I1
sg8
I5
sg9
I00
sg10
S'SHA'
p154
ssS'913'
p155
(dp156
g4
S'CTU'
p157
sg6
I2
sg7
I2
sg8
I4
sg9
I00
sg10
S'GRU'
p158
ssS'298'
p159
(dp160
g4
S'BOM'
p161
sg6
I0
sg7
I1
sg8
I3
sg9
I00
sg10
S'SHA'
p162
ssS'299'
p163
(dp164
g4
S'MUC'
p165
sg6
I1
sg7
I3
sg8
I6
sg9
I01
sg10
S'GRU'
p166
ssS'296'
p167
(dp168
g4
S'MUC'
p169
sg6
I0
sg7
I3
sg8
I4
sg9
I01
sg10
S'BCN'
p170
ssS'297'
p171
(dp172
g4
S'FCO'
p173
sg6
I1
sg7
I3
sg8
I6
sg9
I00
sg10
S'LGW'
p174
ssS'294'
p175
(dp176
g4
S'FCO'
p177
sg6
I1
sg7
I1
sg8
I6
sg9
I00
sg10
S'SHA'
p178
ssS'295'
p179
(dp180
g4
S'SEA'
p181
sg6
I0
sg7
I3
sg8
I5
sg9
I01
sg10
S'BCN'
p182
ssS'292'
p183
(dp184
g4
S'BOM'
p185
sg6
I0
sg7
I4
sg8
I5
sg9
I01
sg10
S'LGW'
p186
ssS'293'
p187
(dp188
g4
S'MUC'
p189
sg6
I2
sg7
I2
sg8
I5
sg9
I00
sg10
S'MCO'
p190
ssS'290'
p191
(dp192
g4
S'MUC'
p193
sg6
I1
sg7
I3
sg8
I3
sg9
I01
sg10
S'GRU'
p194
ssS'291'
p195
(dp196
g4
S'CTU'
p197
sg6
I0
sg7
I3
sg8
I6
sg9
I01
sg10
S'LGW'
p198
ssS'591'
p199
(dp200
g4
S'MUC'
p201
sg6
I1
sg7
I2
sg8
I6
sg9
I01
sg10
S'LGW'
p202
ssS'590'
p203
(dp204
g4
S'CTU'
p205
sg6
I2
sg7
I3
sg8
I5
sg9
I00
sg10
S'LGW'
p206
ssS'593'
p207
(dp208
g4
S'BOM'
p209
sg6
I1
sg7
I3
sg8
I4
sg9
I01
sg10
S'GRU'
p210
ssS'592'
p211
(dp212
g4
S'FCO'
p213
sg6
I2
sg7
I4
sg8
I3
sg9
I00
sg10
S'SHA'
p214
ssS'199'
p215
(dp216
g4
S'YYZ'
p217
sg6
I1
sg7
I3
sg8
I3
sg9
I00
sg10
S'SZX'
p218
ssS'198'
p219
(dp220
g4
S'SEA'
p221
sg6
I2
sg7
I4
sg8
I3
sg9
I00
sg10
S'SZX'
p222
ssS'597'
p223
(dp224
g4
S'SEA'
p225
sg6
I0
sg7
I2
sg8
I6
sg9
I00
sg10
S'BCN'
p226
ssS'596'
p227
(dp228
g4
S'YYZ'
p229
sg6
I2
sg7
I2
sg8
I3
sg9
I00
sg10
S'SZX'
p230
ssS'195'
p231
(dp232
g4
S'YYZ'
p233
sg6
I0
sg7
I2
sg8
I4
sg9
I01
sg10
S'SYD'
p234
ssS'194'
p235
(dp236
g4
S'YYZ'
p237
sg6
I2
sg7
I3
sg8
I5
sg9
I01
sg10
S'SZX'
p238
ssS'197'
p239
(dp240
g4
S'FCO'
p241
sg6
I1
sg7
I3
sg8
I5
sg9
I00
sg10
S'BCN'
p242
ssS'196'
p243
(dp244
g4
S'BOM'
p245
sg6
I1
sg7
I3
sg8
I6
sg9
I01
sg10
S'MCO'
p246
ssS'191'
p247
(dp248
g4
S'BOM'
p249
sg6
I0
sg7
I4
sg8
I6
sg9
I00
sg10
S'SHA'
p250
ssS'190'
p251
(dp252
g4
S'BOM'
p253
sg6
I2
sg7
I2
sg8
I4
sg9
I00
sg10
S'BCN'
p254
ssS'193'
p255
(dp256
g4
S'BOM'
p257
sg6
I0
sg7
I4
sg8
I6
sg9
I01
sg10
S'GRU'
p258
ssS'192'
p259
(dp260
g4
S'CTU'
p261
sg6
I2
sg7
I4
sg8
I5
sg9
I00
sg10
S'BCN'
p262
ssS'270'
p263
(dp264
g4
S'YYZ'
p265
sg6
I1
sg7
I4
sg8
I4
sg9
I00
sg10
S'MCO'
p266
ssS'271'
p267
(dp268
g4
S'BOM'
p269
sg6
I1
sg7
I3
sg8
I5
sg9
I01
sg10
S'SHA'
p270
ssS'272'
p271
(dp272
g4
S'SEA'
p273
sg6
I1
sg7
I2
sg8
I4
sg9
I00
sg10
S'MCO'
p274
ssS'273'
p275
(dp276
g4
S'YYZ'
p277
sg6
I2
sg7
I4
sg8
I3
sg9
I00
sg10
S'SZX'
p278
ssS'274'
p279
(dp280
g4
S'BOM'
p281
sg6
I1
sg7
I1
sg8
I6
sg9
I01
sg10
S'SHA'
p282
ssS'275'
p283
(dp284
g4
S'CTU'
p285
sg6
I0
sg7
I1
sg8
I3
sg9
I00
sg10
S'BCN'
p286
ssS'276'
p287
(dp288
g4
S'BOM'
p289
sg6
I2
sg7
I1
sg8
I3
sg9
I01
sg10
S'SZX'
p290
ssS'277'
p291
(dp292
g4
S'SEA'
p293
sg6
I1
sg7
I3
sg8
I5
sg9
I00
sg10
S'GRU'
p294
ssS'278'
p295
(dp296
g4
S'YYZ'
p297
sg6
I1
sg7
I2
sg8
I6
sg9
I01
sg10
S'BCN'
p298
ssS'279'
p299
(dp300
g4
S'BOM'
p301
sg6
I1
sg7
I3
sg8
I4
sg9
I01
sg10
S'LGW'
p302
ssS'738'
p303
(dp304
g4
S'BOM'
p305
sg6
I1
sg7
I1
sg8
I6
sg9
I00
sg10
S'GRU'
p306
ssS'524'
p307
(dp308
g4
S'FCO'
p309
sg6
I1
sg7
I3
sg8
I4
sg9
I01
sg10
S'GRU'
p310
ssS'525'
p311
(dp312
g4
S'YYZ'
p313
sg6
I1
sg7
I3
sg8
I6
sg9
I01
sg10
S'LGW'
p314
ssS'526'
p315
(dp316
g4
S'MUC'
p317
sg6
I0
sg7
I1
sg8
I5
sg9
I01
sg10
S'MCO'
p318
ssS'527'
p319
(dp320
g4
S'SEA'
p321
sg6
I0
sg7
I1
sg8
I6
sg9
I01
sg10
S'LGW'
p322
ssS'520'
p323
(dp324
g4
S'CTU'
p325
sg6
I1
sg7
I1
sg8
I3
sg9
I00
sg10
S'BCN'
p326
ssS'521'
p327
(dp328
g4
S'SEA'
p329
sg6
I1
sg7
I2
sg8
I4
sg9
I00
sg10
S'SYD'
p330
ssS'522'
p331
(dp332
g4
S'BOM'
p333
sg6
I1
sg7
I1
sg8
I6
sg9
I00
sg10
S'MCO'
p334
ssS'523'
p335
(dp336
g4
S'YYZ'
p337
sg6
I0
sg7
I2
sg8
I6
sg9
I01
sg10
S'SYD'
p338
ssS'599'
p339
(dp340
g4
S'CTU'
p341
sg6
I0
sg7
I1
sg8
I4
sg9
I01
sg10
S'BCN'
p342
ssS'528'
p343
(dp344
g4
S'BOM'
p345
sg6
I2
sg7
I2
sg8
I3
sg9
I00
sg10
S'GRU'
p346
ssS'529'
p347
(dp348
g4
S'FCO'
p349
sg6
I0
sg7
I4
sg8
I3
sg9
I00
sg10
S'LGW'
p350
ssS'994'
p351
(dp352
g4
S'BOM'
p353
sg6
I0
sg7
I3
sg8
I6
sg9
I00
sg10
S'MCO'
p354
ssS'449'
p355
(dp356
g4
S'BOM'
p357
sg6
I1
sg7
I4
sg8
I5
sg9
I01
sg10
S'SZX'
p358
ssS'448'
p359
(dp360
g4
S'MUC'
p361
sg6
I2
sg7
I2
sg8
I3
sg9
I00
sg10
S'LGW'
p362
ssS'443'
p363
(dp364
g4
S'BOM'
p365
sg6
I2
sg7
I1
sg8
I3
sg9
I00
sg10
S'GRU'
p366
ssS'442'
p367
(dp368
g4
S'CTU'
p369
sg6
I0
sg7
I3
sg8
I3
sg9
I00
sg10
S'SZX'
p370
ssS'441'
p371
(dp372
g4
S'SEA'
p373
sg6
I2
sg7
I3
sg8
I5
sg9
I00
sg10
S'SZX'
p374
ssS'440'
p375
(dp376
g4
S'YYZ'
p377
sg6
I0
sg7
I4
sg8
I6
sg9
I00
sg10
S'BCN'
p378
ssS'447'
p379
(dp380
g4
S'BOM'
p381
sg6
I1
sg7
I4
sg8
I6
sg9
I01
sg10
S'MCO'
p382
ssS'446'
p383
(dp384
g4
S'FCO'
p385
sg6
I0
sg7
I2
sg8
I6
sg9
I00
sg10
S'SYD'
p386
ssS'445'
p387
(dp388
g4
S'YYZ'
p389
sg6
I1
sg7
I4
sg8
I5
sg9
I01
sg10
S'SHA'
p390
ssS'444'
p391
(dp392
g4
S'FCO'
p393
sg6
I2
sg7
I1
sg8
I5
sg9
I00
sg10
S'LGW'
p394
ssS'108'
p395
(dp396
g4
S'CTU'
p397
sg6
I0
sg7
I1
sg8
I5
sg9
I01
sg10
S'SYD'
p398
ssS'109'
p399
(dp400
g4
S'YYZ'
p401
sg6
I2
sg7
I3
sg8
I4
sg9
I01
sg10
S'SHA'
p402
ssS'102'
p403
(dp404
g4
S'CTU'
p405
sg6
I0
sg7
I3
sg8
I5
sg9
I01
sg10
S'SZX'
p406
ssS'103'
p407
(dp408
g4
S'FCO'
p409
sg6
I2
sg7
I3
sg8
I4
sg9
I01
sg10
S'SHA'
p410
ssS'100'
p411
(dp412
g4
S'YYZ'
p413
sg6
I0
sg7
I1
sg8
I4
sg9
I01
sg10
S'BCN'
p414
ssS'101'
p415
(dp416
g4
S'CTU'
p417
sg6
I0
sg7
I4
sg8
I5
sg9
I00
sg10
S'MCO'
p418
ssS'106'
p419
(dp420
g4
S'FCO'
p421
sg6
I0
sg7
I2
sg8
I5
sg9
I01
sg10
S'GRU'
p422
ssS'107'
p423
(dp424
g4
S'MUC'
p425
sg6
I1
sg7
I4
sg8
I3
sg9
I01
sg10
S'MCO'
p426
ssS'104'
p427
(dp428
g4
S'SEA'
p429
sg6
I1
sg7
I3
sg8
I3
sg9
I01
sg10
S'SYD'
p430
ssS'105'
p431
(dp432
g4
S'YYZ'
p433
sg6
I1
sg7
I3
sg8
I3
sg9
I00
sg10
S'LGW'
p434
ssS'902'
p435
(dp436
g4
S'YYZ'
p437
sg6
I2
sg7
I2
sg8
I5
sg9
I01
sg10
S'BCN'
p438
ssS'903'
p439
(dp440
g4
S'CTU'
p441
sg6
I1
sg7
I1
sg8
I4
sg9
I01
sg10
S'SZX'
p442
ssS'39'
p443
(dp444
g4
S'MUC'
p445
sg6
I1
sg7
I4
sg8
I4
sg9
I00
sg10
S'BCN'
p446
ssS'38'
p447
(dp448
g4
S'FCO'
p449
sg6
I1
sg7
I2
sg8
I5
sg9
I01
sg10
S'MCO'
p450
ssS'906'
p451
(dp452
g4
S'MUC'
p453
sg6
I0
sg7
I4
sg8
I6
sg9
I00
sg10
S'SHA'
p454
ssS'907'
p455
(dp456
g4
S'CTU'
p457
sg6
I0
sg7
I1
sg8
I3
sg9
I01
sg10
S'SZX'
p458
ssS'904'
p459
(dp460
g4
S'YYZ'
p461
sg6
I0
sg7
I1
sg8
I3
sg9
I01
sg10
S'SYD'
p462
ssS'905'
p463
(dp464
g4
S'YYZ'
p465
sg6
I0
sg7
I4
sg8
I5
sg9
I01
sg10
S'SHA'
p466
ssS'33'
p467
(dp468
g4
S'FCO'
p469
sg6
I1
sg7
I2
sg8
I4
sg9
I00
sg10
S'SYD'
p470
ssS'32'
p471
(dp472
g4
S'BOM'
p473
sg6
I1
sg7
I3
sg8
I4
sg9
I01
sg10
S'BCN'
p474
ssS'31'
p475
(dp476
g4
S'SEA'
p477
sg6
I2
sg7
I4
sg8
I5
sg9
I00
sg10
S'SZX'
p478
ssS'30'
p479
(dp480
g4
S'CTU'
p481
sg6
I2
sg7
I3
sg8
I5
sg9
I00
sg10
S'BCN'
p482
ssS'37'
p483
(dp484
g4
S'SEA'
p485
sg6
I0
sg7
I3
sg8
I4
sg9
I01
sg10
S'MCO'
p486
ssS'36'
p487
(dp488
g4
S'BOM'
p489
sg6
I0
sg7
I1
sg8
I6
sg9
I01
sg10
S'GRU'
p490
ssS'35'
p491
(dp492
g4
S'CTU'
p493
sg6
I2
sg7
I4
sg8
I4
sg9
I00
sg10
S'SZX'
p494
ssS'34'
p495
(dp496
g4
S'BOM'
p497
sg6
I2
sg7
I3
sg8
I4
sg9
I01
sg10
S'GRU'
p498
ssS'641'
p499
(dp500
g4
S'BOM'
p501
sg6
I1
sg7
I2
sg8
I4
sg9
I01
sg10
S'GRU'
p502
ssS'640'
p503
(dp504
g4
S'SEA'
p505
sg6
I0
sg7
I4
sg8
I3
sg9
I00
sg10
S'LGW'
p506
ssS'643'
p507
(dp508
g4
S'SEA'
p509
sg6
I2
sg7
I3
sg8
I5
sg9
I00
sg10
S'GRU'
p510
ssS'642'
p511
(dp512
g4
S'FCO'
p513
sg6
I0
sg7
I2
sg8
I6
sg9
I01
sg10
S'MCO'
p514
ssS'645'
p515
(dp516
g4
S'YYZ'
p517
sg6
I2
sg7
I1
sg8
I4
sg9
I01
sg10
S'MCO'
p518
ssS'644'
p519
(dp520
g4
S'YYZ'
p521
sg6
I0
sg7
I4
sg8
I6
sg9
I01
sg10
S'SHA'
p522
ssS'438'
p523
(dp524
g4
S'YYZ'
p525
sg6
I2
sg7
I3
sg8
I6
sg9
I01
sg10
S'GRU'
p526
ssS'439'
p527
(dp528
g4
S'BOM'
p529
sg6
I0
sg7
I3
sg8
I3
sg9
I00
sg10
S'GRU'
p530
ssS'436'
p531
(dp532
g4
S'CTU'
p533
sg6
I2
sg7
I1
sg8
I4
sg9
I00
sg10
S'LGW'
p534
ssS'437'
p535
(dp536
g4
S'MUC'
p537
sg6
I2
sg7
I1
sg8
I6
sg9
I00
sg10
S'BCN'
p538
ssS'434'
p539
(dp540
g4
S'CTU'
p541
sg6
I1
sg7
I2
sg8
I6
sg9
I00
sg10
S'SHA'
p542
ssS'435'
p543
(dp544
g4
S'MUC'
p545
sg6
I1
sg7
I3
sg8
I6
sg9
I00
sg10
S'LGW'
p546
ssS'432'
p547
(dp548
g4
S'CTU'
p549
sg6
I2
sg7
I3
sg8
I3
sg9
I00
sg10
S'MCO'
p550
ssS'433'
p551
(dp552
g4
S'CTU'
p553
sg6
I1
sg7
I3
sg8
I6
sg9
I01
sg10
S'LGW'
p554
ssS'430'
p555
(dp556
g4
S'CTU'
p557
sg6
I1
sg7
I4
sg8
I6
sg9
I01
sg10
S'GRU'
p558
ssS'431'
p559
(dp560
g4
S'CTU'
p561
sg6
I0
sg7
I2
sg8
I3
sg9
I01
sg10
S'LGW'
p562
ssS'339'
p563
(dp564
g4
S'MUC'
p565
sg6
I1
sg7
I4
sg8
I5
sg9
I00
sg10
S'GRU'
p566
ssS'338'
p567
(dp568
g4
S'FCO'
p569
sg6
I2
sg7
I4
sg8
I5
sg9
I01
sg10
S'SZX'
p570
ssS'335'
p571
(dp572
g4
S'BOM'
p573
sg6
I1
sg7
I4
sg8
I6
sg9
I00
sg10
S'SHA'
p574
ssS'334'
p575
(dp576
g4
S'FCO'
p577
sg6
I1
sg7
I1
sg8
I5
sg9
I01
sg10
S'SHA'
p578
ssS'337'
p579
(dp580
g4
S'SEA'
p581
sg6
I1
sg7
I2
sg8
I6
sg9
I01
sg10
S'SHA'
p582
ssS'336'
p583
(dp584
g4
S'CTU'
p585
sg6
I1
sg7
I2
sg8
I4
sg9
I00
sg10
S'MCO'
p586
ssS'331'
p587
(dp588
g4
S'FCO'
p589
sg6
I2
sg7
I4
sg8
I4
sg9
I00
sg10
S'BCN'
p590
ssS'330'
p591
(dp592
g4
S'MUC'
p593
sg6
I2
sg7
I4
sg8
I4
sg9
I01
sg10
S'BCN'
p594
ssS'333'
p595
(dp596
g4
S'FCO'
p597
sg6
I0
sg7
I1
sg8
I5
sg9
I00
sg10
S'SHA'
p598
ssS'332'
p599
(dp600
g4
S'BOM'
p601
sg6
I2
sg7
I4
sg8
I4
sg9
I01
sg10
S'GRU'
p602
ssS'89'
p603
(dp604
g4
S'BOM'
p605
sg6
I0
sg7
I2
sg8
I5
sg9
I00
sg10
S'SZX'
p606
ssS'744'
p607
(dp608
g4
S'YYZ'
p609
sg6
I1
sg7
I2
sg8
I5
sg9
I01
sg10
S'GRU'
p610
ssS'745'
p611
(dp612
g4
S'BOM'
p613
sg6
I2
sg7
I3
sg8
I6
sg9
I00
sg10
S'MCO'
p614
ssS'854'
p615
(dp616
g4
S'YYZ'
p617
sg6
I0
sg7
I2
sg8
I5
sg9
I00
sg10
S'LGW'
p618
ssS'818'
p619
(dp620
g4
S'CTU'
p621
sg6
I1
sg7
I4
sg8
I5
sg9
I01
sg10
S'LGW'
p622
ssS'856'
p623
(dp624
g4
S'SEA'
p625
sg6
I0
sg7
I4
sg8
I3
sg9
I00
sg10
S'LGW'
p626
ssS'857'
p627
(dp628
g4
S'FCO'
p629
sg6
I2
sg7
I1
sg8
I6
sg9
I00
sg10
S'SHA'
p630
ssS'850'
p631
(dp632
g4
S'YYZ'
p633
sg6
I1
sg7
I2
sg8
I3
sg9
I00
sg10
S'GRU'
p634
ssS'851'
p635
(dp636
g4
S'BOM'
p637
sg6
I0
sg7
I2
sg8
I5
sg9
I00
sg10
S'SYD'
p638
ssS'852'
p639
(dp640
g4
S'CTU'
p641
sg6
I0
sg7
I3
sg8
I5
sg9
I01
sg10
S'LGW'
p642
ssS'345'
p643
(dp644
g4
S'SEA'
p645
sg6
I0
sg7
I3
sg8
I5
sg9
I01
sg10
S'SYD'
p646
ssS'858'
p647
(dp648
g4
S'SEA'
p649
sg6
I2
sg7
I2
sg8
I6
sg9
I01
sg10
S'GRU'
p650
ssS'859'
p651
(dp652
g4
S'FCO'
p653
sg6
I1
sg7
I2
sg8
I5
sg9
I01
sg10
S'SZX'
p654
ssS'748'
p655
(dp656
g4
S'MUC'
p657
sg6
I0
sg7
I4
sg8
I3
sg9
I01
sg10
S'BCN'
p658
ssS'6'
(dp659
g4
S'SEA'
p660
sg6
I1
sg7
I4
sg8
I6
sg9
I01
sg10
S'MCO'
p661
ssS'900'
p662
(dp663
g4
S'SEA'
p664
sg6
I2
sg7
I2
sg8
I3
sg9
I01
sg10
S'SZX'
p665
ssS'848'
p666
(dp667
g4
S'FCO'
p668
sg6
I2
sg7
I4
sg8
I4
sg9
I01
sg10
S'LGW'
p669
ssS'99'
p670
(dp671
g4
S'SEA'
p672
sg6
I0
sg7
I1
sg8
I3
sg9
I01
sg10
S'BCN'
p673
ssS'98'
p674
(dp675
g4
S'MUC'
p676
sg6
I1
sg7
I1
sg8
I3
sg9
I01
sg10
S'SYD'
p677
ssS'844'
p678
(dp679
g4
S'FCO'
p680
sg6
I0
sg7
I1
sg8
I4
sg9
I00
sg10
S'SHA'
p681
ssS'91'
p682
(dp683
g4
S'SEA'
p684
sg6
I2
sg7
I2
sg8
I6
sg9
I01
sg10
S'GRU'
p685
ssS'90'
p686
(dp687
g4
S'YYZ'
p688
sg6
I1
sg7
I3
sg8
I4
sg9
I01
sg10
S'BCN'
p689
ssS'93'
p690
(dp691
g4
S'YYZ'
p692
sg6
I2
sg7
I1
sg8
I3
sg9
I00
sg10
S'BCN'
p693
ssS'92'
p694
(dp695
g4
S'BOM'
p696
sg6
I1
sg7
I2
sg8
I5
sg9
I00
sg10
S'SHA'
p697
ssS'95'
p698
(dp699
g4
S'YYZ'
p700
sg6
I2
sg7
I1
sg8
I5
sg9
I01
sg10
S'BCN'
p701
ssS'94'
p702
(dp703
g4
S'YYZ'
p704
sg6
I0
sg7
I3
sg8
I5
sg9
I00
sg10
S'GRU'
p705
ssS'97'
p706
(dp707
g4
S'YYZ'
p708
sg6
I0
sg7
I4
sg8
I5
sg9
I01
sg10
S'SHA'
p709
ssS'96'
p710
(dp711
g4
S'YYZ'
p712
sg6
I0
sg7
I2
sg8
I4
sg9
I01
sg10
S'SZX'
p713
ssS'814'
p714
(dp715
g4
S'FCO'
p716
sg6
I1
sg7
I3
sg8
I6
sg9
I01
sg10
S'MCO'
p717
ssS'815'
p718
(dp719
g4
S'MUC'
p720
sg6
I1
sg7
I2
sg8
I4
sg9
I00
sg10
S'LGW'
p721
ssS'740'
p722
(dp723
g4
S'FCO'
p724
sg6
I2
sg7
I3
sg8
I5
sg9
I01
sg10
S'LGW'
p725
ssS'741'
p726
(dp727
g4
S'MUC'
p728
sg6
I0
sg7
I3
sg8
I3
sg9
I01
sg10
S'SZX'
p729
ssS'742'
p730
(dp731
g4
S'FCO'
p732
sg6
I1
sg7
I2
sg8
I3
sg9
I01
sg10
S'SHA'
p733
ssS'743'
p734
(dp735
g4
S'BOM'
p736
sg6
I1
sg7
I2
sg8
I6
sg9
I00
sg10
S'SYD'
p737
ssS'559'
p738
(dp739
g4
S'FCO'
p740
sg6
I1
sg7
I1
sg8
I6
sg9
I01
sg10
S'SYD'
p741
ssS'558'
p742
(dp743
g4
S'FCO'
p744
sg6
I0
sg7
I2
sg8
I6
sg9
I01
sg10
S'SZX'
p745
ssS'746'
p746
(dp747
g4
S'FCO'
p748
sg6
I0
sg7
I1
sg8
I6
sg9
I00
sg10
S'GRU'
p749
ssS'747'
p750
(dp751
g4
S'SEA'
p752
sg6
I0
sg7
I1
sg8
I3
sg9
I00
sg10
S'LGW'
p753
ssS'555'
p754
(dp755
g4
S'MUC'
p756
sg6
I0
sg7
I4
sg8
I5
sg9
I00
sg10
S'LGW'
p757
ssS'554'
p758
(dp759
g4
S'SEA'
p760
sg6
I1
sg7
I3
sg8
I5
sg9
I01
sg10
S'SHA'
p761
ssS'557'
p762
(dp763
g4
S'YYZ'
p764
sg6
I0
sg7
I3
sg8
I3
sg9
I01
sg10
S'GRU'
p765
ssS'556'
p766
(dp767
g4
S'MUC'
p768
sg6
I0
sg7
I4
sg8
I5
sg9
I01
sg10
S'MCO'
p769
ssS'551'
p770
(dp771
g4
S'CTU'
p772
sg6
I0
sg7
I4
sg8
I3
sg9
I01
sg10
S'BCN'
p773
ssS'550'
p774
(dp775
g4
S'YYZ'
p776
sg6
I0
sg7
I4
sg8
I4
sg9
I01
sg10
S'MCO'
p777
ssS'553'
p778
(dp779
g4
S'CTU'
p780
sg6
I1
sg7
I3
sg8
I4
sg9
I00
sg10
S'MCO'
p781
ssS'552'
p782
(dp783
g4
S'YYZ'
p784
sg6
I2
sg7
I4
sg8
I4
sg9
I00
sg10
S'MCO'
p785
ssS'238'
p786
(dp787
g4
S'MUC'
p788
sg6
I2
sg7
I2
sg8
I5
sg9
I01
sg10
S'SZX'
p789
ssS'239'
p790
(dp791
g4
S'YYZ'
p792
sg6
I2
sg7
I2
sg8
I6
sg9
I00
sg10
S'GRU'
p793
ssS'234'
p794
(dp795
g4
S'FCO'
p796
sg6
I0
sg7
I3
sg8
I3
sg9
I00
sg10
S'SZX'
p797
ssS'235'
p798
(dp799
g4
S'CTU'
p800
sg6
I2
sg7
I4
sg8
I5
sg9
I00
sg10
S'MCO'
p801
ssS'236'
p802
(dp803
g4
S'YYZ'
p804
sg6
I0
sg7
I4
sg8
I6
sg9
I00
sg10
S'LGW'
p805
ssS'237'
p806
(dp807
g4
S'YYZ'
p808
sg6
I1
sg7
I3
sg8
I3
sg9
I00
sg10
S'MCO'
p809
ssS'230'
p810
(dp811
g4
S'SEA'
p812
sg6
I2
sg7
I4
sg8
I6
sg9
I00
sg10
S'SYD'
p813
ssS'231'
p814
(dp815
g4
S'MUC'
p816
sg6
I2
sg7
I2
sg8
I4
sg9
I01
sg10
S'BCN'
p817
ssS'232'
p818
(dp819
g4
S'FCO'
p820
sg6
I1
sg7
I3
sg8
I6
sg9
I00
sg10
S'SYD'
p821
ssS'233'
p822
(dp823
g4
S'YYZ'
p824
sg6
I2
sg7
I2
sg8
I5
sg9
I01
sg10
S'BCN'
p825
ssS'992'
p826
(dp827
g4
S'MUC'
p828
sg6
I2
sg7
I4
sg8
I6
sg9
I00
sg10
S'MCO'
p829
ssS'1'
(dp830
g4
S'YYZ'
p831
sg6
I1
sg7
I2
sg8
I5
sg9
I01
sg10
S'LGW'
p832
ssS'614'
p833
(dp834
g4
S'BOM'
p835
sg6
I1
sg7
I4
sg8
I4
sg9
I01
sg10
S'SYD'
p836
ssS'146'
p837
(dp838
g4
S'FCO'
p839
sg6
I0
sg7
I2
sg8
I4
sg9
I00
sg10
S'GRU'
p840
ssS'147'
p841
(dp842
g4
S'YYZ'
p843
sg6
I1
sg7
I4
sg8
I5
sg9
I01
sg10
S'LGW'
p844
ssS'144'
p845
(dp846
g4
S'BOM'
p847
sg6
I0
sg7
I1
sg8
I3
sg9
I01
sg10
S'BCN'
p848
ssS'145'
p849
(dp850
g4
S'BOM'
p851
sg6
I0
sg7
I1
sg8
I4
sg9
I01
sg10
S'MCO'
p852
ssS'142'
p853
(dp854
g4
S'BOM'
p855
sg6
I0
sg7
I3
sg8
I5
sg9
I01
sg10
S'SZX'
p856
ssS'143'
p857
(dp858
g4
S'SEA'
p859
sg6
I0
sg7
I1
sg8
I4
sg9
I01
sg10
S'LGW'
p860
ssS'140'
p861
(dp862
g4
S'FCO'
p863
sg6
I2
sg7
I4
sg8
I5
sg9
I01
sg10
S'SYD'
p864
ssS'141'
p865
(dp866
g4
S'CTU'
p867
sg6
I1
sg7
I3
sg8
I5
sg9
I01
sg10
S'MCO'
p868
ssS'612'
p869
(dp870
g4
S'MUC'
p871
sg6
I2
sg7
I1
sg8
I5
sg9
I00
sg10
S'GRU'
p872
ssS'613'
p873
(dp874
g4
S'MUC'
p875
sg6
I2
sg7
I3
sg8
I6
sg9
I01
sg10
S'BCN'
p876
ssS'610'
p877
(dp878
g4
S'MUC'
p879
sg6
I2
sg7
I2
sg8
I4
sg9
I00
sg10
S'BCN'
p880
ssS'611'
p881
(dp882
g4
S'FCO'
p883
sg6
I2
sg7
I3
sg8
I3
sg9
I01
sg10
S'MCO'
p884
ssS'616'
p885
(dp886
g4
S'SEA'
p887
sg6
I1
sg7
I4
sg8
I5
sg9
I00
sg10
S'BCN'
p888
ssS'617'
p889
(dp890
g4
S'FCO'
p891
sg6
I0
sg7
I2
sg8
I4
sg9
I00
sg10
S'BCN'
p892
ssS'148'
p893
(dp894
g4
S'BOM'
p895
sg6
I0
sg7
I4
sg8
I5
sg9
I00
sg10
S'MCO'
p896
ssS'149'
p897
(dp898
g4
S'MUC'
p899
sg6
I2
sg7
I2
sg8
I6
sg9
I01
sg10
S'SZX'
p900
ssS'912'
p901
(dp902
g4
S'SEA'
p903
sg6
I1
sg7
I4
sg8
I5
sg9
I00
sg10
S'SZX'
p904
ssS'951'
p905
(dp906
g4
S'MUC'
p907
sg6
I2
sg7
I1
sg8
I3
sg9
I00
sg10
S'SHA'
p908
ssS'948'
p909
(dp910
g4
S'SEA'
p911
sg6
I0
sg7
I1
sg8
I6
sg9
I00
sg10
S'MCO'
p912
ssS'949'
p913
(dp914
g4
S'YYZ'
p915
sg6
I2
sg7
I4
sg8
I5
sg9
I01
sg10
S'MCO'
p916
ssS'946'
p917
(dp918
g4
S'CTU'
p919
sg6
I0
sg7
I2
sg8
I3
sg9
I00
sg10
S'BCN'
p920
ssS'947'
p921
(dp922
g4
S'FCO'
p923
sg6
I0
sg7
I1
sg8
I5
sg9
I01
sg10
S'SHA'
p924
ssS'944'
p925
(dp926
g4
S'FCO'
p927
sg6
I2
sg7
I1
sg8
I3
sg9
I01
sg10
S'BCN'
p928
ssS'945'
p929
(dp930
g4
S'SEA'
p931
sg6
I1
sg7
I4
sg8
I3
sg9
I00
sg10
S'SHA'
p932
ssS'942'
p933
(dp934
g4
S'FCO'
p935
sg6
I0
sg7
I3
sg8
I4
sg9
I01
sg10
S'MCO'
p936
ssS'943'
p937
(dp938
g4
S'FCO'
p939
sg6
I0
sg7
I4
sg8
I3
sg9
I00
sg10
S'LGW'
p940
ssS'940'
p941
(dp942
g4
S'YYZ'
p943
sg6
I0
sg7
I3
sg8
I6
sg9
I00
sg10
S'LGW'
p944
ssS'941'
p945
(dp946
g4
S'MUC'
p947
sg6
I2
sg7
I3
sg8
I3
sg9
I01
sg10
S'SYD'
p948
ssS'768'
p949
(dp950
g4
S'CTU'
p951
sg6
I0
sg7
I4
sg8
I3
sg9
I01
sg10
S'SHA'
p952
ssS'689'
p953
(dp954
g4
S'YYZ'
p955
sg6
I0
sg7
I2
sg8
I5
sg9
I00
sg10
S'MCO'
p956
ssS'688'
p957
(dp958
g4
S'FCO'
p959
sg6
I0
sg7
I3
sg8
I3
sg9
I01
sg10
S'SHA'
p960
ssS'685'
p961
(dp962
g4
S'MUC'
p963
sg6
I2
sg7
I2
sg8
I4
sg9
I00
sg10
S'BCN'
p964
ssS'684'
p965
(dp966
g4
S'BOM'
p967
sg6
I2
sg7
I2
sg8
I5
sg9
I00
sg10
S'BCN'
p968
ssS'687'
p969
(dp970
g4
S'MUC'
p971
sg6
I2
sg7
I1
sg8
I4
sg9
I01
sg10
S'LGW'
p972
ssS'686'
p973
(dp974
g4
S'MUC'
p975
sg6
I2
sg7
I4
sg8
I5
sg9
I00
sg10
S'BCN'
p976
ssS'681'
p977
(dp978
g4
S'MUC'
p979
sg6
I2
sg7
I3
sg8
I5
sg9
I00
sg10
S'MCO'
p980
ssS'680'
p981
(dp982
g4
S'BOM'
p983
sg6
I0
sg7
I3
sg8
I3
sg9
I00
sg10
S'SHA'
p984
ssS'683'
p985
(dp986
g4
S'BOM'
p987
sg6
I2
sg7
I1
sg8
I5
sg9
I01
sg10
S'SHA'
p988
ssS'682'
p989
(dp990
g4
S'CTU'
p991
sg6
I0
sg7
I3
sg8
I4
sg9
I00
sg10
S'LGW'
p992
ssS'623'
p993
(dp994
g4
S'BOM'
p995
sg6
I0
sg7
I2
sg8
I6
sg9
I01
sg10
S'MCO'
p996
ssS'819'
p997
(dp998
g4
S'BOM'
p999
sg6
I0
sg7
I1
sg8
I3
sg9
I00
sg10
S'SZX'
p1000
ssS'622'
p1001
(dp1002
g4
S'YYZ'
p1003
sg6
I1
sg7
I2
sg8
I5
sg9
I00
sg10
S'SYD'
p1004
ssS'133'
p1005
(dp1006
g4
S'FCO'
p1007
sg6
I0
sg7
I4
sg8
I4
sg9
I00
sg10
S'SHA'
p1008
ssS'132'
p1009
(dp1010
g4
S'CTU'
p1011
sg6
I0
sg7
I3
sg8
I3
sg9
I00
sg10
S'BCN'
p1012
ssS'131'
p1013
(dp1014
g4
S'CTU'
p1015
sg6
I2
sg7
I2
sg8
I6
sg9
I01
sg10
S'BCN'
p1016
ssS'130'
p1017
(dp1018
g4
S'CTU'
p1019
sg6
I0
sg7
I3
sg8
I3
sg9
I01
sg10
S'MCO'
p1020
ssS'137'
p1021
(dp1022
g4
S'CTU'
p1023
sg6
I0
sg7
I3
sg8
I5
sg9
I01
sg10
S'LGW'
p1024
ssS'136'
p1025
(dp1026
g4
S'CTU'
p1027
sg6
I1
sg7
I4
sg8
I3
sg9
I00
sg10
S'MCO'
p1028
ssS'135'
p1029
(dp1030
g4
S'CTU'
p1031
sg6
I2
sg7
I4
sg8
I5
sg9
I01
sg10
S'LGW'
p1032
ssS'134'
p1033
(dp1034
g4
S'CTU'
p1035
sg6
I2
sg7
I3
sg8
I4
sg9
I01
sg10
S'LGW'
p1036
ssS'494'
p1037
(dp1038
g4
S'BOM'
p1039
sg6
I0
sg7
I1
sg8
I3
sg9
I00
sg10
S'LGW'
p1040
ssS'495'
p1041
(dp1042
g4
S'SEA'
p1043
sg6
I0
sg7
I4
sg8
I6
sg9
I00
sg10
S'BCN'
p1044
ssS'139'
p1045
(dp1046
g4
S'MUC'
p1047
sg6
I0
sg7
I1
sg8
I6
sg9
I00
sg10
S'LGW'
p1048
ssS'138'
p1049
(dp1050
g4
S'MUC'
p1051
sg6
I0
sg7
I4
sg8
I4
sg9
I00
sg10
S'SYD'
p1052
ssS'490'
p1053
(dp1054
g4
S'MUC'
p1055
sg6
I0
sg7
I2
sg8
I6
sg9
I00
sg10
S'LGW'
p1056
ssS'491'
p1057
(dp1058
g4
S'YYZ'
p1059
sg6
I0
sg7
I1
sg8
I4
sg9
I00
sg10
S'BCN'
p1060
ssS'492'
p1061
(dp1062
g4
S'YYZ'
p1063
sg6
I1
sg7
I2
sg8
I3
sg9
I01
sg10
S'BCN'
p1064
ssS'493'
p1065
(dp1066
g4
S'BOM'
p1067
sg6
I2
sg7
I4
sg8
I4
sg9
I00
sg10
S'SHA'
p1068
ssS'24'
p1069
(dp1070
g4
S'MUC'
p1071
sg6
I2
sg7
I3
sg8
I6
sg9
I00
sg10
S'GRU'
p1072
ssS'25'
p1073
(dp1074
g4
S'BOM'
p1075
sg6
I2
sg7
I4
sg8
I4
sg9
I00
sg10
S'SZX'
p1076
ssS'26'
p1077
(dp1078
g4
S'MUC'
p1079
sg6
I1
sg7
I4
sg8
I3
sg9
I00
sg10
S'MCO'
p1080
ssS'27'
p1081
(dp1082
g4
S'YYZ'
p1083
sg6
I2
sg7
I2
sg8
I5
sg9
I00
sg10
S'BCN'
p1084
ssS'20'
p1085
(dp1086
g4
S'BOM'
p1087
sg6
I1
sg7
I4
sg8
I3
sg9
I00
sg10
S'GRU'
p1088
ssS'21'
p1089
(dp1090
g4
S'CTU'
p1091
sg6
I0
sg7
I4
sg8
I4
sg9
I00
sg10
S'GRU'
p1092
ssS'22'
p1093
(dp1094
g4
S'YYZ'
p1095
sg6
I0
sg7
I3
sg8
I6
sg9
I00
sg10
S'LGW'
p1096
ssS'23'
p1097
(dp1098
g4
S'BOM'
p1099
sg6
I2
sg7
I1
sg8
I6
sg9
I01
sg10
S'GRU'
p1100
ssS'927'
p1101
(dp1102
g4
S'CTU'
p1103
sg6
I0
sg7
I2
sg8
I3
sg9
I00
sg10
S'MCO'
p1104
ssS'28'
p1105
(dp1106
g4
S'SEA'
p1107
sg6
I1
sg7
I3
sg8
I3
sg9
I00
sg10
S'LGW'
p1108
ssS'29'
p1109
(dp1110
g4
S'YYZ'
p1111
sg6
I0
sg7
I4
sg8
I6
sg9
I01
sg10
S'GRU'
p1112
ssS'407'
p1113
(dp1114
g4
S'YYZ'
p1115
sg6
I1
sg7
I1
sg8
I5
sg9
I01
sg10
S'GRU'
p1116
ssS'406'
p1117
(dp1118
g4
S'MUC'
p1119
sg6
I1
sg7
I3
sg8
I3
sg9
I01
sg10
S'BCN'
p1120
ssS'405'
p1121
(dp1122
g4
S'MUC'
p1123
sg6
I2
sg7
I3
sg8
I5
sg9
I01
sg10
S'GRU'
p1124
ssS'404'
p1125
(dp1126
g4
S'YYZ'
p1127
sg6
I1
sg7
I3
sg8
I3
sg9
I01
sg10
S'GRU'
p1128
ssS'403'
p1129
(dp1130
g4
S'SEA'
p1131
sg6
I1
sg7
I1
sg8
I3
sg9
I01
sg10
S'GRU'
p1132
ssS'402'
p1133
(dp1134
g4
S'BOM'
p1135
sg6
I1
sg7
I1
sg8
I4
sg9
I01
sg10
S'GRU'
p1136
ssS'401'
p1137
(dp1138
g4
S'CTU'
p1139
sg6
I0
sg7
I1
sg8
I4
sg9
I01
sg10
S'SYD'
p1140
ssS'400'
p1141
(dp1142
g4
S'FCO'
p1143
sg6
I2
sg7
I1
sg8
I6
sg9
I01
sg10
S'MCO'
p1144
ssS'933'
p1145
(dp1146
g4
S'MUC'
p1147
sg6
I1
sg7
I1
sg8
I3
sg9
I00
sg10
S'SYD'
p1148
ssS'932'
p1149
(dp1150
g4
S'FCO'
p1151
sg6
I2
sg7
I3
sg8
I5
sg9
I00
sg10
S'SZX'
p1152
ssS'931'
p1153
(dp1154
g4
S'SEA'
p1155
sg6
I0
sg7
I3
sg8
I4
sg9
I01
sg10
S'SHA'
p1156
ssS'930'
p1157
(dp1158
g4
S'YYZ'
p1159
sg6
I2
sg7
I4
sg8
I6
sg9
I01
sg10
S'SHA'
p1160
ssS'937'
p1161
(dp1162
g4
S'BOM'
p1163
sg6
I2
sg7
I2
sg8
I5
sg9
I00
sg10
S'LGW'
p1164
ssS'629'
p1165
(dp1166
g4
S'SEA'
p1167
sg6
I1
sg7
I4
sg8
I4
sg9
I00
sg10
S'SYD'
p1168
ssS'409'
p1169
(dp1170
g4
S'CTU'
p1171
sg6
I0
sg7
I1
sg8
I4
sg9
I01
sg10
S'SZX'
p1172
ssS'408'
p1173
(dp1174
g4
S'BOM'
p1175
sg6
I0
sg7
I4
sg8
I6
sg9
I01
sg10
S'SHA'
p1176
ssS'628'
p1177
(dp1178
g4
S'FCO'
p1179
sg6
I0
sg7
I4
sg8
I6
sg9
I00
sg10
S'LGW'
p1180
ssS'758'
p1181
(dp1182
g4
S'YYZ'
p1183
sg6
I0
sg7
I4
sg8
I4
sg9
I00
sg10
S'SYD'
p1184
ssS'379'
p1185
(dp1186
g4
S'CTU'
p1187
sg6
I2
sg7
I4
sg8
I4
sg9
I00
sg10
S'MCO'
p1188
ssS'378'
p1189
(dp1190
g4
S'SEA'
p1191
sg6
I1
sg7
I1
sg8
I6
sg9
I01
sg10
S'SZX'
p1192
ssS'829'
p1193
(dp1194
g4
S'SEA'
p1195
sg6
I2
sg7
I4
sg8
I6
sg9
I01
sg10
S'SZX'
p1196
ssS'828'
p1197
(dp1198
g4
S'BOM'
p1199
sg6
I1
sg7
I3
sg8
I5
sg9
I00
sg10
S'BCN'
p1200
ssS'371'
p1201
(dp1202
g4
S'SEA'
p1203
sg6
I2
sg7
I3
sg8
I5
sg9
I00
sg10
S'SHA'
p1204
ssS'370'
p1205
(dp1206
g4
S'CTU'
p1207
sg6
I0
sg7
I4
sg8
I4
sg9
I00
sg10
S'LGW'
p1208
ssS'373'
p1209
(dp1210
g4
S'BOM'
p1211
sg6
I0
sg7
I4
sg8
I5
sg9
I00
sg10
S'SHA'
p1212
ssS'372'
p1213
(dp1214
g4
S'CTU'
p1215
sg6
I2
sg7
I3
sg8
I3
sg9
I00
sg10
S'LGW'
p1216
ssS'375'
p1217
(dp1218
g4
S'MUC'
p1219
sg6
I0
sg7
I3
sg8
I5
sg9
I01
sg10
S'BCN'
p1220
ssS'374'
p1221
(dp1222
g4
S'CTU'
p1223
sg6
I2
sg7
I1
sg8
I3
sg9
I00
sg10
S'MCO'
p1224
ssS'377'
p1225
(dp1226
g4
S'SEA'
p1227
sg6
I1
sg7
I4
sg8
I6
sg9
I01
sg10
S'GRU'
p1228
ssS'376'
p1229
(dp1230
g4
S'CTU'
p1231
sg6
I1
sg7
I2
sg8
I6
sg9
I00
sg10
S'MCO'
p1232
ssS'708'
p1233
(dp1234
g4
S'FCO'
p1235
sg6
I2
sg7
I2
sg8
I6
sg9
I01
sg10
S'SZX'
p1236
ssS'709'
p1237
(dp1238
g4
S'FCO'
p1239
sg6
I1
sg7
I1
sg8
I6
sg9
I01
sg10
S'SHA'
p1240
ssS'704'
p1241
(dp1242
g4
S'MUC'
p1243
sg6
I2
sg7
I1
sg8
I5
sg9
I01
sg10
S'MCO'
p1244
ssS'705'
p1245
(dp1246
g4
S'BOM'
p1247
sg6
I0
sg7
I1
sg8
I5
sg9
I00
sg10
S'GRU'
p1248
ssS'706'
p1249
(dp1250
g4
S'SEA'
p1251
sg6
I2
sg7
I1
sg8
I5
sg9
I01
sg10
S'BCN'
p1252
ssS'707'
p1253
(dp1254
g4
S'MUC'
p1255
sg6
I2
sg7
I1
sg8
I6
sg9
I01
sg10
S'SYD'
p1256
ssS'700'
p1257
(dp1258
g4
S'MUC'
p1259
sg6
I2
sg7
I4
sg8
I5
sg9
I01
sg10
S'SYD'
p1260
ssS'618'
p1261
(dp1262
g4
S'CTU'
p1263
sg6
I0
sg7
I4
sg8
I6
sg9
I00
sg10
S'MCO'
p1264
ssS'702'
p1265
(dp1266
g4
S'SEA'
p1267
sg6
I1
sg7
I2
sg8
I3
sg9
I01
sg10
S'LGW'
p1268
ssS'703'
p1269
(dp1270
g4
S'SEA'
p1271
sg6
I0
sg7
I4
sg8
I5
sg9
I00
sg10
S'SZX'
p1272
ssS'393'
p1273
(dp1274
g4
S'MUC'
p1275
sg6
I1
sg7
I2
sg8
I6
sg9
I01
sg10
S'GRU'
p1276
ssS'392'
p1277
(dp1278
g4
S'MUC'
p1279
sg6
I2
sg7
I3
sg8
I6
sg9
I01
sg10
S'MCO'
p1280
ssS'391'
p1281
(dp1282
g4
S'SEA'
p1283
sg6
I2
sg7
I1
sg8
I6
sg9
I00
sg10
S'SHA'
p1284
ssS'390'
p1285
(dp1286
g4
S'SEA'
p1287
sg6
I2
sg7
I2
sg8
I3
sg9
I00
sg10
S'SHA'
p1288
ssS'397'
p1289
(dp1290
g4
S'SEA'
p1291
sg6
I0
sg7
I3
sg8
I3
sg9
I01
sg10
S'SHA'
p1292
ssS'396'
p1293
(dp1294
g4
S'MUC'
p1295
sg6
I1
sg7
I3
sg8
I3
sg9
I00
sg10
S'SHA'
p1296
ssS'395'
p1297
(dp1298
g4
S'BOM'
p1299
sg6
I2
sg7
I1
sg8
I6
sg9
I00
sg10
S'SYD'
p1300
ssS'394'
p1301
(dp1302
g4
S'SEA'
p1303
sg6
I0
sg7
I4
sg8
I5
sg9
I00
sg10
S'BCN'
p1304
ssS'82'
p1305
(dp1306
g4
S'CTU'
p1307
sg6
I2
sg7
I3
sg8
I3
sg9
I01
sg10
S'LGW'
p1308
ssS'83'
p1309
(dp1310
g4
S'CTU'
p1311
sg6
I2
sg7
I2
sg8
I3
sg9
I01
sg10
S'MCO'
p1312
ssS'399'
p1313
(dp1314
g4
S'YYZ'
p1315
sg6
I0
sg7
I4
sg8
I6
sg9
I00
sg10
S'GRU'
p1316
ssS'398'
p1317
(dp1318
g4
S'CTU'
p1319
sg6
I1
sg7
I2
sg8
I4
sg9
I00
sg10
S'SHA'
p1320
ssS'86'
p1321
(dp1322
g4
S'BOM'
p1323
sg6
I0
sg7
I4
sg8
I6
sg9
I00
sg10
S'SYD'
p1324
ssS'87'
p1325
(dp1326
g4
S'MUC'
p1327
sg6
I0
sg7
I2
sg8
I3
sg9
I01
sg10
S'LGW'
p1328
ssS'84'
p1329
(dp1330
g4
S'CTU'
p1331
sg6
I0
sg7
I4
sg8
I6
sg9
I00
sg10
S'LGW'
p1332
ssS'85'
p1333
(dp1334
g4
S'BOM'
p1335
sg6
I2
sg7
I1
sg8
I4
sg9
I00
sg10
S'SYD'
p1336
ssS'797'
p1337
(dp1338
g4
S'MUC'
p1339
sg6
I2
sg7
I1
sg8
I3
sg9
I00
sg10
S'SHA'
p1340
ssS'796'
p1341
(dp1342
g4
S'BOM'
p1343
sg6
I2
sg7
I4
sg8
I5
sg9
I01
sg10
S'SHA'
p1344
ssS'795'
p1345
(dp1346
g4
S'BOM'
p1347
sg6
I1
sg7
I3
sg8
I4
sg9
I00
sg10
S'LGW'
p1348
ssS'794'
p1349
(dp1350
g4
S'BOM'
p1351
sg6
I2
sg7
I3
sg8
I6
sg9
I00
sg10
S'SZX'
p1352
ssS'793'
p1353
(dp1354
g4
S'FCO'
p1355
sg6
I2
sg7
I2
sg8
I4
sg9
I01
sg10
S'SYD'
p1356
ssS'792'
p1357
(dp1358
g4
S'BOM'
p1359
sg6
I2
sg7
I1
sg8
I6
sg9
I01
sg10
S'MCO'
p1360
ssS'791'
p1361
(dp1362
g4
S'BOM'
p1363
sg6
I0
sg7
I3
sg8
I6
sg9
I01
sg10
S'MCO'
p1364
ssS'790'
p1365
(dp1366
g4
S'CTU'
p1367
sg6
I1
sg7
I4
sg8
I3
sg9
I00
sg10
S'LGW'
p1368
ssS'799'
p1369
(dp1370
g4
S'BOM'
p1371
sg6
I2
sg7
I2
sg8
I5
sg9
I00
sg10
S'LGW'
p1372
ssS'798'
p1373
(dp1374
g4
S'SEA'
p1375
sg6
I0
sg7
I4
sg8
I4
sg9
I01
sg10
S'LGW'
p1376
ssS'7'
(dp1377
g4
S'YYZ'
p1378
sg6
I0
sg7
I2
sg8
I4
sg9
I00
sg10
S'MCO'
p1379
ssS'601'
p1380
(dp1381
g4
S'BOM'
p1382
sg6
I2
sg7
I4
sg8
I6
sg9
I01
sg10
S'GRU'
p1383
ssS'607'
p1384
(dp1385
g4
S'YYZ'
p1386
sg6
I2
sg7
I1
sg8
I4
sg9
I00
sg10
S'SYD'
p1387
ssS'586'
p1388
(dp1389
g4
S'SEA'
p1390
sg6
I2
sg7
I2
sg8
I5
sg9
I01
sg10
S'MCO'
p1391
ssS'587'
p1392
(dp1393
g4
S'CTU'
p1394
sg6
I1
sg7
I4
sg8
I6
sg9
I00
sg10
S'SYD'
p1395
ssS'584'
p1396
(dp1397
g4
S'MUC'
p1398
sg6
I0
sg7
I4
sg8
I4
sg9
I00
sg10
S'SZX'
p1399
ssS'585'
p1400
(dp1401
g4
S'FCO'
p1402
sg6
I1
sg7
I1
sg8
I6
sg9
I00
sg10
S'GRU'
p1403
ssS'582'
p1404
(dp1405
g4
S'BOM'
p1406
sg6
I1
sg7
I2
sg8
I3
sg9
I00
sg10
S'SZX'
p1407
ssS'583'
p1408
(dp1409
g4
S'MUC'
p1410
sg6
I1
sg7
I2
sg8
I3
sg9
I00
sg10
S'SHA'
p1411
ssS'580'
p1412
(dp1413
g4
S'SEA'
p1414
sg6
I1
sg7
I1
sg8
I4
sg9
I01
sg10
S'MCO'
p1415
ssS'581'
p1416
(dp1417
g4
S'BOM'
p1418
sg6
I2
sg7
I4
sg8
I4
sg9
I00
sg10
S'MCO'
p1419
ssS'588'
p1420
(dp1421
g4
S'SEA'
p1422
sg6
I1
sg7
I4
sg8
I5
sg9
I00
sg10
S'GRU'
p1423
ssS'589'
p1424
(dp1425
g4
S'SEA'
p1426
sg6
I0
sg7
I2
sg8
I4
sg9
I01
sg10
S'LGW'
p1427
ssS'245'
p1428
(dp1429
g4
S'MUC'
p1430
sg6
I1
sg7
I4
sg8
I5
sg9
I01
sg10
S'GRU'
p1431
ssS'244'
p1432
(dp1433
g4
S'YYZ'
p1434
sg6
I0
sg7
I4
sg8
I5
sg9
I01
sg10
S'MCO'
p1435
ssS'247'
p1436
(dp1437
g4
S'MUC'
p1438
sg6
I2
sg7
I4
sg8
I4
sg9
I01
sg10
S'BCN'
p1439
ssS'246'
p1440
(dp1441
g4
S'CTU'
p1442
sg6
I0
sg7
I4
sg8
I5
sg9
I01
sg10
S'SHA'
p1443
ssS'241'
p1444
(dp1445
g4
S'MUC'
p1446
sg6
I0
sg7
I4
sg8
I3
sg9
I00
sg10
S'MCO'
p1447
ssS'240'
p1448
(dp1449
g4
S'YYZ'
p1450
sg6
I2
sg7
I4
sg8
I4
sg9
I00
sg10
S'SYD'
p1451
ssS'243'
p1452
(dp1453
g4
S'BOM'
p1454
sg6
I1
sg7
I2
sg8
I4
sg9
I00
sg10
S'MCO'
p1455
ssS'242'
p1456
(dp1457
g4
S'YYZ'
p1458
sg6
I2
sg7
I3
sg8
I5
sg9
I01
sg10
S'GRU'
p1459
ssS'615'
p1460
(dp1461
g4
S'MUC'
p1462
sg6
I1
sg7
I1
sg8
I4
sg9
I01
sg10
S'GRU'
p1463
ssS'249'
p1464
(dp1465
g4
S'SEA'
p1466
sg6
I1
sg7
I1
sg8
I6
sg9
I01
sg10
S'SYD'
p1467
ssS'248'
p1468
(dp1469
g4
S'SEA'
p1470
sg6
I0
sg7
I2
sg8
I3
sg9
I01
sg10
S'SYD'
p1471
ssS'924'
p1472
(dp1473
g4
S'MUC'
p1474
sg6
I0
sg7
I1
sg8
I6
sg9
I00
sg10
S'SHA'
p1475
ssS'970'
p1476
(dp1477
g4
S'BOM'
p1478
sg6
I2
sg7
I4
sg8
I3
sg9
I00
sg10
S'MCO'
p1479
ssS'925'
p1480
(dp1481
g4
S'BOM'
p1482
sg6
I0
sg7
I2
sg8
I3
sg9
I01
sg10
S'SHA'
p1483
ssS'519'
p1484
(dp1485
g4
S'CTU'
p1486
sg6
I2
sg7
I2
sg8
I5
sg9
I01
sg10
S'LGW'
p1487
ssS'518'
p1488
(dp1489
g4
S'FCO'
p1490
sg6
I2
sg7
I1
sg8
I5
sg9
I01
sg10
S'SYD'
p1491
ssS'926'
p1492
(dp1493
g4
S'FCO'
p1494
sg6
I0
sg7
I2
sg8
I6
sg9
I01
sg10
S'MCO'
p1495
ssS'511'
p1496
(dp1497
g4
S'MUC'
p1498
sg6
I0
sg7
I3
sg8
I3
sg9
I01
sg10
S'SYD'
p1499
ssS'510'
p1500
(dp1501
g4
S'BOM'
p1502
sg6
I0
sg7
I2
sg8
I4
sg9
I01
sg10
S'LGW'
p1503
ssS'513'
p1504
(dp1505
g4
S'CTU'
p1506
sg6
I1
sg7
I1
sg8
I5
sg9
I00
sg10
S'GRU'
p1507
ssS'512'
p1508
(dp1509
g4
S'BOM'
p1510
sg6
I0
sg7
I4
sg8
I3
sg9
I00
sg10
S'SYD'
p1511
ssS'515'
p1512
(dp1513
g4
S'SEA'
p1514
sg6
I0
sg7
I2
sg8
I3
sg9
I00
sg10
S'GRU'
p1515
ssS'514'
p1516
(dp1517
g4
S'BOM'
p1518
sg6
I0
sg7
I2
sg8
I4
sg9
I01
sg10
S'GRU'
p1519
ssS'517'
p1520
(dp1521
g4
S'SEA'
p1522
sg6
I1
sg7
I2
sg8
I3
sg9
I00
sg10
S'SZX'
p1523
ssS'516'
p1524
(dp1525
g4
S'YYZ'
p1526
sg6
I0
sg7
I1
sg8
I3
sg9
I00
sg10
S'GRU'
p1527
ssS'458'
p1528
(dp1529
g4
S'BOM'
p1530
sg6
I0
sg7
I3
sg8
I5
sg9
I00
sg10
S'SHA'
p1531
ssS'459'
p1532
(dp1533
g4
S'YYZ'
p1534
sg6
I1
sg7
I2
sg8
I6
sg9
I01
sg10
S'SYD'
p1535
ssS'621'
p1536
(dp1537
g4
S'FCO'
p1538
sg6
I0
sg7
I4
sg8
I4
sg9
I01
sg10
S'MCO'
p1539
ssS'620'
p1540
(dp1541
g4
S'YYZ'
p1542
sg6
I1
sg7
I4
sg8
I6
sg9
I01
sg10
S'SZX'
p1543
ssS'627'
p1544
(dp1545
g4
S'MUC'
p1546
sg6
I2
sg7
I4
sg8
I5
sg9
I00
sg10
S'MCO'
p1547
ssS'626'
p1548
(dp1549
g4
S'YYZ'
p1550
sg6
I2
sg7
I1
sg8
I5
sg9
I01
sg10
S'SYD'
p1551
ssS'625'
p1552
(dp1553
g4
S'SEA'
p1554
sg6
I2
sg7
I2
sg8
I3
sg9
I00
sg10
S'SZX'
p1555
ssS'624'
p1556
(dp1557
g4
S'SEA'
p1558
sg6
I1
sg7
I4
sg8
I5
sg9
I01
sg10
S'SYD'
p1559
ssS'450'
p1560
(dp1561
g4
S'YYZ'
p1562
sg6
I1
sg7
I1
sg8
I6
sg9
I01
sg10
S'BCN'
p1563
ssS'451'
p1564
(dp1565
g4
S'BOM'
p1566
sg6
I2
sg7
I4
sg8
I3
sg9
I01
sg10
S'MCO'
p1567
ssS'452'
p1568
(dp1569
g4
S'BOM'
p1570
sg6
I0
sg7
I2
sg8
I6
sg9
I00
sg10
S'LGW'
p1571
ssS'453'
p1572
(dp1573
g4
S'SEA'
p1574
sg6
I0
sg7
I4
sg8
I3
sg9
I01
sg10
S'BCN'
p1575
ssS'454'
p1576
(dp1577
g4
S'MUC'
p1578
sg6
I0
sg7
I3
sg8
I6
sg9
I00
sg10
S'GRU'
p1579
ssS'455'
p1580
(dp1581
g4
S'YYZ'
p1582
sg6
I2
sg7
I1
sg8
I3
sg9
I00
sg10
S'SZX'
p1583
ssS'456'
p1584
(dp1585
g4
S'FCO'
p1586
sg6
I1
sg7
I1
sg8
I5
sg9
I00
sg10
S'SYD'
p1587
ssS'457'
p1588
(dp1589
g4
S'SEA'
p1590
sg6
I1
sg7
I3
sg8
I4
sg9
I00
sg10
S'MCO'
p1591
ssS'179'
p1592
(dp1593
g4
S'BOM'
p1594
sg6
I1
sg7
I2
sg8
I5
sg9
I00
sg10
S'SZX'
p1595
ssS'178'
p1596
(dp1597
g4
S'CTU'
p1598
sg6
I0
sg7
I1
sg8
I5
sg9
I00
sg10
S'BCN'
p1599
ssS'177'
p1600
(dp1601
g4
S'BOM'
p1602
sg6
I2
sg7
I2
sg8
I6
sg9
I00
sg10
S'SHA'
p1603
ssS'176'
p1604
(dp1605
g4
S'YYZ'
p1606
sg6
I0
sg7
I3
sg8
I4
sg9
I00
sg10
S'SHA'
p1607
ssS'175'
p1608
(dp1609
g4
S'MUC'
p1610
sg6
I1
sg7
I2
sg8
I3
sg9
I01
sg10
S'LGW'
p1611
ssS'174'
p1612
(dp1613
g4
S'CTU'
p1614
sg6
I2
sg7
I2
sg8
I4
sg9
I01
sg10
S'SHA'
p1615
ssS'173'
p1616
(dp1617
g4
S'FCO'
p1618
sg6
I0
sg7
I1
sg8
I3
sg9
I01
sg10
S'GRU'
p1619
ssS'172'
p1620
(dp1621
g4
S'SEA'
p1622
sg6
I1
sg7
I2
sg8
I6
sg9
I00
sg10
S'SZX'
p1623
ssS'171'
p1624
(dp1625
g4
S'MUC'
p1626
sg6
I2
sg7
I1
sg8
I3
sg9
I01
sg10
S'LGW'
p1627
ssS'170'
p1628
(dp1629
g4
S'SEA'
p1630
sg6
I2
sg7
I3
sg8
I3
sg9
I00
sg10
S'SHA'
p1631
ssS'977'
p1632
(dp1633
g4
S'MUC'
p1634
sg6
I0
sg7
I3
sg8
I5
sg9
I00
sg10
S'SZX'
p1635
ssS'656'
p1636
(dp1637
g4
S'FCO'
p1638
sg6
I0
sg7
I2
sg8
I6
sg9
I00
sg10
S'GRU'
p1639
ssS'975'
p1640
(dp1641
g4
S'SEA'
p1642
sg6
I1
sg7
I4
sg8
I3
sg9
I01
sg10
S'SYD'
p1643
ssS'974'
p1644
(dp1645
g4
S'MUC'
p1646
sg6
I0
sg7
I4
sg8
I6
sg9
I00
sg10
S'LGW'
p1647
ssS'973'
p1648
(dp1649
g4
S'SEA'
p1650
sg6
I2
sg7
I1
sg8
I5
sg9
I01
sg10
S'SHA'
p1651
ssS'972'
p1652
(dp1653
g4
S'MUC'
p1654
sg6
I0
sg7
I1
sg8
I5
sg9
I00
sg10
S'LGW'
p1655
ssS'971'
p1656
(dp1657
g4
S'SEA'
p1658
sg6
I2
sg7
I3
sg8
I3
sg9
I01
sg10
S'MCO'
p1659
ssS'657'
p1660
(dp1661
g4
S'MUC'
p1662
sg6
I0
sg7
I2
sg8
I5
sg9
I01
sg10
S'LGW'
p1663
ssS'654'
p1664
(dp1665
g4
S'SEA'
p1666
sg6
I2
sg7
I2
sg8
I5
sg9
I01
sg10
S'SHA'
p1667
ssS'979'
p1668
(dp1669
g4
S'YYZ'
p1670
sg6
I2
sg7
I1
sg8
I4
sg9
I01
sg10
S'LGW'
p1671
ssS'978'
p1672
(dp1673
g4
S'FCO'
p1674
sg6
I1
sg7
I2
sg8
I3
sg9
I01
sg10
S'MCO'
p1675
ssS'182'
p1676
(dp1677
g4
S'BOM'
p1678
sg6
I0
sg7
I3
sg8
I5
sg9
I01
sg10
S'BCN'
p1679
ssS'183'
p1680
(dp1681
g4
S'BOM'
p1682
sg6
I0
sg7
I4
sg8
I5
sg9
I00
sg10
S'SHA'
p1683
ssS'180'
p1684
(dp1685
g4
S'BOM'
p1686
sg6
I0
sg7
I2
sg8
I6
sg9
I00
sg10
S'SHA'
p1687
ssS'181'
p1688
(dp1689
g4
S'FCO'
p1690
sg6
I0
sg7
I1
sg8
I6
sg9
I00
sg10
S'SYD'
p1691
ssS'186'
p1692
(dp1693
g4
S'BOM'
p1694
sg6
I1
sg7
I3
sg8
I4
sg9
I01
sg10
S'GRU'
p1695
ssS'187'
p1696
(dp1697
g4
S'FCO'
p1698
sg6
I1
sg7
I4
sg8
I4
sg9
I01
sg10
S'LGW'
p1699
ssS'184'
p1700
(dp1701
g4
S'SEA'
p1702
sg6
I1
sg7
I3
sg8
I3
sg9
I01
sg10
S'MCO'
p1703
ssS'185'
p1704
(dp1705
g4
S'SEA'
p1706
sg6
I2
sg7
I4
sg8
I4
sg9
I01
sg10
S'SZX'
p1707
ssS'886'
p1708
(dp1709
g4
S'YYZ'
p1710
sg6
I0
sg7
I4
sg8
I6
sg9
I00
sg10
S'LGW'
p1711
ssS'652'
p1712
(dp1713
g4
S'YYZ'
p1714
sg6
I2
sg7
I1
sg8
I6
sg9
I00
sg10
S'LGW'
p1715
ssS'188'
p1716
(dp1717
g4
S'CTU'
p1718
sg6
I2
sg7
I4
sg8
I3
sg9
I00
sg10
S'SZX'
p1719
ssS'189'
p1720
(dp1721
g4
S'FCO'
p1722
sg6
I1
sg7
I3
sg8
I5
sg9
I01
sg10
S'SZX'
p1723
ssS'658'
p1724
(dp1725
g4
S'CTU'
p1726
sg6
I1
sg7
I2
sg8
I3
sg9
I01
sg10
S'SYD'
p1727
ssS'653'
p1728
(dp1729
g4
S'SEA'
p1730
sg6
I2
sg7
I3
sg8
I3
sg9
I00
sg10
S'BCN'
p1731
ssS'650'
p1732
(dp1733
g4
S'CTU'
p1734
sg6
I2
sg7
I1
sg8
I4
sg9
I01
sg10
S'SZX'
p1735
ssS'651'
p1736
(dp1737
g4
S'YYZ'
p1738
sg6
I1
sg7
I2
sg8
I3
sg9
I00
sg10
S'SYD'
p1739
ssS'764'
p1740
(dp1741
g4
S'CTU'
p1742
sg6
I1
sg7
I4
sg8
I6
sg9
I01
sg10
S'MCO'
p1743
ssS'11'
p1744
(dp1745
g4
S'MUC'
p1746
sg6
I1
sg7
I4
sg8
I3
sg9
I00
sg10
S'MCO'
p1747
ssS'10'
p1748
(dp1749
g4
S'MUC'
p1750
sg6
I0
sg7
I1
sg8
I4
sg9
I01
sg10
S'SHA'
p1751
ssS'13'
p1752
(dp1753
g4
S'FCO'
p1754
sg6
I1
sg7
I3
sg8
I6
sg9
I01
sg10
S'MCO'
p1755
ssS'12'
p1756
(dp1757
g4
S'FCO'
p1758
sg6
I2
sg7
I3
sg8
I3
sg9
I01
sg10
S'SYD'
p1759
ssS'15'
p1760
(dp1761
g4
S'MUC'
p1762
sg6
I0
sg7
I1
sg8
I3
sg9
I01
sg10
S'SYD'
p1763
ssS'14'
p1764
(dp1765
g4
S'YYZ'
p1766
sg6
I2
sg7
I4
sg8
I3
sg9
I00
sg10
S'MCO'
p1767
ssS'17'
p1768
(dp1769
g4
S'FCO'
p1770
sg6
I1
sg7
I3
sg8
I4
sg9
I00
sg10
S'BCN'
p1771
ssS'16'
p1772
(dp1773
g4
S'CTU'
p1774
sg6
I1
sg7
I3
sg8
I4
sg9
I00
sg10
S'SYD'
p1775
ssS'19'
p1776
(dp1777
g4
S'SEA'
p1778
sg6
I1
sg7
I1
sg8
I3
sg9
I01
sg10
S'LGW'
p1779
ssS'18'
p1780
(dp1781
g4
S'BOM'
p1782
sg6
I1
sg7
I4
sg8
I6
sg9
I01
sg10
S'SZX'
p1783
ssS'863'
p1784
(dp1785
g4
S'MUC'
p1786
sg6
I1
sg7
I4
sg8
I6
sg9
I01
sg10
S'LGW'
p1787
ssS'862'
p1788
(dp1789
g4
S'MUC'
p1790
sg6
I1
sg7
I3
sg8
I4
sg9
I00
sg10
S'MCO'
p1791
ssS'865'
p1792
(dp1793
g4
S'CTU'
p1794
sg6
I1
sg7
I1
sg8
I4
sg9
I00
sg10
S'SZX'
p1795
ssS'864'
p1796
(dp1797
g4
S'FCO'
p1798
sg6
I0
sg7
I4
sg8
I6
sg9
I01
sg10
S'GRU'
p1799
ssS'867'
p1800
(dp1801
g4
S'MUC'
p1802
sg6
I0
sg7
I1
sg8
I6
sg9
I00
sg10
S'LGW'
p1803
ssS'866'
p1804
(dp1805
g4
S'SEA'
p1806
sg6
I0
sg7
I2
sg8
I4
sg9
I01
sg10
S'SHA'
p1807
ssS'884'
p1808
(dp1809
g4
S'YYZ'
p1810
sg6
I2
sg7
I1
sg8
I5
sg9
I00
sg10
S'SYD'
p1811
ssS'938'
p1812
(dp1813
g4
S'SEA'
p1814
sg6
I1
sg7
I2
sg8
I3
sg9
I00
sg10
S'SHA'
p1815
ssS'659'
p1816
(dp1817
g4
S'YYZ'
p1818
sg6
I1
sg7
I4
sg8
I6
sg9
I00
sg10
S'GRU'
p1819
ssS'883'
p1820
(dp1821
g4
S'SEA'
p1822
sg6
I0
sg7
I3
sg8
I3
sg9
I01
sg10
S'LGW'
p1823
ssS'753'
p1824
(dp1825
g4
S'FCO'
p1826
sg6
I0
sg7
I1
sg8
I6
sg9
I01
sg10
S'SZX'
p1827
ssS'881'
p1828
(dp1829
g4
S'CTU'
p1830
sg6
I1
sg7
I4
sg8
I6
sg9
I01
sg10
S'SHA'
p1831
ssS'880'
p1832
(dp1833
g4
S'YYZ'
p1834
sg6
I2
sg7
I2
sg8
I3
sg9
I01
sg10
S'GRU'
p1835
ssS'887'
p1836
(dp1837
g4
S'SEA'
p1838
sg6
I0
sg7
I3
sg8
I3
sg9
I01
sg10
S'SHA'
p1839
ssS'831'
p1840
(dp1841
g4
S'CTU'
p1842
sg6
I0
sg7
I3
sg8
I4
sg9
I00
sg10
S'LGW'
p1843
ssS'885'
p1844
(dp1845
g4
S'YYZ'
p1846
sg6
I2
sg7
I1
sg8
I5
sg9
I01
sg10
S'MCO'
p1847
ssS'752'
p1848
(dp1849
g4
S'SEA'
p1850
sg6
I0
sg7
I3
sg8
I5
sg9
I00
sg10
S'BCN'
p1851
ssS'928'
p1852
(dp1853
g4
S'FCO'
p1854
sg6
I0
sg7
I1
sg8
I6
sg9
I00
sg10
S'GRU'
p1855
ssS'62'
p1856
(dp1857
g4
S'FCO'
p1858
sg6
I2
sg7
I2
sg8
I6
sg9
I00
sg10
S'LGW'
p1859
ssS'888'
p1860
(dp1861
g4
S'SEA'
p1862
sg6
I1
sg7
I2
sg8
I4
sg9
I00
sg10
S'LGW'
p1863
ssS'950'
p1864
(dp1865
g4
S'SEA'
p1866
sg6
I1
sg7
I2
sg8
I4
sg9
I01
sg10
S'SZX'
p1867
ssS'756'
p1868
(dp1869
g4
S'SEA'
p1870
sg6
I1
sg7
I4
sg8
I4
sg9
I01
sg10
S'GRU'
p1871
ssS'929'
p1872
(dp1873
g4
S'SEA'
p1874
sg6
I1
sg7
I1
sg8
I3
sg9
I01
sg10
S'SYD'
p1875
ssS'63'
p1876
(dp1877
g4
S'SEA'
p1878
sg6
I1
sg7
I2
sg8
I5
sg9
I00
sg10
S'MCO'
p1879
ssS'809'
p1880
(dp1881
g4
S'FCO'
p1882
sg6
I1
sg7
I1
sg8
I3
sg9
I00
sg10
S'LGW'
p1883
ssS'322'
p1884
(dp1885
g4
S'CTU'
p1886
sg6
I2
sg7
I4
sg8
I6
sg9
I01
sg10
S'LGW'
p1887
ssS'323'
p1888
(dp1889
g4
S'MUC'
p1890
sg6
I1
sg7
I4
sg8
I5
sg9
I01
sg10
S'MCO'
p1891
ssS'320'
p1892
(dp1893
g4
S'SEA'
p1894
sg6
I1
sg7
I4
sg8
I5
sg9
I00
sg10
S'LGW'
p1895
ssS'321'
p1896
(dp1897
g4
S'FCO'
p1898
sg6
I2
sg7
I2
sg8
I6
sg9
I01
sg10
S'MCO'
p1899
ssS'326'
p1900
(dp1901
g4
S'CTU'
p1902
sg6
I1
sg7
I4
sg8
I5
sg9
I00
sg10
S'BCN'
p1903
ssS'327'
p1904
(dp1905
g4
S'BOM'
p1906
sg6
I2
sg7
I2
sg8
I3
sg9
I01
sg10
S'SYD'
p1907
ssS'324'
p1908
(dp1909
g4
S'MUC'
p1910
sg6
I0
sg7
I2
sg8
I4
sg9
I00
sg10
S'SZX'
p1911
ssS'325'
p1912
(dp1913
g4
S'CTU'
p1914
sg6
I2
sg7
I1
sg8
I3
sg9
I01
sg10
S'SZX'
p1915
ssS'328'
p1916
(dp1917
g4
S'SEA'
p1918
sg6
I0
sg7
I3
sg8
I6
sg9
I00
sg10
S'BCN'
p1919
ssS'329'
p1920
(dp1921
g4
S'YYZ'
p1922
sg6
I1
sg7
I3
sg8
I6
sg9
I01
sg10
S'SHA'
p1923
ssS'759'
p1924
(dp1925
g4
S'SEA'
p1926
sg6
I1
sg7
I3
sg8
I4
sg9
I01
sg10
S'MCO'
p1927
ssS'201'
p1928
(dp1929
g4
S'MUC'
p1930
sg6
I0
sg7
I1
sg8
I5
sg9
I00
sg10
S'GRU'
p1931
ssS'200'
p1932
(dp1933
g4
S'YYZ'
p1934
sg6
I1
sg7
I2
sg8
I5
sg9
I01
sg10
S'SYD'
p1935
ssS'203'
p1936
(dp1937
g4
S'MUC'
p1938
sg6
I1
sg7
I3
sg8
I6
sg9
I00
sg10
S'BCN'
p1939
ssS'202'
p1940
(dp1941
g4
S'BOM'
p1942
sg6
I0
sg7
I4
sg8
I6
sg9
I00
sg10
S'LGW'
p1943
ssS'205'
p1944
(dp1945
g4
S'YYZ'
p1946
sg6
I1
sg7
I4
sg8
I4
sg9
I01
sg10
S'SHA'
p1947
ssS'204'
p1948
(dp1949
g4
S'FCO'
p1950
sg6
I1
sg7
I2
sg8
I4
sg9
I00
sg10
S'SHA'
p1951
ssS'207'
p1952
(dp1953
g4
S'FCO'
p1954
sg6
I0
sg7
I2
sg8
I3
sg9
I01
sg10
S'SZX'
p1955
ssS'206'
p1956
(dp1957
g4
S'FCO'
p1958
sg6
I0
sg7
I1
sg8
I6
sg9
I00
sg10
S'MCO'
p1959
ssS'209'
p1960
(dp1961
g4
S'BOM'
p1962
sg6
I2
sg7
I2
sg8
I4
sg9
I00
sg10
S'SYD'
p1963
ssS'208'
p1964
(dp1965
g4
S'YYZ'
p1966
sg6
I2
sg7
I2
sg8
I5
sg9
I00
sg10
S'SZX'
p1967
ssS'779'
p1968
(dp1969
g4
S'YYZ'
p1970
sg6
I2
sg7
I3
sg8
I5
sg9
I00
sg10
S'SZX'
p1971
ssS'778'
p1972
(dp1973
g4
S'YYZ'
p1974
sg6
I0
sg7
I1
sg8
I4
sg9
I01
sg10
S'MCO'
p1975
ssS'889'
p1976
(dp1977
g4
S'BOM'
p1978
sg6
I2
sg7
I3
sg8
I6
sg9
I00
sg10
S'SZX'
p1979
ssS'77'
p1980
(dp1981
g4
S'BOM'
p1982
sg6
I1
sg7
I4
sg8
I6
sg9
I01
sg10
S'GRU'
p1983
ssS'76'
p1984
(dp1985
g4
S'FCO'
p1986
sg6
I2
sg7
I4
sg8
I6
sg9
I00
sg10
S'SZX'
p1987
ssS'75'
p1988
(dp1989
g4
S'FCO'
p1990
sg6
I0
sg7
I4
sg8
I4
sg9
I01
sg10
S'SYD'
p1991
ssS'74'
p1992
(dp1993
g4
S'YYZ'
p1994
sg6
I2
sg7
I3
sg8
I4
sg9
I01
sg10
S'GRU'
p1995
ssS'73'
p1996
(dp1997
g4
S'SEA'
p1998
sg6
I0
sg7
I3
sg8
I6
sg9
I00
sg10
S'GRU'
p1999
ssS'72'
p2000
(dp2001
g4
S'BOM'
p2002
sg6
I1
sg7
I2
sg8
I5
sg9
I00
sg10
S'SHA'
p2003
ssS'71'
p2004
(dp2005
g4
S'SEA'
p2006
sg6
I0
sg7
I2
sg8
I3
sg9
I01
sg10
S'SYD'
p2007
ssS'70'
p2008
(dp2009
g4
S'FCO'
p2010
sg6
I0
sg7
I3
sg8
I6
sg9
I00
sg10
S'LGW'
p2011
ssS'655'
p2012
(dp2013
g4
S'FCO'
p2014
sg6
I1
sg7
I4
sg8
I3
sg9
I00
sg10
S'BCN'
p2015
ssS'79'
p2016
(dp2017
g4
S'YYZ'
p2018
sg6
I2
sg7
I1
sg8
I4
sg9
I00
sg10
S'SZX'
p2019
ssS'78'
p2020
(dp2021
g4
S'SEA'
p2022
sg6
I2
sg7
I2
sg8
I6
sg9
I01
sg10
S'GRU'
p2023
ssS'2'
(dp2024
g4
S'CTU'
p2025
sg6
I1
sg7
I3
sg8
I6
sg9
I01
sg10
S'BCN'
p2026
ssS'805'
p2027
(dp2028
g4
S'CTU'
p2029
sg6
I0
sg7
I2
sg8
I6
sg9
I01
sg10
S'SHA'
p2030
ssS'804'
p2031
(dp2032
g4
S'CTU'
p2033
sg6
I0
sg7
I2
sg8
I5
sg9
I00
sg10
S'SHA'
p2034
ssS'669'
p2035
(dp2036
g4
S'CTU'
p2037
sg6
I0
sg7
I2
sg8
I4
sg9
I01
sg10
S'BCN'
p2038
ssS'668'
p2039
(dp2040
g4
S'MUC'
p2041
sg6
I2
sg7
I2
sg8
I5
sg9
I01
sg10
S'GRU'
p2042
ssS'667'
p2043
(dp2044
g4
S'BOM'
p2045
sg6
I1
sg7
I2
sg8
I6
sg9
I01
sg10
S'SZX'
p2046
ssS'666'
p2047
(dp2048
g4
S'BOM'
p2049
sg6
I2
sg7
I3
sg8
I3
sg9
I01
sg10
S'MCO'
p2050
ssS'665'
p2051
(dp2052
g4
S'FCO'
p2053
sg6
I1
sg7
I1
sg8
I5
sg9
I01
sg10
S'SHA'
p2054
ssS'664'
p2055
(dp2056
g4
S'SEA'
p2057
sg6
I2
sg7
I2
sg8
I5
sg9
I00
sg10
S'MCO'
p2058
ssS'663'
p2059
(dp2060
g4
S'YYZ'
p2061
sg6
I0
sg7
I4
sg8
I3
sg9
I01
sg10
S'LGW'
p2062
ssS'662'
p2063
(dp2064
g4
S'YYZ'
p2065
sg6
I1
sg7
I3
sg8
I5
sg9
I00
sg10
S'SHA'
p2066
ssS'661'
p2067
(dp2068
g4
S'MUC'
p2069
sg6
I2
sg7
I4
sg8
I6
sg9
I01
sg10
S'BCN'
p2070
ssS'660'
p2071
(dp2072
g4
S'YYZ'
p2073
sg6
I2
sg7
I1
sg8
I4
sg9
I01
sg10
S'GRU'
p2074
ssS'769'
p2075
(dp2076
g4
S'SEA'
p2077
sg6
I0
sg7
I1
sg8
I5
sg9
I01
sg10
S'BCN'
p2078
ssS'692'
p2079
(dp2080
g4
S'SEA'
p2081
sg6
I1
sg7
I3
sg8
I6
sg9
I01
sg10
S'SHA'
p2082
ssS'693'
p2083
(dp2084
g4
S'CTU'
p2085
sg6
I1
sg7
I1
sg8
I4
sg9
I01
sg10
S'GRU'
p2086
ssS'690'
p2087
(dp2088
g4
S'SEA'
p2089
sg6
I1
sg7
I3
sg8
I4
sg9
I01
sg10
S'GRU'
p2090
ssS'691'
p2091
(dp2092
g4
S'CTU'
p2093
sg6
I2
sg7
I4
sg8
I4
sg9
I00
sg10
S'BCN'
p2094
ssS'696'
p2095
(dp2096
g4
S'BOM'
p2097
sg6
I1
sg7
I3
sg8
I6
sg9
I00
sg10
S'SHA'
p2098
ssS'697'
p2099
(dp2100
g4
S'FCO'
p2101
sg6
I1
sg7
I3
sg8
I4
sg9
I01
sg10
S'BCN'
p2102
ssS'694'
p2103
(dp2104
g4
S'FCO'
p2105
sg6
I1
sg7
I1
sg8
I6
sg9
I01
sg10
S'MCO'
p2106
ssS'695'
p2107
(dp2108
g4
S'CTU'
p2109
sg6
I1
sg7
I3
sg8
I6
sg9
I01
sg10
S'SYD'
p2110
ssS'698'
p2111
(dp2112
g4
S'BOM'
p2113
sg6
I0
sg7
I3
sg8
I4
sg9
I00
sg10
S'SYD'
p2114
ssS'699'
p2115
(dp2116
g4
S'CTU'
p2117
sg6
I0
sg7
I1
sg8
I3
sg9
I01
sg10
S'BCN'
p2118
ssS'542'
p2119
(dp2120
g4
S'YYZ'
p2121
sg6
I0
sg7
I3
sg8
I3
sg9
I00
sg10
S'GRU'
p2122
ssS'543'
p2123
(dp2124
g4
S'MUC'
p2125
sg6
I0
sg7
I3
sg8
I3
sg9
I01
sg10
S'SYD'
p2126
ssS'540'
p2127
(dp2128
g4
S'CTU'
p2129
sg6
I1
sg7
I1
sg8
I4
sg9
I01
sg10
S'GRU'
p2130
ssS'541'
p2131
(dp2132
g4
S'YYZ'
p2133
sg6
I1
sg7
I4
sg8
I4
sg9
I00
sg10
S'BCN'
p2134
ssS'546'
p2135
(dp2136
g4
S'MUC'
p2137
sg6
I2
sg7
I4
sg8
I3
sg9
I01
sg10
S'SYD'
p2138
ssS'547'
p2139
(dp2140
g4
S'CTU'
p2141
sg6
I1
sg7
I1
sg8
I3
sg9
I01
sg10
S'BCN'
p2142
ssS'544'
p2143
(dp2144
g4
S'CTU'
p2145
sg6
I1
sg7
I1
sg8
I5
sg9
I00
sg10
S'SYD'
p2146
ssS'545'
p2147
(dp2148
g4
S'MUC'
p2149
sg6
I0
sg7
I3
sg8
I3
sg9
I00
sg10
S'LGW'
p2150
ssS'8'
(dp2151
g4
S'CTU'
p2152
sg6
I2
sg7
I3
sg8
I4
sg9
I00
sg10
S'LGW'
p2153
ssS'548'
p2154
(dp2155
g4
S'CTU'
p2156
sg6
I0
sg7
I2
sg8
I6
sg9
I00
sg10
S'MCO'
p2157
ssS'549'
p2158
(dp2159
g4
S'CTU'
p2160
sg6
I2
sg7
I2
sg8
I3
sg9
I00
sg10
S'BCN'
p2161
ssS'68'
p2162
(dp2163
g4
S'MUC'
p2164
sg6
I1
sg7
I1
sg8
I4
sg9
I00
sg10
S'BCN'
p2165
ssS'598'
p2166
(dp2167
g4
S'CTU'
p2168
sg6
I2
sg7
I4
sg8
I3
sg9
I00
sg10
S'BCN'
p2169
ssS'995'
p2170
(dp2171
g4
S'FCO'
p2172
sg6
I2
sg7
I2
sg8
I5
sg9
I01
sg10
S'SHA'
p2173
ssS'869'
p2174
(dp2175
g4
S'CTU'
p2176
sg6
I0
sg7
I4
sg8
I6
sg9
I01
sg10
S'SZX'
p2177
ssS'997'
p2178
(dp2179
g4
S'BOM'
p2180
sg6
I0
sg7
I1
sg8
I4
sg9
I01
sg10
S'LGW'
p2181
ssS'996'
p2182
(dp2183
g4
S'BOM'
p2184
sg6
I0
sg7
I1
sg8
I3
sg9
I00
sg10
S'MCO'
p2185
ssS'991'
p2186
(dp2187
g4
S'CTU'
p2188
sg6
I2
sg7
I2
sg8
I5
sg9
I00
sg10
S'GRU'
p2189
ssS'990'
p2190
(dp2191
g4
S'FCO'
p2192
sg6
I1
sg7
I2
sg8
I4
sg9
I01
sg10
S'SYD'
p2193
ssS'993'
p2194
(dp2195
g4
S'YYZ'
p2196
sg6
I2
sg7
I4
sg8
I6
sg9
I01
sg10
S'SYD'
p2197
ssS'868'
p2198
(dp2199
g4
S'FCO'
p2200
sg6
I1
sg7
I4
sg8
I5
sg9
I00
sg10
S'LGW'
p2201
ssS'999'
p2202
(dp2203
g4
S'CTU'
p2204
sg6
I1
sg7
I2
sg8
I3
sg9
I00
sg10
S'LGW'
p2205
ssS'998'
p2206
(dp2207
g4
S'FCO'
p2208
sg6
I1
sg7
I3
sg8
I5
sg9
I00
sg10
S'LGW'
p2209
ssS'120'
p2210
(dp2211
g4
S'BOM'
p2212
sg6
I2
sg7
I1
sg8
I3
sg9
I01
sg10
S'SYD'
p2213
ssS'121'
p2214
(dp2215
g4
S'SEA'
p2216
sg6
I1
sg7
I4
sg8
I5
sg9
I00
sg10
S'SHA'
p2217
ssS'122'
p2218
(dp2219
g4
S'BOM'
p2220
sg6
I2
sg7
I1
sg8
I6
sg9
I00
sg10
S'LGW'
p2221
ssS'123'
p2222
(dp2223
g4
S'FCO'
p2224
sg6
I1
sg7
I4
sg8
I3
sg9
I01
sg10
S'LGW'
p2225
ssS'124'
p2226
(dp2227
g4
S'YYZ'
p2228
sg6
I1
sg7
I3
sg8
I3
sg9
I00
sg10
S'LGW'
p2229
ssS'125'
p2230
(dp2231
g4
S'FCO'
p2232
sg6
I0
sg7
I4
sg8
I4
sg9
I01
sg10
S'SHA'
p2233
ssS'126'
p2234
(dp2235
g4
S'FCO'
p2236
sg6
I0
sg7
I4
sg8
I5
sg9
I00
sg10
S'GRU'
p2237
ssS'127'
p2238
(dp2239
g4
S'YYZ'
p2240
sg6
I0
sg7
I4
sg8
I5
sg9
I00
sg10
S'GRU'
p2241
ssS'128'
p2242
(dp2243
g4
S'SEA'
p2244
sg6
I1
sg7
I2
sg8
I4
sg9
I01
sg10
S'BCN'
p2245
ssS'129'
p2246
(dp2247
g4
S'YYZ'
p2248
sg6
I2
sg7
I3
sg8
I6
sg9
I00
sg10
S'SZX'
p2249
ssS'765'
p2250
(dp2251
g4
S'FCO'
p2252
sg6
I2
sg7
I3
sg8
I5
sg9
I01
sg10
S'BCN'
p2253
ssS'69'
p2254
(dp2255
g4
S'FCO'
p2256
sg6
I2
sg7
I1
sg8
I6
sg9
I00
sg10
S'BCN'
p2257
ssS'414'
p2258
(dp2259
g4
S'CTU'
p2260
sg6
I2
sg7
I2
sg8
I6
sg9
I01
sg10
S'GRU'
p2261
ssS'415'
p2262
(dp2263
g4
S'FCO'
p2264
sg6
I0
sg7
I2
sg8
I3
sg9
I00
sg10
S'SZX'
p2265
ssS'416'
p2266
(dp2267
g4
S'BOM'
p2268
sg6
I0
sg7
I2
sg8
I4
sg9
I01
sg10
S'LGW'
p2269
ssS'417'
p2270
(dp2271
g4
S'CTU'
p2272
sg6
I0
sg7
I2
sg8
I3
sg9
I01
sg10
S'BCN'
p2273
ssS'410'
p2274
(dp2275
g4
S'MUC'
p2276
sg6
I0
sg7
I2
sg8
I6
sg9
I00
sg10
S'BCN'
p2277
ssS'411'
p2278
(dp2279
g4
S'YYZ'
p2280
sg6
I1
sg7
I1
sg8
I4
sg9
I00
sg10
S'GRU'
p2281
ssS'412'
p2282
(dp2283
g4
S'YYZ'
p2284
sg6
I2
sg7
I2
sg8
I5
sg9
I01
sg10
S'SZX'
p2285
ssS'413'
p2286
(dp2287
g4
S'SEA'
p2288
sg6
I1
sg7
I4
sg8
I3
sg9
I00
sg10
S'SHA'
p2289
ssS'920'
p2290
(dp2291
g4
S'MUC'
p2292
sg6
I0
sg7
I2
sg8
I5
sg9
I01
sg10
S'LGW'
p2293
ssS'498'
p2294
(dp2295
g4
S'CTU'
p2296
sg6
I1
sg7
I2
sg8
I3
sg9
I00
sg10
S'GRU'
p2297
ssS'922'
p2298
(dp2299
g4
S'YYZ'
p2300
sg6
I1
sg7
I1
sg8
I6
sg9
I00
sg10
S'BCN'
p2301
ssS'923'
p2302
(dp2303
g4
S'BOM'
p2304
sg6
I2
sg7
I4
sg8
I4
sg9
I01
sg10
S'MCO'
p2305
ssS'418'
p2306
(dp2307
g4
S'CTU'
p2308
sg6
I2
sg7
I1
sg8
I4
sg9
I01
sg10
S'MCO'
p2309
ssS'419'
p2310
(dp2311
g4
S'SEA'
p2312
sg6
I2
sg7
I3
sg8
I6
sg9
I01
sg10
S'SHA'
p2313
ssS'776'
p2314
(dp2315
g4
S'MUC'
p2316
sg6
I1
sg7
I1
sg8
I4
sg9
I01
sg10
S'SHA'
p2317
ssS'499'
p2318
(dp2319
g4
S'MUC'
p2320
sg6
I0
sg7
I3
sg8
I3
sg9
I00
sg10
S'GRU'
p2321
ssS'319'
p2322
(dp2323
g4
S'MUC'
p2324
sg6
I2
sg7
I2
sg8
I4
sg9
I00
sg10
S'SHA'
p2325
ssS'318'
p2326
(dp2327
g4
S'MUC'
p2328
sg6
I2
sg7
I3
sg8
I4
sg9
I01
sg10
S'BCN'
p2329
ssS'313'
p2330
(dp2331
g4
S'YYZ'
p2332
sg6
I0
sg7
I4
sg8
I4
sg9
I00
sg10
S'LGW'
p2333
ssS'312'
p2334
(dp2335
g4
S'SEA'
p2336
sg6
I0
sg7
I1
sg8
I5
sg9
I01
sg10
S'SZX'
p2337
ssS'311'
p2338
(dp2339
g4
S'FCO'
p2340
sg6
I2
sg7
I2
sg8
I6
sg9
I00
sg10
S'MCO'
p2341
ssS'310'
p2342
(dp2343
g4
S'FCO'
p2344
sg6
I0
sg7
I1
sg8
I5
sg9
I01
sg10
S'LGW'
p2345
ssS'317'
p2346
(dp2347
g4
S'SEA'
p2348
sg6
I2
sg7
I2
sg8
I4
sg9
I00
sg10
S'SYD'
p2349
ssS'316'
p2350
(dp2351
g4
S'FCO'
p2352
sg6
I2
sg7
I2
sg8
I6
sg9
I00
sg10
S'MCO'
p2353
ssS'315'
p2354
(dp2355
g4
S'SEA'
p2356
sg6
I1
sg7
I3
sg8
I5
sg9
I00
sg10
S'SZX'
p2357
ssS'314'
p2358
(dp2359
g4
S'MUC'
p2360
sg6
I2
sg7
I1
sg8
I3
sg9
I01
sg10
S'BCN'
p2361
ssS'861'
p2362
(dp2363
g4
S'SEA'
p2364
sg6
I1
sg7
I2
sg8
I6
sg9
I00
sg10
S'BCN'
p2365
ssS'921'
p2366
(dp2367
g4
S'SEA'
p2368
sg6
I0
sg7
I1
sg8
I5
sg9
I01
sg10
S'MCO'
p2369
ssS'496'
p2370
(dp2371
g4
S'FCO'
p2372
sg6
I1
sg7
I1
sg8
I6
sg9
I00
sg10
S'SYD'
p2373
ssS'832'
p2374
(dp2375
g4
S'YYZ'
p2376
sg6
I0
sg7
I3
sg8
I4
sg9
I00
sg10
S'SYD'
p2377
ssS'833'
p2378
(dp2379
g4
S'SEA'
p2380
sg6
I0
sg7
I3
sg8
I5
sg9
I00
sg10
S'GRU'
p2381
ssS'830'
p2382
(dp2383
g4
S'BOM'
p2384
sg6
I1
sg7
I2
sg8
I3
sg9
I01
sg10
S'LGW'
p2385
ssS'497'
p2386
(dp2387
g4
S'SEA'
p2388
sg6
I1
sg7
I4
sg8
I6
sg9
I01
sg10
S'SYD'
p2389
ssS'836'
p2390
(dp2391
g4
S'MUC'
p2392
sg6
I2
sg7
I2
sg8
I3
sg9
I00
sg10
S'SZX'
p2393
ssS'837'
p2394
(dp2395
g4
S'FCO'
p2396
sg6
I0
sg7
I3
sg8
I4
sg9
I00
sg10
S'SHA'
p2397
ssS'834'
p2398
(dp2399
g4
S'YYZ'
p2400
sg6
I1
sg7
I3
sg8
I3
sg9
I01
sg10
S'MCO'
p2401
ssS'835'
p2402
(dp2403
g4
S'YYZ'
p2404
sg6
I2
sg7
I1
sg8
I4
sg9
I01
sg10
S'SHA'
p2405
ssS'838'
p2406
(dp2407
g4
S'CTU'
p2408
sg6
I0
sg7
I2
sg8
I6
sg9
I00
sg10
S'SZX'
p2409
ssS'839'
p2410
(dp2411
g4
S'FCO'
p2412
sg6
I0
sg7
I2
sg8
I4
sg9
I00
sg10
S'GRU'
p2413
ssS'808'
p2414
(dp2415
g4
S'MUC'
p2416
sg6
I0
sg7
I1
sg8
I6
sg9
I01
sg10
S'GRU'
p2417
ssS'3'
(dp2418
g4
S'CTU'
p2419
sg6
I0
sg7
I4
sg8
I3
sg9
I01
sg10
S'LGW'
p2420
ssS'368'
p2421
(dp2422
g4
S'SEA'
p2423
sg6
I1
sg7
I2
sg8
I3
sg9
I01
sg10
S'GRU'
p2424
ssS'369'
p2425
(dp2426
g4
S'YYZ'
p2427
sg6
I2
sg7
I2
sg8
I5
sg9
I01
sg10
S'SYD'
p2428
ssS'366'
p2429
(dp2430
g4
S'CTU'
p2431
sg6
I2
sg7
I3
sg8
I6
sg9
I01
sg10
S'MCO'
p2432
ssS'367'
p2433
(dp2434
g4
S'SEA'
p2435
sg6
I1
sg7
I3
sg8
I5
sg9
I00
sg10
S'GRU'
p2436
ssS'364'
p2437
(dp2438
g4
S'FCO'
p2439
sg6
I2
sg7
I2
sg8
I6
sg9
I00
sg10
S'SHA'
p2440
ssS'365'
p2441
(dp2442
g4
S'FCO'
p2443
sg6
I0
sg7
I2
sg8
I3
sg9
I00
sg10
S'LGW'
p2444
ssS'362'
p2445
(dp2446
g4
S'SEA'
p2447
sg6
I1
sg7
I2
sg8
I6
sg9
I01
sg10
S'SZX'
p2448
ssS'363'
p2449
(dp2450
g4
S'CTU'
p2451
sg6
I1
sg7
I1
sg8
I5
sg9
I01
sg10
S'MCO'
p2452
ssS'360'
p2453
(dp2454
g4
S'BOM'
p2455
sg6
I2
sg7
I2
sg8
I6
sg9
I00
sg10
S'SYD'
p2456
ssS'361'
p2457
(dp2458
g4
S'YYZ'
p2459
sg6
I1
sg7
I1
sg8
I3
sg9
I00
sg10
S'SZX'
p2460
ssS'959'
p2461
(dp2462
g4
S'CTU'
p2463
sg6
I0
sg7
I4
sg8
I4
sg9
I01
sg10
S'LGW'
p2464
ssS'952'
p2465
(dp2466
g4
S'BOM'
p2467
sg6
I2
sg7
I4
sg8
I4
sg9
I00
sg10
S'SHA'
p2468
ssS'882'
p2469
(dp2470
g4
S'SEA'
p2471
sg6
I2
sg7
I4
sg8
I4
sg9
I00
sg10
S'SYD'
p2472
ssS'380'
p2473
(dp2474
g4
S'YYZ'
p2475
sg6
I1
sg7
I2
sg8
I3
sg9
I01
sg10
S'GRU'
p2476
ssS'381'
p2477
(dp2478
g4
S'CTU'
p2479
sg6
I0
sg7
I3
sg8
I4
sg9
I01
sg10
S'SHA'
p2480
ssS'382'
p2481
(dp2482
g4
S'YYZ'
p2483
sg6
I0
sg7
I4
sg8
I4
sg9
I01
sg10
S'SHA'
p2484
ssS'383'
p2485
(dp2486
g4
S'BOM'
p2487
sg6
I2
sg7
I3
sg8
I6
sg9
I00
sg10
S'SHA'
p2488
ssS'384'
p2489
(dp2490
g4
S'YYZ'
p2491
sg6
I1
sg7
I3
sg8
I5
sg9
I01
sg10
S'MCO'
p2492
ssS'385'
p2493
(dp2494
g4
S'SEA'
p2495
sg6
I0
sg7
I3
sg8
I4
sg9
I01
sg10
S'GRU'
p2496
ssS'386'
p2497
(dp2498
g4
S'FCO'
p2499
sg6
I1
sg7
I2
sg8
I5
sg9
I00
sg10
S'SZX'
p2500
ssS'387'
p2501
(dp2502
g4
S'BOM'
p2503
sg6
I2
sg7
I4
sg8
I4
sg9
I00
sg10
S'SZX'
p2504
ssS'388'
p2505
(dp2506
g4
S'BOM'
p2507
sg6
I2
sg7
I4
sg8
I4
sg9
I00
sg10
S'SYD'
p2508
ssS'389'
p2509
(dp2510
g4
S'SEA'
p2511
sg6
I2
sg7
I4
sg8
I5
sg9
I00
sg10
S'GRU'
p2512
ssS'784'
p2513
(dp2514
g4
S'FCO'
p2515
sg6
I0
sg7
I1
sg8
I5
sg9
I00
sg10
S'MCO'
p2516
ssS'785'
p2517
(dp2518
g4
S'SEA'
p2519
sg6
I0
sg7
I1
sg8
I5
sg9
I01
sg10
S'LGW'
p2520
ssS'786'
p2521
(dp2522
g4
S'SEA'
p2523
sg6
I1
sg7
I3
sg8
I4
sg9
I00
sg10
S'SYD'
p2524
ssS'787'
p2525
(dp2526
g4
S'MUC'
p2527
sg6
I1
sg7
I3
sg8
I5
sg9
I00
sg10
S'SHA'
p2528
ssS'780'
p2529
(dp2530
g4
S'BOM'
p2531
sg6
I1
sg7
I3
sg8
I3
sg9
I00
sg10
S'SYD'
p2532
ssS'781'
p2533
(dp2534
g4
S'YYZ'
p2535
sg6
I2
sg7
I1
sg8
I3
sg9
I01
sg10
S'MCO'
p2536
ssS'782'
p2537
(dp2538
g4
S'FCO'
p2539
sg6
I2
sg7
I2
sg8
I6
sg9
I00
sg10
S'BCN'
p2540
ssS'783'
p2541
(dp2542
g4
S'BOM'
p2543
sg6
I2
sg7
I1
sg8
I6
sg9
I01
sg10
S'SHA'
p2544
ssS'788'
p2545
(dp2546
g4
S'YYZ'
p2547
sg6
I2
sg7
I4
sg8
I6
sg9
I00
sg10
S'SYD'
p2548
ssS'789'
p2549
(dp2550
g4
S'SEA'
p2551
sg6
I0
sg7
I3
sg8
I6
sg9
I00
sg10
S'BCN'
p2552
ssS'860'
p2553
(dp2554
g4
S'YYZ'
p2555
sg6
I1
sg7
I3
sg8
I3
sg9
I00
sg10
S'SZX'
p2556
ssS'605'
p2557
(dp2558
g4
S'MUC'
p2559
sg6
I2
sg7
I2
sg8
I4
sg9
I00
sg10
S'BCN'
p2560
ssS'579'
p2561
(dp2562
g4
S'YYZ'
p2563
sg6
I0
sg7
I2
sg8
I4
sg9
I00
sg10
S'GRU'
p2564
ssS'578'
p2565
(dp2566
g4
S'CTU'
p2567
sg6
I1
sg7
I2
sg8
I4
sg9
I01
sg10
S'SZX'
p2568
ssS'604'
p2569
(dp2570
g4
S'BOM'
p2571
sg6
I1
sg7
I3
sg8
I3
sg9
I00
sg10
S'SYD'
p2572
ssS'573'
p2573
(dp2574
g4
S'MUC'
p2575
sg6
I2
sg7
I3
sg8
I4
sg9
I01
sg10
S'SHA'
p2576
ssS'572'
p2577
(dp2578
g4
S'FCO'
p2579
sg6
I1
sg7
I2
sg8
I4
sg9
I01
sg10
S'SHA'
p2580
ssS'571'
p2581
(dp2582
g4
S'FCO'
p2583
sg6
I2
sg7
I2
sg8
I4
sg9
I00
sg10
S'LGW'
p2584
ssS'570'
p2585
(dp2586
g4
S'YYZ'
p2587
sg6
I1
sg7
I1
sg8
I6
sg9
I00
sg10
S'LGW'
p2588
ssS'577'
p2589
(dp2590
g4
S'FCO'
p2591
sg6
I0
sg7
I2
sg8
I3
sg9
I01
sg10
S'SYD'
p2592
ssS'576'
p2593
(dp2594
g4
S'BOM'
p2595
sg6
I1
sg7
I3
sg8
I4
sg9
I00
sg10
S'MCO'
p2596
ssS'575'
p2597
(dp2598
g4
S'CTU'
p2599
sg6
I0
sg7
I1
sg8
I4
sg9
I01
sg10
S'GRU'
p2600
ssS'574'
p2601
(dp2602
g4
S'CTU'
p2603
sg6
I2
sg7
I4
sg8
I3
sg9
I01
sg10
S'SHA'
p2604
ssS'60'
p2605
(dp2606
g4
S'CTU'
p2607
sg6
I2
sg7
I2
sg8
I3
sg9
I00
sg10
S'SHA'
p2608
ssS'61'
p2609
(dp2610
g4
S'SEA'
p2611
sg6
I0
sg7
I3
sg8
I5
sg9
I00
sg10
S'SHA'
p2612
ssS'258'
p2613
(dp2614
g4
S'MUC'
p2615
sg6
I1
sg7
I3
sg8
I5
sg9
I00
sg10
S'BCN'
p2616
ssS'259'
p2617
(dp2618
g4
S'FCO'
p2619
sg6
I1
sg7
I1
sg8
I4
sg9
I01
sg10
S'SHA'
p2620
ssS'64'
p2621
(dp2622
g4
S'SEA'
p2623
sg6
I2
sg7
I1
sg8
I3
sg9
I01
sg10
S'SZX'
p2624
ssS'65'
p2625
(dp2626
g4
S'CTU'
p2627
sg6
I2
sg7
I2
sg8
I4
sg9
I01
sg10
S'GRU'
p2628
ssS'66'
p2629
(dp2630
g4
S'YYZ'
p2631
sg6
I0
sg7
I2
sg8
I6
sg9
I01
sg10
S'SZX'
p2632
ssS'67'
p2633
(dp2634
g4
S'YYZ'
p2635
sg6
I1
sg7
I2
sg8
I3
sg9
I01
sg10
S'SZX'
p2636
ssS'252'
p2637
(dp2638
g4
S'FCO'
p2639
sg6
I2
sg7
I3
sg8
I6
sg9
I01
sg10
S'BCN'
p2640
ssS'253'
p2641
(dp2642
g4
S'YYZ'
p2643
sg6
I1
sg7
I1
sg8
I4
sg9
I01
sg10
S'MCO'
p2644
ssS'250'
p2645
(dp2646
g4
S'CTU'
p2647
sg6
I1
sg7
I4
sg8
I4
sg9
I01
sg10
S'LGW'
p2648
ssS'251'
p2649
(dp2650
g4
S'FCO'
p2651
sg6
I0
sg7
I3
sg8
I3
sg9
I00
sg10
S'GRU'
p2652
ssS'256'
p2653
(dp2654
g4
S'YYZ'
p2655
sg6
I1
sg7
I2
sg8
I3
sg9
I00
sg10
S'SYD'
p2656
ssS'257'
p2657
(dp2658
g4
S'SEA'
p2659
sg6
I2
sg7
I4
sg8
I6
sg9
I00
sg10
S'MCO'
p2660
ssS'254'
p2661
(dp2662
g4
S'SEA'
p2663
sg6
I1
sg7
I2
sg8
I5
sg9
I00
sg10
S'MCO'
p2664
ssS'255'
p2665
(dp2666
g4
S'BOM'
p2667
sg6
I2
sg7
I1
sg8
I5
sg9
I00
sg10
S'GRU'
p2668
ssS'603'
p2669
(dp2670
g4
S'BOM'
p2671
sg6
I1
sg7
I3
sg8
I5
sg9
I01
sg10
S'BCN'
p2672
ssS'602'
p2673
(dp2674
g4
S'YYZ'
p2675
sg6
I0
sg7
I3
sg8
I4
sg9
I00
sg10
S'SZX'
p2676
ssS'939'
p2677
(dp2678
g4
S'FCO'
p2679
sg6
I1
sg7
I4
sg8
I3
sg9
I01
sg10
S'MCO'
p2680
ssS'731'
p2681
(dp2682
g4
S'FCO'
p2683
sg6
I1
sg7
I4
sg8
I3
sg9
I00
sg10
S'SYD'
p2684
ssS'730'
p2685
(dp2686
g4
S'MUC'
p2687
sg6
I0
sg7
I1
sg8
I3
sg9
I00
sg10
S'SHA'
p2688
ssS'733'
p2689
(dp2690
g4
S'FCO'
p2691
sg6
I2
sg7
I4
sg8
I3
sg9
I01
sg10
S'MCO'
p2692
ssS'732'
p2693
(dp2694
g4
S'YYZ'
p2695
sg6
I2
sg7
I2
sg8
I5
sg9
I01
sg10
S'SHA'
p2696
ssS'735'
p2697
(dp2698
g4
S'MUC'
p2699
sg6
I1
sg7
I4
sg8
I4
sg9
I01
sg10
S'BCN'
p2700
ssS'734'
p2701
(dp2702
g4
S'FCO'
p2703
sg6
I0
sg7
I1
sg8
I3
sg9
I00
sg10
S'SHA'
p2704
ssS'508'
p2705
(dp2706
g4
S'FCO'
p2707
sg6
I0
sg7
I2
sg8
I4
sg9
I01
sg10
S'GRU'
p2708
ssS'509'
p2709
(dp2710
g4
S'CTU'
p2711
sg6
I2
sg7
I4
sg8
I4
sg9
I01
sg10
S'SZX'
p2712
ssS'506'
p2713
(dp2714
g4
S'FCO'
p2715
sg6
I2
sg7
I4
sg8
I4
sg9
I00
sg10
S'LGW'
p2716
ssS'507'
p2717
(dp2718
g4
S'CTU'
p2719
sg6
I2
sg7
I3
sg8
I5
sg9
I01
sg10
S'SHA'
p2720
ssS'504'
p2721
(dp2722
g4
S'CTU'
p2723
sg6
I1
sg7
I2
sg8
I6
sg9
I01
sg10
S'BCN'
p2724
ssS'505'
p2725
(dp2726
g4
S'YYZ'
p2727
sg6
I2
sg7
I1
sg8
I3
sg9
I01
sg10
S'SYD'
p2728
ssS'502'
p2729
(dp2730
g4
S'BOM'
p2731
sg6
I2
sg7
I4
sg8
I6
sg9
I01
sg10
S'GRU'
p2732
ssS'503'
p2733
(dp2734
g4
S'BOM'
p2735
sg6
I1
sg7
I3
sg8
I5
sg9
I01
sg10
S'GRU'
p2736
ssS'500'
p2737
(dp2738
g4
S'YYZ'
p2739
sg6
I2
sg7
I1
sg8
I3
sg9
I01
sg10
S'SZX'
p2740
ssS'501'
p2741
(dp2742
g4
S'SEA'
p2743
sg6
I2
sg7
I4
sg8
I4
sg9
I00
sg10
S'BCN'
p2744
ssS'630'
p2745
(dp2746
g4
S'FCO'
p2747
sg6
I2
sg7
I4
sg8
I3
sg9
I00
sg10
S'GRU'
p2748
ssS'631'
p2749
(dp2750
g4
S'FCO'
p2751
sg6
I2
sg7
I3
sg8
I3
sg9
I00
sg10
S'SZX'
p2752
ssS'632'
p2753
(dp2754
g4
S'YYZ'
p2755
sg6
I1
sg7
I3
sg8
I6
sg9
I01
sg10
S'GRU'
p2756
ssS'633'
p2757
(dp2758
g4
S'BOM'
p2759
sg6
I1
sg7
I4
sg8
I6
sg9
I01
sg10
S'LGW'
p2760
ssS'469'
p2761
(dp2762
g4
S'SEA'
p2763
sg6
I2
sg7
I4
sg8
I4
sg9
I01
sg10
S'GRU'
p2764
ssS'468'
p2765
(dp2766
g4
S'CTU'
p2767
sg6
I2
sg7
I4
sg8
I5
sg9
I00
sg10
S'SYD'
p2768
ssS'636'
p2769
(dp2770
g4
S'FCO'
p2771
sg6
I1
sg7
I2
sg8
I5
sg9
I01
sg10
S'GRU'
p2772
ssS'637'
p2773
(dp2774
g4
S'BOM'
p2775
sg6
I2
sg7
I4
sg8
I6
sg9
I00
sg10
S'SHA'
p2776
ssS'465'
p2777
(dp2778
g4
S'SEA'
p2779
sg6
I0
sg7
I2
sg8
I3
sg9
I01
sg10
S'GRU'
p2780
ssS'464'
p2781
(dp2782
g4
S'FCO'
p2783
sg6
I1
sg7
I3
sg8
I3
sg9
I00
sg10
S'BCN'
p2784
ssS'467'
p2785
(dp2786
g4
S'CTU'
p2787
sg6
I0
sg7
I1
sg8
I5
sg9
I01
sg10
S'LGW'
p2788
ssS'466'
p2789
(dp2790
g4
S'YYZ'
p2791
sg6
I1
sg7
I1
sg8
I3
sg9
I01
sg10
S'SYD'
p2792
ssS'461'
p2793
(dp2794
g4
S'MUC'
p2795
sg6
I0
sg7
I3
sg8
I3
sg9
I01
sg10
S'GRU'
p2796
ssS'460'
p2797
(dp2798
g4
S'YYZ'
p2799
sg6
I1
sg7
I4
sg8
I3
sg9
I00
sg10
S'SHA'
p2800
ssS'463'
p2801
(dp2802
g4
S'YYZ'
p2803
sg6
I0
sg7
I3
sg8
I3
sg9
I01
sg10
S'SZX'
p2804
ssS'462'
p2805
(dp2806
g4
S'BOM'
p2807
sg6
I0
sg7
I2
sg8
I5
sg9
I00
sg10
S'BCN'
p2808
ssS'901'
p2809
(dp2810
g4
S'FCO'
p2811
sg6
I1
sg7
I3
sg8
I4
sg9
I01
sg10
S'SHA'
p2812
ssS'168'
p2813
(dp2814
g4
S'BOM'
p2815
sg6
I1
sg7
I1
sg8
I5
sg9
I01
sg10
S'SHA'
p2816
ssS'169'
p2817
(dp2818
g4
S'BOM'
p2819
sg6
I2
sg7
I3
sg8
I5
sg9
I01
sg10
S'SHA'
p2820
ssS'164'
p2821
(dp2822
g4
S'YYZ'
p2823
sg6
I1
sg7
I3
sg8
I6
sg9
I00
sg10
S'SHA'
p2824
ssS'165'
p2825
(dp2826
g4
S'YYZ'
p2827
sg6
I2
sg7
I2
sg8
I4
sg9
I01
sg10
S'SYD'
p2828
ssS'166'
p2829
(dp2830
g4
S'YYZ'
p2831
sg6
I1
sg7
I1
sg8
I4
sg9
I00
sg10
S'SHA'
p2832
ssS'167'
p2833
(dp2834
g4
S'CTU'
p2835
sg6
I1
sg7
I4
sg8
I5
sg9
I00
sg10
S'SZX'
p2836
ssS'160'
p2837
(dp2838
g4
S'MUC'
p2839
sg6
I2
sg7
I3
sg8
I3
sg9
I00
sg10
S'SHA'
p2840
ssS'161'
p2841
(dp2842
g4
S'SEA'
p2843
sg6
I2
sg7
I4
sg8
I6
sg9
I00
sg10
S'MCO'
p2844
ssS'162'
p2845
(dp2846
g4
S'FCO'
p2847
sg6
I2
sg7
I4
sg8
I5
sg9
I00
sg10
S'SHA'
p2848
ssS'163'
p2849
(dp2850
g4
S'BOM'
p2851
sg6
I1
sg7
I4
sg8
I3
sg9
I00
sg10
S'LGW'
p2852
ssS'964'
p2853
(dp2854
g4
S'YYZ'
p2855
sg6
I2
sg7
I2
sg8
I6
sg9
I00
sg10
S'GRU'
p2856
ssS'965'
p2857
(dp2858
g4
S'SEA'
p2859
sg6
I1
sg7
I2
sg8
I4
sg9
I00
sg10
S'BCN'
p2860
ssS'966'
p2861
(dp2862
g4
S'FCO'
p2863
sg6
I1
sg7
I3
sg8
I6
sg9
I00
sg10
S'SYD'
p2864
ssS'967'
p2865
(dp2866
g4
S'BOM'
p2867
sg6
I1
sg7
I3
sg8
I6
sg9
I01
sg10
S'LGW'
p2868
ssS'960'
p2869
(dp2870
g4
S'YYZ'
p2871
sg6
I2
sg7
I4
sg8
I6
sg9
I01
sg10
S'MCO'
p2872
ssS'961'
p2873
(dp2874
g4
S'FCO'
p2875
sg6
I1
sg7
I3
sg8
I6
sg9
I00
sg10
S'SHA'
p2876
ssS'962'
p2877
(dp2878
g4
S'SEA'
p2879
sg6
I2
sg7
I2
sg8
I3
sg9
I00
sg10
S'BCN'
p2880
ssS'963'
p2881
(dp2882
g4
S'FCO'
p2883
sg6
I2
sg7
I4
sg8
I6
sg9
I01
sg10
S'MCO'
p2884
ssS'968'
p2885
(dp2886
g4
S'YYZ'
p2887
sg6
I0
sg7
I1
sg8
I5
sg9
I01
sg10
S'GRU'
p2888
ssS'969'
p2889
(dp2890
g4
S'MUC'
p2891
sg6
I2
sg7
I2
sg8
I3
sg9
I01
sg10
S'LGW'
p2892
ssS'936'
p2893
(dp2894
g4
S'BOM'
p2895
sg6
I2
sg7
I3
sg8
I4
sg9
I01
sg10
S'SZX'
p2896
ssS'935'
p2897
(dp2898
g4
S'FCO'
p2899
sg6
I1
sg7
I4
sg8
I6
sg9
I01
sg10
S'SHA'
p2900
ssS'934'
p2901
(dp2902
g4
S'BOM'
p2903
sg6
I1
sg7
I3
sg8
I6
sg9
I00
sg10
S'SZX'
p2904
ssS'908'
p2905
(dp2906
g4
S'SEA'
p2907
sg6
I0
sg7
I3
sg8
I4
sg9
I01
sg10
S'MCO'
p2908
ssS'909'
p2909
(dp2910
g4
S'MUC'
p2911
sg6
I2
sg7
I3
sg8
I6
sg9
I01
sg10
S'SZX'
p2912
ssS'600'
p2913
(dp2914
g4
S'CTU'
p2915
sg6
I0
sg7
I2
sg8
I3
sg9
I00
sg10
S'SYD'
p2916
ssS'878'
p2917
(dp2918
g4
S'YYZ'
p2919
sg6
I1
sg7
I4
sg8
I6
sg9
I01
sg10
S'GRU'
p2920
ssS'879'
p2921
(dp2922
g4
S'FCO'
p2923
sg6
I1
sg7
I3
sg8
I3
sg9
I01
sg10
S'BCN'
p2924
ssS'876'
p2925
(dp2926
g4
S'MUC'
p2927
sg6
I2
sg7
I2
sg8
I3
sg9
I00
sg10
S'SYD'
p2928
ssS'877'
p2929
(dp2930
g4
S'FCO'
p2931
sg6
I0
sg7
I1
sg8
I5
sg9
I00
sg10
S'SHA'
p2932
ssS'874'
p2933
(dp2934
g4
S'YYZ'
p2935
sg6
I2
sg7
I2
sg8
I6
sg9
I00
sg10
S'SHA'
p2936
ssS'875'
p2937
(dp2938
g4
S'FCO'
p2939
sg6
I2
sg7
I3
sg8
I6
sg9
I01
sg10
S'BCN'
p2940
ssS'872'
p2941
(dp2942
g4
S'FCO'
p2943
sg6
I2
sg7
I2
sg8
I6
sg9
I00
sg10
S'SHA'
p2944
ssS'873'
p2945
(dp2946
g4
S'YYZ'
p2947
sg6
I2
sg7
I1
sg8
I4
sg9
I00
sg10
S'BCN'
p2948
ssS'870'
p2949
(dp2950
g4
S'YYZ'
p2951
sg6
I0
sg7
I1
sg8
I4
sg9
I01
sg10
S'SYD'
p2952
ssS'871'
p2953
(dp2954
g4
S'SEA'
p2955
sg6
I0
sg7
I4
sg8
I6
sg9
I01
sg10
S'BCN'
p2956
ssS'9'
(dp2957
g4
S'YYZ'
p2958
sg6
I1
sg7
I2
sg8
I5
sg9
I01
sg10
S'SZX'
p2959
ssS'890'
p2960
(dp2961
g4
S'CTU'
p2962
sg6
I1
sg7
I3
sg8
I4
sg9
I00
sg10
S'SYD'
p2963
ssS'891'
p2964
(dp2965
g4
S'YYZ'
p2966
sg6
I0
sg7
I4
sg8
I3
sg9
I00
sg10
S'BCN'
p2967
ssS'892'
p2968
(dp2969
g4
S'MUC'
p2970
sg6
I2
sg7
I2
sg8
I6
sg9
I01
sg10
S'SYD'
p2971
ssS'893'
p2972
(dp2973
g4
S'MUC'
p2974
sg6
I0
sg7
I1
sg8
I6
sg9
I01
sg10
S'GRU'
p2975
ssS'894'
p2976
(dp2977
g4
S'FCO'
p2978
sg6
I1
sg7
I2
sg8
I6
sg9
I01
sg10
S'GRU'
p2979
ssS'647'
p2980
(dp2981
g4
S'MUC'
p2982
sg6
I0
sg7
I3
sg8
I5
sg9
I00
sg10
S'GRU'
p2983
ssS'896'
p2984
(dp2985
g4
S'YYZ'
p2986
sg6
I1
sg7
I3
sg8
I6
sg9
I00
sg10
S'MCO'
p2987
ssS'897'
p2988
(dp2989
g4
S'BOM'
p2990
sg6
I1
sg7
I3
sg8
I6
sg9
I01
sg10
S'SZX'
p2991
ssS'898'
p2992
(dp2993
g4
S'SEA'
p2994
sg6
I1
sg7
I2
sg8
I5
sg9
I01
sg10
S'BCN'
p2995
ssS'899'
p2996
(dp2997
g4
S'BOM'
p2998
sg6
I1
sg7
I3
sg8
I4
sg9
I01
sg10
S'BCN'
p2999
ssS'646'
p3000
(dp3001
g4
S'FCO'
p3002
sg6
I0
sg7
I1
sg8
I4
sg9
I01
sg10
S'SYD'
p3003
ssS'649'
p3004
(dp3005
g4
S'SEA'
p3006
sg6
I2
sg7
I1
sg8
I3
sg9
I01
sg10
S'MCO'
p3007
ssS'648'
p3008
(dp3009
g4
S'BOM'
p3010
sg6
I1
sg7
I3
sg8
I5
sg9
I00
sg10
S'SYD'
p3011
ssS'357'
p3012
(dp3013
g4
S'YYZ'
p3014
sg6
I0
sg7
I2
sg8
I5
sg9
I01
sg10
S'SHA'
p3015
ssS'356'
p3016
(dp3017
g4
S'BOM'
p3018
sg6
I1
sg7
I4
sg8
I5
sg9
I01
sg10
S'GRU'
p3019
ssS'355'
p3020
(dp3021
g4
S'SEA'
p3022
sg6
I2
sg7
I2
sg8
I6
sg9
I01
sg10
S'SZX'
p3023
ssS'354'
p3024
(dp3025
g4
S'BOM'
p3026
sg6
I1
sg7
I1
sg8
I4
sg9
I00
sg10
S'BCN'
p3027
ssS'353'
p3028
(dp3029
g4
S'FCO'
p3030
sg6
I0
sg7
I4
sg8
I4
sg9
I00
sg10
S'MCO'
p3031
ssS'352'
p3032
(dp3033
g4
S'CTU'
p3034
sg6
I1
sg7
I3
sg8
I3
sg9
I01
sg10
S'LGW'
p3035
ssS'351'
p3036
(dp3037
g4
S'BOM'
p3038
sg6
I2
sg7
I3
sg8
I5
sg9
I00
sg10
S'LGW'
p3039
ssS'350'
p3040
(dp3041
g4
S'YYZ'
p3042
sg6
I0
sg7
I1
sg8
I6
sg9
I00
sg10
S'LGW'
p3043
ssS'803'
p3044
(dp3045
g4
S'CTU'
p3046
sg6
I1
sg7
I3
sg8
I5
sg9
I01
sg10
S'BCN'
p3047
ssS'802'
p3048
(dp3049
g4
S'BOM'
p3050
sg6
I2
sg7
I2
sg8
I4
sg9
I00
sg10
S'LGW'
p3051
ssS'801'
p3052
(dp3053
g4
S'SEA'
p3054
sg6
I0
sg7
I2
sg8
I5
sg9
I01
sg10
S'SHA'
p3055
ssS'800'
p3056
(dp3057
g4
S'BOM'
p3058
sg6
I1
sg7
I4
sg8
I5
sg9
I00
sg10
S'BCN'
p3059
ssS'807'
p3060
(dp3061
g4
S'MUC'
p3062
sg6
I1
sg7
I4
sg8
I5
sg9
I01
sg10
S'SZX'
p3063
ssS'806'
p3064
(dp3065
g4
S'MUC'
p3066
sg6
I0
sg7
I3
sg8
I6
sg9
I00
sg10
S'LGW'
p3067
ssS'359'
p3068
(dp3069
g4
S'FCO'
p3070
sg6
I0
sg7
I1
sg8
I3
sg9
I00
sg10
S'SZX'
p3071
ssS'358'
p3072
(dp3073
g4
S'SEA'
p3074
sg6
I2
sg7
I2
sg8
I6
sg9
I00
sg10
S'GRU'
p3075
ssS'216'
p3076
(dp3077
g4
S'CTU'
p3078
sg6
I1
sg7
I1
sg8
I4
sg9
I01
sg10
S'SHA'
p3079
ssS'217'
p3080
(dp3081
g4
S'FCO'
p3082
sg6
I1
sg7
I1
sg8
I6
sg9
I01
sg10
S'LGW'
p3083
ssS'214'
p3084
(dp3085
g4
S'YYZ'
p3086
sg6
I0
sg7
I2
sg8
I4
sg9
I00
sg10
S'BCN'
p3087
ssS'215'
p3088
(dp3089
g4
S'YYZ'
p3090
sg6
I1
sg7
I3
sg8
I6
sg9
I00
sg10
S'GRU'
p3091
ssS'212'
p3092
(dp3093
g4
S'BOM'
p3094
sg6
I0
sg7
I1
sg8
I4
sg9
I01
sg10
S'SYD'
p3095
ssS'213'
p3096
(dp3097
g4
S'MUC'
p3098
sg6
I1
sg7
I2
sg8
I5
sg9
I01
sg10
S'SYD'
p3099
ssS'210'
p3100
(dp3101
g4
S'CTU'
p3102
sg6
I2
sg7
I1
sg8
I4
sg9
I01
sg10
S'SYD'
p3103
ssS'211'
p3104
(dp3105
g4
S'YYZ'
p3106
sg6
I1
sg7
I3
sg8
I6
sg9
I00
sg10
S'MCO'
p3107
ssS'762'
p3108
(dp3109
g4
S'BOM'
p3110
sg6
I1
sg7
I1
sg8
I4
sg9
I01
sg10
S'SHA'
p3111
ssS'763'
p3112
(dp3113
g4
S'BOM'
p3114
sg6
I2
sg7
I3
sg8
I4
sg9
I01
sg10
S'MCO'
p3115
ssS'760'
p3116
(dp3117
g4
S'CTU'
p3118
sg6
I1
sg7
I1
sg8
I5
sg9
I01
sg10
S'SZX'
p3119
ssS'761'
p3120
(dp3121
g4
S'CTU'
p3122
sg6
I2
sg7
I2
sg8
I4
sg9
I00
sg10
S'BCN'
p3123
ssS'766'
p3124
(dp3125
g4
S'FCO'
p3126
sg6
I1
sg7
I1
sg8
I4
sg9
I01
sg10
S'SZX'
p3127
ssS'767'
p3128
(dp3129
g4
S'CTU'
p3130
sg6
I0
sg7
I4
sg8
I5
sg9
I00
sg10
S'MCO'
p3131
ssS'218'
p3132
(dp3133
g4
S'CTU'
p3134
sg6
I2
sg7
I1
sg8
I6
sg9
I01
sg10
S'LGW'
p3135
ssS'219'
p3136
(dp3137
g4
S'BOM'
p3138
sg6
I0
sg7
I4
sg8
I5
sg9
I01
sg10
S'LGW'
p3139
ssS'957'
p3140
(dp3141
g4
S'FCO'
p3142
sg6
I1
sg7
I1
sg8
I4
sg9
I01
sg10
S'SZX'
p3143
ssS'956'
p3144
(dp3145
g4
S'FCO'
p3146
sg6
I1
sg7
I4
sg8
I3
sg9
I00
sg10
S'SYD'
p3147
ssS'289'
p3148
(dp3149
g4
S'MUC'
p3150
sg6
I2
sg7
I1
sg8
I4
sg9
I00
sg10
S'SHA'
p3151
ssS'288'
p3152
(dp3153
g4
S'MUC'
p3154
sg6
I2
sg7
I2
sg8
I5
sg9
I01
sg10
S'BCN'
p3155
ssS'4'
(dp3156
g4
S'CTU'
p3157
sg6
I1
sg7
I2
sg8
I4
sg9
I00
sg10
S'LGW'
p3158
ssS'281'
p3159
(dp3160
g4
S'MUC'
p3161
sg6
I2
sg7
I1
sg8
I4
sg9
I01
sg10
S'MCO'
p3162
ssS'280'
p3163
(dp3164
g4
S'BOM'
p3165
sg6
I2
sg7
I2
sg8
I3
sg9
I00
sg10
S'SYD'
p3166
ssS'283'
p3167
(dp3168
g4
S'SEA'
p3169
sg6
I0
sg7
I2
sg8
I5
sg9
I00
sg10
S'SYD'
p3170
ssS'282'
p3171
(dp3172
g4
S'YYZ'
p3173
sg6
I0
sg7
I2
sg8
I5
sg9
I01
sg10
S'SZX'
p3174
ssS'285'
p3175
(dp3176
g4
S'FCO'
p3177
sg6
I0
sg7
I3
sg8
I3
sg9
I00
sg10
S'BCN'
p3178
ssS'284'
p3179
(dp3180
g4
S'YYZ'
p3181
sg6
I0
sg7
I4
sg8
I4
sg9
I01
sg10
S'LGW'
p3182
ssS'287'
p3183
(dp3184
g4
S'YYZ'
p3185
sg6
I0
sg7
I4
sg8
I5
sg9
I01
sg10
S'SZX'
p3186
ssS'286'
p3187
(dp3188
g4
S'SEA'
p3189
sg6
I1
sg7
I3
sg8
I4
sg9
I01
sg10
S'SHA'
p3190
ssS'678'
p3191
(dp3192
g4
S'BOM'
p3193
sg6
I2
sg7
I2
sg8
I5
sg9
I00
sg10
S'BCN'
p3194
ssS'679'
p3195
(dp3196
g4
S'SEA'
p3197
sg6
I0
sg7
I1
sg8
I4
sg9
I00
sg10
S'SYD'
p3198
ssS'674'
p3199
(dp3200
g4
S'CTU'
p3201
sg6
I2
sg7
I4
sg8
I5
sg9
I00
sg10
S'SZX'
p3202
ssS'675'
p3203
(dp3204
g4
S'MUC'
p3205
sg6
I1
sg7
I2
sg8
I6
sg9
I01
sg10
S'LGW'
p3206
ssS'676'
p3207
(dp3208
g4
S'SEA'
p3209
sg6
I1
sg7
I4
sg8
I5
sg9
I00
sg10
S'MCO'
p3210
ssS'677'
p3211
(dp3212
g4
S'YYZ'
p3213
sg6
I2
sg7
I1
sg8
I6
sg9
I01
sg10
S'GRU'
p3214
ssS'670'
p3215
(dp3216
g4
S'SEA'
p3217
sg6
I1
sg7
I3
sg8
I6
sg9
I01
sg10
S'SZX'
p3218
ssS'671'
p3219
(dp3220
g4
S'BOM'
p3221
sg6
I0
sg7
I2
sg8
I3
sg9
I01
sg10
S'BCN'
p3222
ssS'672'
p3223
(dp3224
g4
S'YYZ'
p3225
sg6
I1
sg7
I1
sg8
I4
sg9
I01
sg10
S'MCO'
p3226
ssS'673'
p3227
(dp3228
g4
S'SEA'
p3229
sg6
I2
sg7
I2
sg8
I5
sg9
I00
sg10
S'SZX'
p3230
ssS'263'
p3231
(dp3232
g4
S'SEA'
p3233
sg6
I2
sg7
I4
sg8
I6
sg9
I01
sg10
S'SYD'
p3234
ssS'262'
p3235
(dp3236
g4
S'SEA'
p3237
sg6
I1
sg7
I2
sg8
I4
sg9
I01
sg10
S'LGW'
p3238
ssS'261'
p3239
(dp3240
g4
S'YYZ'
p3241
sg6
I2
sg7
I4
sg8
I5
sg9
I00
sg10
S'SZX'
p3242
ssS'260'
p3243
(dp3244
g4
S'SEA'
p3245
sg6
I2
sg7
I4
sg8
I6
sg9
I00
sg10
S'GRU'
p3246
ssS'267'
p3247
(dp3248
g4
S'MUC'
p3249
sg6
I0
sg7
I3
sg8
I3
sg9
I01
sg10
S'LGW'
p3250
ssS'266'
p3251
(dp3252
g4
S'SEA'
p3253
sg6
I2
sg7
I1
sg8
I6
sg9
I01
sg10
S'GRU'
p3254
ssS'265'
p3255
(dp3256
g4
S'YYZ'
p3257
sg6
I1
sg7
I4
sg8
I6
sg9
I01
sg10
S'BCN'
p3258
ssS'264'
p3259
(dp3260
g4
S'YYZ'
p3261
sg6
I0
sg7
I1
sg8
I6
sg9
I01
sg10
S'BCN'
p3262
ssS'269'
p3263
(dp3264
g4
S'CTU'
p3265
sg6
I1
sg7
I2
sg8
I4
sg9
I00
sg10
S'LGW'
p3266
ssS'268'
p3267
(dp3268
g4
S'SEA'
p3269
sg6
I0
sg7
I2
sg8
I4
sg9
I00
sg10
S'SZX'
p3270
ssS'701'
p3271
(dp3272
g4
S'SEA'
p3273
sg6
I0
sg7
I3
sg8
I4
sg9
I00
sg10
S'SYD'
p3274
ssS'59'
p3275
(dp3276
g4
S'MUC'
p3277
sg6
I0
sg7
I4
sg8
I4
sg9
I00
sg10
S'BCN'
p3278
ssS'58'
p3279
(dp3280
g4
S'YYZ'
p3281
sg6
I0
sg7
I3
sg8
I4
sg9
I00
sg10
S'MCO'
p3282
ssS'55'
p3283
(dp3284
g4
S'MUC'
p3285
sg6
I1
sg7
I3
sg8
I3
sg9
I01
sg10
S'GRU'
p3286
ssS'54'
p3287
(dp3288
g4
S'SEA'
p3289
sg6
I0
sg7
I3
sg8
I6
sg9
I00
sg10
S'BCN'
p3290
ssS'57'
p3291
(dp3292
g4
S'MUC'
p3293
sg6
I2
sg7
I3
sg8
I3
sg9
I01
sg10
S'SHA'
p3294
ssS'56'
p3295
(dp3296
g4
S'MUC'
p3297
sg6
I1
sg7
I4
sg8
I6
sg9
I01
sg10
S'SYD'
p3298
ssS'51'
p3299
(dp3300
g4
S'YYZ'
p3301
sg6
I2
sg7
I4
sg8
I5
sg9
I00
sg10
S'SYD'
p3302
ssS'50'
p3303
(dp3304
g4
S'CTU'
p3305
sg6
I0
sg7
I3
sg8
I5
sg9
I01
sg10
S'SYD'
p3306
ssS'53'
p3307
(dp3308
g4
S'FCO'
p3309
sg6
I0
sg7
I2
sg8
I3
sg9
I01
sg10
S'MCO'
p3310
ssS'52'
p3311
(dp3312
g4
S'CTU'
p3313
sg6
I2
sg7
I2
sg8
I6
sg9
I01
sg10
S'SZX'
p3314
ssS'537'
p3315
(dp3316
g4
S'MUC'
p3317
sg6
I2
sg7
I1
sg8
I6
sg9
I01
sg10
S'SHA'
p3318
ssS'536'
p3319
(dp3320
g4
S'SEA'
p3321
sg6
I2
sg7
I1
sg8
I4
sg9
I00
sg10
S'SYD'
p3322
ssS'535'
p3323
(dp3324
g4
S'YYZ'
p3325
sg6
I2
sg7
I4
sg8
I6
sg9
I01
sg10
S'LGW'
p3326
ssS'534'
p3327
(dp3328
g4
S'YYZ'
p3329
sg6
I0
sg7
I1
sg8
I4
sg9
I00
sg10
S'LGW'
p3330
ssS'533'
p3331
(dp3332
g4
S'SEA'
p3333
sg6
I2
sg7
I2
sg8
I6
sg9
I00
sg10
S'SHA'
p3334
ssS'532'
p3335
(dp3336
g4
S'BOM'
p3337
sg6
I1
sg7
I3
sg8
I4
sg9
I00
sg10
S'SHA'
p3338
ssS'531'
p3339
(dp3340
g4
S'CTU'
p3341
sg6
I1
sg7
I3
sg8
I6
sg9
I01
sg10
S'SHA'
p3342
ssS'530'
p3343
(dp3344
g4
S'SEA'
p3345
sg6
I1
sg7
I3
sg8
I5
sg9
I00
sg10
S'SYD'
p3346
ssS'539'
p3347
(dp3348
g4
S'YYZ'
p3349
sg6
I2
sg7
I2
sg8
I3
sg9
I00
sg10
S'SHA'
p3350
ssS'538'
p3351
(dp3352
g4
S'YYZ'
p3353
sg6
I1
sg7
I2
sg8
I6
sg9
I00
sg10
S'MCO'
p3354
ssS'987'
p3355
(dp3356
g4
S'SEA'
p3357
sg6
I2
sg7
I4
sg8
I3
sg9
I01
sg10
S'MCO'
p3358
ssS'775'
p3359
(dp3360
g4
S'BOM'
p3361
sg6
I2
sg7
I2
sg8
I4
sg9
I01
sg10
S'MCO'
p3362
ssS'988'
p3363
(dp3364
g4
S'YYZ'
p3365
sg6
I0
sg7
I2
sg8
I4
sg9
I00
sg10
S'GRU'
p3366
ssS'989'
p3367
(dp3368
g4
S'CTU'
p3369
sg6
I0
sg7
I4
sg8
I4
sg9
I00
sg10
S'LGW'
p3370
ssS'774'
p3371
(dp3372
g4
S'YYZ'
p3373
sg6
I1
sg7
I3
sg8
I5
sg9
I01
sg10
S'BCN'
p3374
ssS'982'
p3375
(dp3376
g4
S'FCO'
p3377
sg6
I0
sg7
I1
sg8
I3
sg9
I01
sg10
S'MCO'
p3378
ssS'983'
p3379
(dp3380
g4
S'YYZ'
p3381
sg6
I1
sg7
I2
sg8
I5
sg9
I01
sg10
S'BCN'
p3382
ssS'980'
p3383
(dp3384
g4
S'CTU'
p3385
sg6
I2
sg7
I4
sg8
I5
sg9
I01
sg10
S'BCN'
p3386
ssS'981'
p3387
(dp3388
g4
S'YYZ'
p3389
sg6
I0
sg7
I2
sg8
I3
sg9
I01
sg10
S'SYD'
p3390
ssS'986'
p3391
(dp3392
g4
S'FCO'
p3393
sg6
I0
sg7
I2
sg8
I6
sg9
I01
sg10
S'GRU'
p3394
ssS'777'
p3395
(dp3396
g4
S'YYZ'
p3397
sg6
I0
sg7
I4
sg8
I4
sg9
I00
sg10
S'SZX'
p3398
ssS'984'
p3399
(dp3400
g4
S'FCO'
p3401
sg6
I2
sg7
I1
sg8
I4
sg9
I00
sg10
S'SYD'
p3402
ssS'985'
p3403
(dp3404
g4
S'FCO'
p3405
sg6
I2
sg7
I2
sg8
I5
sg9
I00
sg10
S'SYD'
p3406
ssS'115'
p3407
(dp3408
g4
S'SEA'
p3409
sg6
I2
sg7
I1
sg8
I3
sg9
I01
sg10
S'SZX'
p3410
ssS'114'
p3411
(dp3412
g4
S'CTU'
p3413
sg6
I2
sg7
I1
sg8
I6
sg9
I00
sg10
S'GRU'
p3414
ssS'117'
p3415
(dp3416
g4
S'SEA'
p3417
sg6
I0
sg7
I3
sg8
I3
sg9
I01
sg10
S'SYD'
p3418
ssS'116'
p3419
(dp3420
g4
S'FCO'
p3421
sg6
I0
sg7
I1
sg8
I5
sg9
I00
sg10
S'SYD'
p3422
ssS'111'
p3423
(dp3424
g4
S'YYZ'
p3425
sg6
I2
sg7
I4
sg8
I3
sg9
I01
sg10
S'SZX'
p3426
ssS'110'
p3427
(dp3428
g4
S'MUC'
p3429
sg6
I2
sg7
I4
sg8
I4
sg9
I01
sg10
S'SYD'
p3430
ssS'113'
p3431
(dp3432
g4
S'MUC'
p3433
sg6
I0
sg7
I1
sg8
I5
sg9
I00
sg10
S'SYD'
p3434
ssS'112'
p3435
(dp3436
g4
S'YYZ'
p3437
sg6
I0
sg7
I4
sg8
I4
sg9
I00
sg10
S'GRU'
p3438
ssS'771'
p3439
(dp3440
g4
S'CTU'
p3441
sg6
I0
sg7
I2
sg8
I5
sg9
I00
sg10
S'MCO'
p3442
ssS'119'
p3443
(dp3444
g4
S'FCO'
p3445
sg6
I1
sg7
I1
sg8
I3
sg9
I01
sg10
S'SZX'
p3446
ssS'118'
p3447
(dp3448
g4
S'MUC'
p3449
sg6
I0
sg7
I3
sg8
I5
sg9
I01
sg10
S'MCO'
p3450
ssS'770'
p3451
(dp3452
g4
S'CTU'
p3453
sg6
I1
sg7
I1
sg8
I3
sg9
I01
sg10
S'SZX'
p3454
ssS'773'
p3455
(dp3456
g4
S'MUC'
p3457
sg6
I0
sg7
I1
sg8
I3
sg9
I00
sg10
S'GRU'
p3458
ssS'772'
p3459
(dp3460
g4
S'FCO'
p3461
sg6
I0
sg7
I4
sg8
I3
sg9
I01
sg10
S'LGW'
p3462
ssS'953'
p3463
(dp3464
g4
S'MUC'
p3465
sg6
I0
sg7
I1
sg8
I5
sg9
I01
sg10
S'BCN'
p3466
ssS'429'
p3467
(dp3468
g4
S'MUC'
p3469
sg6
I2
sg7
I2
sg8
I3
sg9
I00
sg10
S'GRU'
p3470
ssS'428'
p3471
(dp3472
g4
S'MUC'
p3473
sg6
I2
sg7
I2
sg8
I6
sg9
I01
sg10
S'SZX'
p3474
ssS'919'
p3475
(dp3476
g4
S'MUC'
p3477
sg6
I1
sg7
I2
sg8
I6
sg9
I01
sg10
S'BCN'
p3478
ssS'918'
p3479
(dp3480
g4
S'MUC'
p3481
sg6
I0
sg7
I2
sg8
I4
sg9
I01
sg10
S'MCO'
p3482
ssS'421'
p3483
(dp3484
g4
S'SEA'
p3485
sg6
I2
sg7
I4
sg8
I6
sg9
I01
sg10
S'SZX'
p3486
ssS'420'
p3487
(dp3488
g4
S'MUC'
p3489
sg6
I1
sg7
I3
sg8
I4
sg9
I00
sg10
S'SZX'
p3490
ssS'423'
p3491
(dp3492
g4
S'BOM'
p3493
sg6
I1
sg7
I1
sg8
I4
sg9
I00
sg10
S'LGW'
p3494
ssS'422'
p3495
(dp3496
g4
S'MUC'
p3497
sg6
I1
sg7
I2
sg8
I3
sg9
I01
sg10
S'GRU'
p3498
ssS'425'
p3499
(dp3500
g4
S'FCO'
p3501
sg6
I2
sg7
I4
sg8
I3
sg9
I01
sg10
S'SZX'
p3502
ssS'424'
p3503
(dp3504
g4
S'BOM'
p3505
sg6
I1
sg7
I2
sg8
I3
sg9
I00
sg10
S'MCO'
p3506
ssS'427'
p3507
(dp3508
g4
S'FCO'
p3509
sg6
I0
sg7
I3
sg8
I4
sg9
I01
sg10
S'SZX'
p3510
ssS'426'
p3511
(dp3512
g4
S'SEA'
p3513
sg6
I1
sg7
I4
sg8
I6
sg9
I00
sg10
S'SHA'
p3514
ssS'308'
p3515
(dp3516
g4
S'CTU'
p3517
sg6
I2
sg7
I4
sg8
I3
sg9
I00
sg10
S'BCN'
p3518
ssS'309'
p3519
(dp3520
g4
S'FCO'
p3521
sg6
I1
sg7
I3
sg8
I5
sg9
I00
sg10
S'GRU'
p3522
ssS'855'
p3523
(dp3524
g4
S'CTU'
p3525
sg6
I1
sg7
I3
sg8
I5
sg9
I00
sg10
S'SHA'
p3526
ssS'300'
p3527
(dp3528
g4
S'FCO'
p3529
sg6
I1
sg7
I3
sg8
I6
sg9
I00
sg10
S'GRU'
p3530
ssS'301'
p3531
(dp3532
g4
S'CTU'
p3533
sg6
I2
sg7
I4
sg8
I4
sg9
I01
sg10
S'SHA'
p3534
ssS'302'
p3535
(dp3536
g4
S'BOM'
p3537
sg6
I0
sg7
I3
sg8
I3
sg9
I00
sg10
S'SZX'
p3538
ssS'303'
p3539
(dp3540
g4
S'CTU'
p3541
sg6
I2
sg7
I4
sg8
I3
sg9
I00
sg10
S'LGW'
p3542
ssS'304'
p3543
(dp3544
g4
S'SEA'
p3545
sg6
I1
sg7
I2
sg8
I3
sg9
I00
sg10
S'MCO'
p3546
ssS'305'
p3547
(dp3548
g4
S'SEA'
p3549
sg6
I0
sg7
I3
sg8
I5
sg9
I00
sg10
S'SHA'
p3550
ssS'306'
p3551
(dp3552
g4
S'YYZ'
p3553
sg6
I1
sg7
I1
sg8
I6
sg9
I00
sg10
S'SZX'
p3554
ssS'307'
p3555
(dp3556
g4
S'BOM'
p3557
sg6
I2
sg7
I1
sg8
I5
sg9
I01
sg10
S'SYD'
p3558
ssS'895'
p3559
(dp3560
g4
S'CTU'
p3561
sg6
I1
sg7
I3
sg8
I3
sg9
I00
sg10
S'BCN'
p3562
ssS'825'
p3563
(dp3564
g4
S'CTU'
p3565
sg6
I2
sg7
I3
sg8
I5
sg9
I00
sg10
S'MCO'
p3566
ssS'824'
p3567
(dp3568
g4
S'FCO'
p3569
sg6
I2
sg7
I4
sg8
I3
sg9
I00
sg10
S'SHA'
p3570
ssS'827'
p3571
(dp3572
g4
S'YYZ'
p3573
sg6
I1
sg7
I2
sg8
I5
sg9
I01
sg10
S'MCO'
p3574
ssS'847'
p3575
(dp3576
g4
S'FCO'
p3577
sg6
I1
sg7
I1
sg8
I4
sg9
I01
sg10
S'LGW'
p3578
ssS'846'
p3579
(dp3580
g4
S'BOM'
p3581
sg6
I2
sg7
I4
sg8
I6
sg9
I01
sg10
S'BCN'
p3582
ssS'845'
p3583
(dp3584
g4
S'SEA'
p3585
sg6
I0
sg7
I4
sg8
I4
sg9
I00
sg10
S'SHA'
p3586
ssS'826'
p3587
(dp3588
g4
S'MUC'
p3589
sg6
I1
sg7
I4
sg8
I6
sg9
I00
sg10
S'MCO'
p3590
ssS'843'
p3591
(dp3592
g4
S'CTU'
p3593
sg6
I0
sg7
I2
sg8
I4
sg9
I01
sg10
S'GRU'
p3594
ssS'842'
p3595
(dp3596
g4
S'BOM'
p3597
sg6
I0
sg7
I3
sg8
I3
sg9
I00
sg10
S'GRU'
p3598
ssS'841'
p3599
(dp3600
g4
S'BOM'
p3601
sg6
I0
sg7
I2
sg8
I6
sg9
I01
sg10
S'BCN'
p3602
ssS'840'
p3603
(dp3604
g4
S'FCO'
p3605
sg6
I1
sg7
I2
sg8
I3
sg9
I00
sg10
S'SYD'
p3606
ssS'821'
p3607
(dp3608
g4
S'MUC'
p3609
sg6
I0
sg7
I2
sg8
I5
sg9
I01
sg10
S'GRU'
p3610
ssS'853'
p3611
(dp3612
g4
S'CTU'
p3613
sg6
I2
sg7
I4
sg8
I4
sg9
I01
sg10
S'SHA'
p3614
ssS'849'
p3615
(dp3616
g4
S'MUC'
p3617
sg6
I2
sg7
I3
sg8
I4
sg9
I01
sg10
S'MCO'
p3618
ssS'820'
p3619
(dp3620
g4
S'YYZ'
p3621
sg6
I1
sg7
I4
sg8
I6
sg9
I01
sg10
S'LGW'
p3622
ssS'823'
p3623
(dp3624
g4
S'SEA'
p3625
sg6
I2
sg7
I3
sg8
I5
sg9
I01
sg10
S'SZX'
p3626
ssS'822'
p3627
(dp3628
g4
S'YYZ'
p3629
sg6
I0
sg7
I1
sg8
I3
sg9
I01
sg10
S'SZX'
p3630
ssS'954'
p3631
(dp3632
g4
S'MUC'
p3633
sg6
I2
sg7
I4
sg8
I6
sg9
I00
sg10
S'GRU'
p3634
ssS'568'
p3635
(dp3636
g4
S'SEA'
p3637
sg6
I0
sg7
I3
sg8
I4
sg9
I00
sg10
S'SHA'
p3638
ssS'569'
p3639
(dp3640
g4
S'YYZ'
p3641
sg6
I0
sg7
I4
sg8
I5
sg9
I01
sg10
S'SZX'
p3642
ssS'751'
p3643
(dp3644
g4
S'SEA'
p3645
sg6
I1
sg7
I1
sg8
I4
sg9
I01
sg10
S'GRU'
p3646
ssS'750'
p3647
(dp3648
g4
S'YYZ'
p3649
sg6
I2
sg7
I2
sg8
I3
sg9
I01
sg10
S'MCO'
p3650
ssS'757'
p3651
(dp3652
g4
S'MUC'
p3653
sg6
I1
sg7
I3
sg8
I5
sg9
I00
sg10
S'SZX'
p3654
ssS'737'
p3655
(dp3656
g4
S'MUC'
p3657
sg6
I1
sg7
I1
sg8
I3
sg9
I01
sg10
S'SHA'
p3658
ssS'755'
p3659
(dp3660
g4
S'MUC'
p3661
sg6
I0
sg7
I4
sg8
I5
sg9
I00
sg10
S'MCO'
p3662
ssS'754'
p3663
(dp3664
g4
S'CTU'
p3665
sg6
I2
sg7
I4
sg8
I3
sg9
I01
sg10
S'GRU'
p3666
ssS'560'
p3667
(dp3668
g4
S'MUC'
p3669
sg6
I1
sg7
I4
sg8
I3
sg9
I01
sg10
S'MCO'
p3670
ssS'561'
p3671
(dp3672
g4
S'FCO'
p3673
sg6
I0
sg7
I1
sg8
I4
sg9
I00
sg10
S'BCN'
p3674
ssS'562'
p3675
(dp3676
g4
S'FCO'
p3677
sg6
I2
sg7
I2
sg8
I5
sg9
I00
sg10
S'SYD'
p3678
ssS'563'
p3679
(dp3680
g4
S'YYZ'
p3681
sg6
I1
sg7
I3
sg8
I6
sg9
I01
sg10
S'SZX'
p3682
ssS'564'
p3683
(dp3684
g4
S'MUC'
p3685
sg6
I0
sg7
I4
sg8
I6
sg9
I01
sg10
S'LGW'
p3686
ssS'565'
p3687
(dp3688
g4
S'MUC'
p3689
sg6
I2
sg7
I2
sg8
I6
sg9
I00
sg10
S'SHA'
p3690
ssS'566'
p3691
(dp3692
g4
S'SEA'
p3693
sg6
I0
sg7
I3
sg8
I6
sg9
I00
sg10
S'LGW'
p3694
ssS'567'
p3695
(dp3696
g4
S'MUC'
p3697
sg6
I1
sg7
I2
sg8
I5
sg9
I01
sg10
S'BCN'
p3698
ssS'739'
p3699
(dp3700
g4
S'CTU'
p3701
sg6
I1
sg7
I2
sg8
I3
sg9
I01
sg10
S'MCO'
p3702
ssS'229'
p3703
(dp3704
g4
S'MUC'
p3705
sg6
I1
sg7
I1
sg8
I4
sg9
I01
sg10
S'BCN'
p3706
ssS'228'
p3707
(dp3708
g4
S'YYZ'
p3709
sg6
I0
sg7
I1
sg8
I5
sg9
I00
sg10
S'MCO'
p3710
ssS'227'
p3711
(dp3712
g4
S'SEA'
p3713
sg6
I1
sg7
I3
sg8
I5
sg9
I00
sg10
S'GRU'
p3714
ssS'226'
p3715
(dp3716
g4
S'FCO'
p3717
sg6
I2
sg7
I2
sg8
I4
sg9
I00
sg10
S'SYD'
p3718
ssS'225'
p3719
(dp3720
g4
S'CTU'
p3721
sg6
I0
sg7
I1
sg8
I5
sg9
I01
sg10
S'BCN'
p3722
ssS'224'
p3723
(dp3724
g4
S'SEA'
p3725
sg6
I0
sg7
I2
sg8
I3
sg9
I01
sg10
S'SHA'
p3726
ssS'223'
p3727
(dp3728
g4
S'FCO'
p3729
sg6
I0
sg7
I2
sg8
I3
sg9
I01
sg10
S'SYD'
p3730
ssS'222'
p3731
(dp3732
g4
S'CTU'
p3733
sg6
I1
sg7
I4
sg8
I3
sg9
I01
sg10
S'BCN'
p3734
ssS'221'
p3735
(dp3736
g4
S'BOM'
p3737
sg6
I0
sg7
I4
sg8
I4
sg9
I01
sg10
S'SHA'
p3738
ssS'220'
p3739
(dp3740
g4
S'SEA'
p3741
sg6
I1
sg7
I2
sg8
I5
sg9
I00
sg10
S'SZX'
p3742
ssS'88'
p3743
(dp3744
g4
S'YYZ'
p3745
sg6
I0
sg7
I3
sg8
I6
sg9
I00
sg10
S'LGW'
p3746
ssS'726'
p3747
(dp3748
g4
S'YYZ'
p3749
sg6
I1
sg7
I2
sg8
I6
sg9
I01
sg10
S'GRU'
p3750
ssS'727'
p3751
(dp3752
g4
S'SEA'
p3753
sg6
I1
sg7
I3
sg8
I3
sg9
I01
sg10
S'SHA'
p3754
ssS'724'
p3755
(dp3756
g4
S'CTU'
p3757
sg6
I2
sg7
I1
sg8
I4
sg9
I00
sg10
S'SYD'
p3758
ssS'725'
p3759
(dp3760
g4
S'YYZ'
p3761
sg6
I1
sg7
I3
sg8
I5
sg9
I01
sg10
S'SYD'
p3762
ssS'722'
p3763
(dp3764
g4
S'SEA'
p3765
sg6
I2
sg7
I1
sg8
I5
sg9
I01
sg10
S'BCN'
p3766
ssS'723'
p3767
(dp3768
g4
S'CTU'
p3769
sg6
I0
sg7
I2
sg8
I5
sg9
I00
sg10
S'SHA'
p3770
ssS'720'
p3771
(dp3772
g4
S'BOM'
p3773
sg6
I1
sg7
I3
sg8
I4
sg9
I01
sg10
S'SHA'
p3774
ssS'721'
p3775
(dp3776
g4
S'CTU'
p3777
sg6
I1
sg7
I1
sg8
I6
sg9
I01
sg10
S'SYD'
p3778
ssS'728'
p3779
(dp3780
g4
S'MUC'
p3781
sg6
I1
sg7
I1
sg8
I6
sg9
I01
sg10
S'MCO'
p3782
ssS'729'
p3783
(dp3784
g4
S'CTU'
p3785
sg6
I0
sg7
I3
sg8
I3
sg9
I01
sg10
S'GRU'
p3786
ssS'151'
p3787
(dp3788
g4
S'BOM'
p3789
sg6
I2
sg7
I3
sg8
I6
sg9
I01
sg10
S'GRU'
p3790
ssS'150'
p3791
(dp3792
g4
S'BOM'
p3793
sg6
I1
sg7
I3
sg8
I4
sg9
I00
sg10
S'SHA'
p3794
ssS'153'
p3795
(dp3796
g4
S'YYZ'
p3797
sg6
I0
sg7
I3
sg8
I5
sg9
I01
sg10
S'GRU'
p3798
ssS'152'
p3799
(dp3800
g4
S'FCO'
p3801
sg6
I2
sg7
I3
sg8
I6
sg9
I01
sg10
S'LGW'
p3802
ssS'155'
p3803
(dp3804
g4
S'FCO'
p3805
sg6
I1
sg7
I2
sg8
I5
sg9
I00
sg10
S'MCO'
p3806
ssS'154'
p3807
(dp3808
g4
S'MUC'
p3809
sg6
I0
sg7
I2
sg8
I6
sg9
I01
sg10
S'LGW'
p3810
ssS'157'
p3811
(dp3812
g4
S'SEA'
p3813
sg6
I0
sg7
I4
sg8
I3
sg9
I01
sg10
S'LGW'
p3814
ssS'156'
p3815
(dp3816
g4
S'SEA'
p3817
sg6
I2
sg7
I3
sg8
I6
sg9
I00
sg10
S'SHA'
p3818
ssS'159'
p3819
(dp3820
g4
S'SEA'
p3821
sg6
I0
sg7
I4
sg8
I5
sg9
I01
sg10
S'LGW'
p3822
ssS'158'
p3823
(dp3824
g4
S'FCO'
p3825
sg6
I2
sg7
I2
sg8
I5
sg9
I00
sg10
S'SZX'
p3826
ssS'609'
p3827
(dp3828
g4
S'SEA'
p3829
sg6
I0
sg7
I2
sg8
I6
sg9
I00
sg10
S'MCO'
p3830
ssS'608'
p3831
(dp3832
g4
S'BOM'
p3833
sg6
I2
sg7
I3
sg8
I3
sg9
I00
sg10
S'GRU'
p3834
ssS'976'
p3835
(dp3836
g4
S'SEA'
p3837
sg6
I0
sg7
I4
sg8
I5
sg9
I01
sg10
S'SYD'
p3838
ssS'634'
p3839
(dp3840
g4
S'YYZ'
p3841
sg6
I2
sg7
I2
sg8
I5
sg9
I00
sg10
S'BCN'
p3842
ssS'80'
p3843
(dp3844
g4
S'SEA'
p3845
sg6
I2
sg7
I2
sg8
I6
sg9
I01
sg10
S'SYD'
p3846
ssS'635'
p3847
(dp3848
g4
S'CTU'
p3849
sg6
I0
sg7
I2
sg8
I4
sg9
I01
sg10
S'LGW'
p3850
ssS'749'
p3851
(dp3852
g4
S'YYZ'
p3853
sg6
I0
sg7
I1
sg8
I4
sg9
I01
sg10
S'LGW'
p3854
ssS'958'
p3855
(dp3856
g4
S'CTU'
p3857
sg6
I0
sg7
I1
sg8
I3
sg9
I00
sg10
S'LGW'
p3858
ssS'81'
p3859
(dp3860
g4
S'MUC'
p3861
sg6
I1
sg7
I1
sg8
I3
sg9
I01
sg10
S'LGW'
p3862
ssS'48'
p3863
(dp3864
g4
S'MUC'
p3865
sg6
I2
sg7
I1
sg8
I6
sg9
I00
sg10
S'LGW'
p3866
ssS'49'
p3867
(dp3868
g4
S'FCO'
p3869
sg6
I1
sg7
I1
sg8
I5
sg9
I01
sg10
S'SYD'
p3870
ssS'46'
p3871
(dp3872
g4
S'BOM'
p3873
sg6
I2
sg7
I3
sg8
I5
sg9
I01
sg10
S'SZX'
p3874
ssS'47'
p3875
(dp3876
g4
S'CTU'
p3877
sg6
I0
sg7
I1
sg8
I4
sg9
I01
sg10
S'SHA'
p3878
ssS'44'
p3879
(dp3880
g4
S'BOM'
p3881
sg6
I2
sg7
I4
sg8
I6
sg9
I01
sg10
S'LGW'
p3882
ssS'45'
p3883
(dp3884
g4
S'BOM'
p3885
sg6
I0
sg7
I4
sg8
I5
sg9
I00
sg10
S'LGW'
p3886
ssS'42'
p3887
(dp3888
g4
S'FCO'
p3889
sg6
I0
sg7
I1
sg8
I4
sg9
I01
sg10
S'MCO'
p3890
ssS'43'
p3891
(dp3892
g4
S'BOM'
p3893
sg6
I1
sg7
I2
sg8
I3
sg9
I00
sg10
S'SHA'
p3894
ssS'40'
p3895
(dp3896
g4
S'MUC'
p3897
sg6
I2
sg7
I1
sg8
I3
sg9
I01
sg10
S'SYD'
p3898
ssS'41'
p3899
(dp3900
g4
S'BOM'
p3901
sg6
I1
sg7
I3
sg8
I4
sg9
I01
sg10
S'MCO'
p3902
ssS'638'
p3903
(dp3904
g4
S'CTU'
p3905
sg6
I0
sg7
I2
sg8
I4
sg9
I00
sg10
S'BCN'
p3906
ssS'5'
(dp3907
g4
S'BOM'
p3908
sg6
I0
sg7
I2
sg8
I4
sg9
I00
sg10
S'BCN'
p3909
ssS'639'
p3910
(dp3911
g4
S'BOM'
p3912
sg6
I0
sg7
I3
sg8
I6
sg9
I01
sg10
S'SHA'
p3913
ssS'489'
p3914
(dp3915
g4
S'YYZ'
p3916
sg6
I0
sg7
I4
sg8
I6
sg9
I00
sg10
S'SYD'
p3917
ssS'488'
p3918
(dp3919
g4
S'FCO'
p3920
sg6
I2
sg7
I1
sg8
I4
sg9
I00
sg10
S'SHA'
p3921
ssS'487'
p3922
(dp3923
g4
S'BOM'
p3924
sg6
I0
sg7
I4
sg8
I6
sg9
I01
sg10
S'GRU'
p3925
ssS'486'
p3926
(dp3927
g4
S'SEA'
p3928
sg6
I2
sg7
I1
sg8
I6
sg9
I00
sg10
S'BCN'
p3929
ssS'485'
p3930
(dp3931
g4
S'SEA'
p3932
sg6
I1
sg7
I1
sg8
I6
sg9
I00
sg10
S'SYD'
p3933
ssS'484'
p3934
(dp3935
g4
S'BOM'
p3936
sg6
I2
sg7
I4
sg8
I3
sg9
I01
sg10
S'GRU'
p3937
ssS'483'
p3938
(dp3939
g4
S'MUC'
p3940
sg6
I1
sg7
I4
sg8
I6
sg9
I01
sg10
S'GRU'
p3941
ssS'482'
p3942
(dp3943
g4
S'YYZ'
p3944
sg6
I2
sg7
I2
sg8
I4
sg9
I00
sg10
S'GRU'
p3945
ssS'481'
p3946
(dp3947
g4
S'BOM'
p3948
sg6
I0
sg7
I4
sg8
I6
sg9
I01
sg10
S'MCO'
p3949
ssS'480'
p3950
(dp3951
g4
S'MUC'
p3952
sg6
I0
sg7
I3
sg8
I3
sg9
I01
sg10
S'LGW'
p3953
ssS'955'
p3954
(dp3955
g4
S'FCO'
p3956
sg6
I2
sg7
I2
sg8
I4
sg9
I00
sg10
S'SZX'
p3957
ssS'472'
p3958
(dp3959
g4
S'BOM'
p3960
sg6
I0
sg7
I4
sg8
I6
sg9
I01
sg10
S'SYD'
p3961
ssS'473'
p3962
(dp3963
g4
S'CTU'
p3964
sg6
I2
sg7
I4
sg8
I3
sg9
I00
sg10
S'BCN'
p3965
ssS'470'
p3966
(dp3967
g4
S'SEA'
p3968
sg6
I0
sg7
I3
sg8
I4
sg9
I01
sg10
S'SZX'
p3969
ssS'471'
p3970
(dp3971
g4
S'FCO'
p3972
sg6
I2
sg7
I4
sg8
I6
sg9
I01
sg10
S'LGW'
p3973
ssS'476'
p3974
(dp3975
g4
S'CTU'
p3976
sg6
I2
sg7
I1
sg8
I6
sg9
I00
sg10
S'GRU'
p3977
ssS'477'
p3978
(dp3979
g4
S'YYZ'
p3980
sg6
I1
sg7
I2
sg8
I4
sg9
I01
sg10
S'LGW'
p3981
ssS'474'
p3982
(dp3983
g4
S'BOM'
p3984
sg6
I1
sg7
I1
sg8
I5
sg9
I01
sg10
S'SYD'
p3985
ssS'475'
p3986
(dp3987
g4
S'FCO'
p3988
sg6
I2
sg7
I3
sg8
I3
sg9
I00
sg10
S'SYD'
p3989
ssS'478'
p3990
(dp3991
g4
S'SEA'
p3992
sg6
I1
sg7
I2
sg8
I3
sg9
I00
sg10
S'GRU'
p3993
ssS'479'
p3994
(dp3995
g4
S'BOM'
p3996
sg6
I0
sg7
I3
sg8
I5
sg9
I00
sg10
S'GRU'
p3997
ss.