(lp1
(dp2
S'request_slots'
p3
(dp4
sS'diaact'
p5
S'request'
p6
sS'inform_slots'
p7
(dp8
S'origin1'
p9
S'FCO'
p10
sS'flightDate1'
p11
I2
sS'travelers'
p12
I4
sS'flightDate2'
p13
I4
sS'flexible'
p14
I01
sS'destination1'
p15
S'SHA'
p16
ssa(dp17
g3
(dp18
sg5
S'request'
p19
sg7
(dp20
g9
S'CTU'
p21
sg11
I2
sg12
I1
sg13
I4
sg14
I01
sg15
S'SHA'
p22
ssa(dp23
g3
(dp24
sg5
S'request'
p25
sg7
(dp26
g9
S'FCO'
p27
sg11
I0
sg12
I3
sg13
I5
sg14
I01
sg15
S'MCO'
p28
ssa(dp29
g3
(dp30
sg5
S'request'
p31
sg7
(dp32
g9
S'FCO'
p33
sg11
I2
sg12
I3
sg13
I4
sg14
I01
sg15
S'LGW'
p34
ssa(dp35
g3
(dp36
sg5
S'request'
p37
sg7
(dp38
g9
S'MUC'
p39
sg11
I0
sg12
I2
sg13
I4
sg14
I01
sg15
S'MCO'
p40
ssa(dp41
g3
(dp42
sg5
S'request'
p43
sg7
(dp44
g9
S'MUC'
p45
sg11
I0
sg12
I3
sg13
I4
sg14
I01
sg15
S'SZX'
p46
ssa(dp47
g3
(dp48
sg5
S'request'
p49
sg7
(dp50
g9
S'SEA'
p51
sg11
I2
sg12
I4
sg13
I3
sg14
I00
sg15
S'GRU'
p52
ssa(dp53
g3
(dp54
sg5
S'request'
p55
sg7
(dp56
g9
S'FCO'
p57
sg11
I0
sg12
I3
sg13
I5
sg14
I00
sg15
S'LGW'
p58
ssa(dp59
g3
(dp60
sg5
S'request'
p61
sg7
(dp62
g9
S'YYZ'
p63
sg11
I2
sg12
I2
sg13
I4
sg14
I00
sg15
S'SHA'
p64
ssa(dp65
g3
(dp66
sg5
S'request'
p67
sg7
(dp68
g9
S'MUC'
p69
sg11
I2
sg12
I4
sg13
I6
sg14
I01
sg15
S'SHA'
p70
ssa(dp71
g3
(dp72
sg5
S'request'
p73
sg7
(dp74
g9
S'BOM'
p75
sg11
I2
sg12
I1
sg13
I4
sg14
I01
sg15
S'SYD'
p76
ssa(dp77
g3
(dp78
sg5
S'request'
p79
sg7
(dp80
g9
S'CTU'
p81
sg11
I0
sg12
I2
sg13
I4
sg14
I00
sg15
S'SZX'
p82
ssa(dp83
g3
(dp84
sg5
S'request'
p85
sg7
(dp86
g9
S'YYZ'
p87
sg11
I1
sg12
I3
sg13
I6
sg14
I00
sg15
S'SZX'
p88
ssa(dp89
g3
(dp90
sg5
S'request'
p91
sg7
(dp92
g9
S'MUC'
p93
sg11
I0
sg12
I4
sg13
I4
sg14
I01
sg15
S'SZX'
p94
ssa(dp95
g3
(dp96
sg5
S'request'
p97
sg7
(dp98
g9
S'YYZ'
p99
sg11
I1
sg12
I3
sg13
I3
sg14
I00
sg15
S'BCN'
p100
ssa(dp101
g3
(dp102
sg5
S'request'
p103
sg7
(dp104
g9
S'YYZ'
p105
sg11
I1
sg12
I1
sg13
I6
sg14
I01
sg15
S'BCN'
p106
ssa(dp107
g3
(dp108
sg5
S'request'
p109
sg7
(dp110
g9
S'YYZ'
p111
sg11
I1
sg12
I4
sg13
I3
sg14
I01
sg15
S'SZX'
p112
ssa(dp113
g3
(dp114
sg5
S'request'
p115
sg7
(dp116
g9
S'CTU'
p117
sg11
I2
sg12
I2
sg13
I3
sg14
I00
sg15
S'MCO'
p118
ssa(dp119
g3
(dp120
sg5
S'request'
p121
sg7
(dp122
g9
S'YYZ'
p123
sg11
I0
sg12
I4
sg13
I4
sg14
I00
sg15
S'GRU'
p124
ssa(dp125
g3
(dp126
sg5
S'request'
p127
sg7
(dp128
g9
S'SEA'
p129
sg11
I0
sg12
I2
sg13
I5
sg14
I00
sg15
S'SHA'
p130
ssa(dp131
g3
(dp132
sg5
S'request'
p133
sg7
(dp134
g9
S'CTU'
p135
sg11
I2
sg12
I4
sg13
I5
sg14
I00
sg15
S'MCO'
p136
ssa(dp137
g3
(dp138
sg5
S'request'
p139
sg7
(dp140
g9
S'FCO'
p141
sg11
I0
sg12
I2
sg13
I5
sg14
I01
sg15
S'LGW'
p142
ssa(dp143
g3
(dp144
sg5
S'request'
p145
sg7
(dp146
g9
S'SEA'
p147
sg11
I2
sg12
I1
sg13
I3
sg14
I01
sg15
S'SYD'
p148
ssa(dp149
g3
(dp150
sg5
S'request'
p151
sg7
(dp152
g9
S'FCO'
p153
sg11
I2
sg12
I3
sg13
I6
sg14
I01
sg15
S'LGW'
p154
ssa(dp155
g3
(dp156
sg5
S'request'
p157
sg7
(dp158
g9
S'MUC'
p159
sg11
I1
sg12
I2
sg13
I5
sg14
I01
sg15
S'GRU'
p160
ssa(dp161
g3
(dp162
sg5
S'request'
p163
sg7
(dp164
g9
S'CTU'
p165
sg11
I1
sg12
I2
sg13
I4
sg14
I00
sg15
S'BCN'
p166
ssa(dp167
g3
(dp168
sg5
S'request'
p169
sg7
(dp170
g9
S'BOM'
p171
sg11
I2
sg12
I2
sg13
I3
sg14
I01
sg15
S'LGW'
p172
ssa(dp173
g3
(dp174
sg5
S'request'
p175
sg7
(dp176
g9
S'SEA'
p177
sg11
I0
sg12
I3
sg13
I5
sg14
I00
sg15
S'SHA'
p178
ssa(dp179
g3
(dp180
sg5
S'request'
p181
sg7
(dp182
g9
S'FCO'
p183
sg11
I0
sg12
I4
sg13
I3
sg14
I01
sg15
S'SYD'
p184
ssa(dp185
g3
(dp186
sg5
S'request'
p187
sg7
(dp188
g9
S'SEA'
p189
sg11
I1
sg12
I1
sg13
I4
sg14
I01
sg15
S'BCN'
p190
ssa(dp191
g3
(dp192
sg5
S'request'
p193
sg7
(dp194
g9
S'FCO'
p195
sg11
I1
sg12
I3
sg13
I3
sg14
I00
sg15
S'SHA'
p196
ssa(dp197
g3
(dp198
sg5
S'request'
p199
sg7
(dp200
g9
S'YYZ'
p201
sg11
I0
sg12
I4
sg13
I3
sg14
I01
sg15
S'GRU'
p202
ssa(dp203
g3
(dp204
sg5
S'request'
p205
sg7
(dp206
g9
S'CTU'
p207
sg11
I1
sg12
I4
sg13
I5
sg14
I00
sg15
S'SHA'
p208
ssa(dp209
g3
(dp210
sg5
S'request'
p211
sg7
(dp212
g9
S'SEA'
p213
sg11
I0
sg12
I2
sg13
I6
sg14
I01
sg15
S'SYD'
p214
ssa(dp215
g3
(dp216
sg5
S'request'
p217
sg7
(dp218
g9
S'SEA'
p219
sg11
I2
sg12
I2
sg13
I5
sg14
I01
sg15
S'BCN'
p220
ssa(dp221
g3
(dp222
sg5
S'request'
p223
sg7
(dp224
g9
S'YYZ'
p225
sg11
I1
sg12
I1
sg13
I3
sg14
I01
sg15
S'SHA'
p226
ssa(dp227
g3
(dp228
sg5
S'request'
p229
sg7
(dp230
g9
S'FCO'
p231
sg11
I0
sg12
I2
sg13
I4
sg14
I01
sg15
S'MCO'
p232
ssa(dp233
g3
(dp234
sg5
S'request'
p235
sg7
(dp236
g9
S'BOM'
p237
sg11
I0
sg12
I4
sg13
I5
sg14
I01
sg15
S'MCO'
p238
ssa(dp239
g3
(dp240
sg5
S'request'
p241
sg7
(dp242
g9
S'CTU'
p243
sg11
I2
sg12
I2
sg13
I6
sg14
I01
sg15
S'SHA'
p244
ssa(dp245
g3
(dp246
sg5
S'request'
p247
sg7
(dp248
g9
S'FCO'
p249
sg11
I0
sg12
I4
sg13
I3
sg14
I01
sg15
S'SYD'
p250
ssa(dp251
g3
(dp252
sg5
S'request'
p253
sg7
(dp254
g9
S'BOM'
p255
sg11
I0
sg12
I1
sg13
I5
sg14
I01
sg15
S'BCN'
p256
ssa(dp257
g3
(dp258
sg5
S'request'
p259
sg7
(dp260
g9
S'FCO'
p261
sg11
I0
sg12
I2
sg13
I6
sg14
I01
sg15
S'GRU'
p262
ssa(dp263
g3
(dp264
sg5
S'request'
p265
sg7
(dp266
g9
S'YYZ'
p267
sg11
I2
sg12
I3
sg13
I4
sg14
I01
sg15
S'BCN'
p268
ssa(dp269
g3
(dp270
sg5
S'request'
p271
sg7
(dp272
g9
S'YYZ'
p273
sg11
I0
sg12
I4
sg13
I5
sg14
I01
sg15
S'BCN'
p274
ssa(dp275
g3
(dp276
sg5
S'request'
p277
sg7
(dp278
g9
S'YYZ'
p279
sg11
I0
sg12
I1
sg13
I3
sg14
I01
sg15
S'BCN'
p280
ssa(dp281
g3
(dp282
sg5
S'request'
p283
sg7
(dp284
g9
S'BOM'
p285
sg11
I1
sg12
I1
sg13
I6
sg14
I01
sg15
S'BCN'
p286
ssa(dp287
g3
(dp288
sg5
S'request'
p289
sg7
(dp290
g9
S'CTU'
p291
sg11
I1
sg12
I2
sg13
I3
sg14
I00
sg15
S'SYD'
p292
ssa(dp293
g3
(dp294
sg5
S'request'
p295
sg7
(dp296
g9
S'SEA'
p297
sg11
I2
sg12
I2
sg13
I4
sg14
I00
sg15
S'SHA'
p298
ssa(dp299
g3
(dp300
sg5
S'request'
p301
sg7
(dp302
g9
S'SEA'
p303
sg11
I0
sg12
I2
sg13
I5
sg14
I00
sg15
S'SHA'
p304
ssa(dp305
g3
(dp306
sg5
S'request'
p307
sg7
(dp308
g9
S'FCO'
p309
sg11
I2
sg12
I3
sg13
I3
sg14
I00
sg15
S'GRU'
p310
ssa(dp311
g3
(dp312
sg5
S'request'
p313
sg7
(dp314
g9
S'SEA'
p315
sg11
I0
sg12
I2
sg13
I3
sg14
I00
sg15
S'SYD'
p316
ssa(dp317
g3
(dp318
sg5
S'request'
p319
sg7
(dp320
g9
S'FCO'
p321
sg11
I2
sg12
I1
sg13
I6
sg14
I00
sg15
S'MCO'
p322
ssa(dp323
g3
(dp324
sg5
S'request'
p325
sg7
(dp326
g9
S'MUC'
p327
sg11
I2
sg12
I4
sg13
I5
sg14
I00
sg15
S'MCO'
p328
ssa(dp329
g3
(dp330
sg5
S'request'
p331
sg7
(dp332
g9
S'FCO'
p333
sg11
I1
sg12
I3
sg13
I5
sg14
I01
sg15
S'LGW'
p334
ssa(dp335
g3
(dp336
sg5
S'request'
p337
sg7
(dp338
g9
S'YYZ'
p339
sg11
I2
sg12
I4
sg13
I5
sg14
I00
sg15
S'GRU'
p340
ssa(dp341
g3
(dp342
sg5
S'request'
p343
sg7
(dp344
g9
S'MUC'
p345
sg11
I1
sg12
I1
sg13
I6
sg14
I01
sg15
S'SHA'
p346
ssa(dp347
g3
(dp348
sg5
S'request'
p349
sg7
(dp350
g9
S'YYZ'
p351
sg11
I2
sg12
I4
sg13
I5
sg14
I00
sg15
S'BCN'
p352
ssa(dp353
g3
(dp354
sg5
S'request'
p355
sg7
(dp356
g9
S'SEA'
p357
sg11
I2
sg12
I2
sg13
I6
sg14
I01
sg15
S'SHA'
p358
ssa(dp359
g3
(dp360
sg5
S'request'
p361
sg7
(dp362
g9
S'BOM'
p363
sg11
I1
sg12
I3
sg13
I5
sg14
I01
sg15
S'SYD'
p364
ssa(dp365
g3
(dp366
sg5
S'request'
p367
sg7
(dp368
g9
S'CTU'
p369
sg11
I1
sg12
I4
sg13
I6
sg14
I01
sg15
S'LGW'
p370
ssa(dp371
g3
(dp372
sg5
S'request'
p373
sg7
(dp374
g9
S'YYZ'
p375
sg11
I1
sg12
I3
sg13
I3
sg14
I00
sg15
S'SHA'
p376
ssa(dp377
g3
(dp378
sg5
S'request'
p379
sg7
(dp380
g9
S'BOM'
p381
sg11
I1
sg12
I2
sg13
I4
sg14
I01
sg15
S'LGW'
p382
ssa(dp383
g3
(dp384
sg5
S'request'
p385
sg7
(dp386
g9
S'FCO'
p387
sg11
I2
sg12
I1
sg13
I6
sg14
I00
sg15
S'SHA'
p388
ssa(dp389
g3
(dp390
sg5
S'request'
p391
sg7
(dp392
g9
S'SEA'
p393
sg11
I1
sg12
I1
sg13
I6
sg14
I00
sg15
S'SYD'
p394
ssa(dp395
g3
(dp396
sg5
S'request'
p397
sg7
(dp398
g9
S'SEA'
p399
sg11
I2
sg12
I3
sg13
I4
sg14
I01
sg15
S'SHA'
p400
ssa(dp401
g3
(dp402
sg5
S'request'
p403
sg7
(dp404
g9
S'SEA'
p405
sg11
I1
sg12
I3
sg13
I5
sg14
I01
sg15
S'SZX'
p406
ssa(dp407
g3
(dp408
sg5
S'request'
p409
sg7
(dp410
g9
S'CTU'
p411
sg11
I1
sg12
I3
sg13
I6
sg14
I00
sg15
S'LGW'
p412
ssa(dp413
g3
(dp414
sg5
S'request'
p415
sg7
(dp416
g9
S'BOM'
p417
sg11
I0
sg12
I4
sg13
I6
sg14
I00
sg15
S'SHA'
p418
ssa(dp419
g3
(dp420
sg5
S'request'
p421
sg7
(dp422
g9
S'BOM'
p423
sg11
I2
sg12
I4
sg13
I4
sg14
I00
sg15
S'MCO'
p424
ssa(dp425
g3
(dp426
sg5
S'request'
p427
sg7
(dp428
g9
S'FCO'
p429
sg11
I1
sg12
I3
sg13
I3
sg14
I00
sg15
S'SZX'
p430
ssa(dp431
g3
(dp432
sg5
S'request'
p433
sg7
(dp434
g9
S'CTU'
p435
sg11
I2
sg12
I1
sg13
I6
sg14
I00
sg15
S'BCN'
p436
ssa(dp437
g3
(dp438
sg5
S'request'
p439
sg7
(dp440
g9
S'SEA'
p441
sg11
I2
sg12
I4
sg13
I4
sg14
I01
sg15
S'GRU'
p442
ssa(dp443
g3
(dp444
sg5
S'request'
p445
sg7
(dp446
g9
S'SEA'
p447
sg11
I0
sg12
I4
sg13
I6
sg14
I00
sg15
S'SZX'
p448
ssa(dp449
g3
(dp450
sg5
S'request'
p451
sg7
(dp452
g9
S'BOM'
p453
sg11
I2
sg12
I4
sg13
I3
sg14
I01
sg15
S'SZX'
p454
ssa(dp455
g3
(dp456
sg5
S'request'
p457
sg7
(dp458
g9
S'SEA'
p459
sg11
I2
sg12
I4
sg13
I5
sg14
I00
sg15
S'BCN'
p460
ssa(dp461
g3
(dp462
sg5
S'request'
p463
sg7
(dp464
g9
S'SEA'
p465
sg11
I1
sg12
I4
sg13
I3
sg14
I01
sg15
S'GRU'
p466
ssa(dp467
g3
(dp468
sg5
S'request'
p469
sg7
(dp470
g9
S'YYZ'
p471
sg11
I0
sg12
I4
sg13
I4
sg14
I00
sg15
S'BCN'
p472
ssa(dp473
g3
(dp474
sg5
S'request'
p475
sg7
(dp476
g9
S'YYZ'
p477
sg11
I0
sg12
I2
sg13
I5
sg14
I00
sg15
S'LGW'
p478
ssa(dp479
g3
(dp480
sg5
S'request'
p481
sg7
(dp482
g9
S'BOM'
p483
sg11
I2
sg12
I1
sg13
I3
sg14
I00
sg15
S'MCO'
p484
ssa(dp485
g3
(dp486
sg5
S'request'
p487
sg7
(dp488
g9
S'BOM'
p489
sg11
I0
sg12
I3
sg13
I3
sg14
I01
sg15
S'GRU'
p490
ssa(dp491
g3
(dp492
sg5
S'request'
p493
sg7
(dp494
g9
S'SEA'
p495
sg11
I0
sg12
I2
sg13
I3
sg14
I00
sg15
S'MCO'
p496
ssa(dp497
g3
(dp498
sg5
S'request'
p499
sg7
(dp500
g9
S'FCO'
p501
sg11
I1
sg12
I2
sg13
I5
sg14
I01
sg15
S'LGW'
p502
ssa(dp503
g3
(dp504
sg5
S'request'
p505
sg7
(dp506
g9
S'FCO'
p507
sg11
I1
sg12
I1
sg13
I3
sg14
I01
sg15
S'SYD'
p508
ssa(dp509
g3
(dp510
sg5
S'request'
p511
sg7
(dp512
g9
S'MUC'
p513
sg11
I0
sg12
I2
sg13
I3
sg14
I01
sg15
S'GRU'
p514
ssa(dp515
g3
(dp516
sg5
S'request'
p517
sg7
(dp518
g9
S'FCO'
p519
sg11
I1
sg12
I1
sg13
I6
sg14
I00
sg15
S'SHA'
p520
ssa(dp521
g3
(dp522
sg5
S'request'
p523
sg7
(dp524
g9
S'YYZ'
p525
sg11
I2
sg12
I3
sg13
I3
sg14
I00
sg15
S'BCN'
p526
ssa(dp527
g3
(dp528
sg5
S'request'
p529
sg7
(dp530
g9
S'MUC'
p531
sg11
I2
sg12
I4
sg13
I4
sg14
I00
sg15
S'SYD'
p532
ssa(dp533
g3
(dp534
sg5
S'request'
p535
sg7
(dp536
g9
S'FCO'
p537
sg11
I2
sg12
I2
sg13
I4
sg14
I01
sg15
S'SHA'
p538
ssa(dp539
g3
(dp540
sg5
S'request'
p541
sg7
(dp542
g9
S'BOM'
p543
sg11
I0
sg12
I4
sg13
I3
sg14
I01
sg15
S'SHA'
p544
ssa(dp545
g3
(dp546
sg5
S'request'
p547
sg7
(dp548
g9
S'YYZ'
p549
sg11
I1
sg12
I4
sg13
I4
sg14
I01
sg15
S'BCN'
p550
ssa(dp551
g3
(dp552
sg5
S'request'
p553
sg7
(dp554
g9
S'SEA'
p555
sg11
I0
sg12
I4
sg13
I3
sg14
I01
sg15
S'MCO'
p556
ssa(dp557
g3
(dp558
sg5
S'request'
p559
sg7
(dp560
g9
S'YYZ'
p561
sg11
I2
sg12
I3
sg13
I6
sg14
I00
sg15
S'MCO'
p562
ssa(dp563
g3
(dp564
sg5
S'request'
p565
sg7
(dp566
g9
S'MUC'
p567
sg11
I0
sg12
I2
sg13
I4
sg14
I01
sg15
S'MCO'
p568
ssa(dp569
g3
(dp570
sg5
S'request'
p571
sg7
(dp572
g9
S'YYZ'
p573
sg11
I1
sg12
I2
sg13
I6
sg14
I01
sg15
S'LGW'
p574
ssa(dp575
g3
(dp576
sg5
S'request'
p577
sg7
(dp578
g9
S'CTU'
p579
sg11
I1
sg12
I2
sg13
I4
sg14
I01
sg15
S'SZX'
p580
ssa(dp581
g3
(dp582
sg5
S'request'
p583
sg7
(dp584
g9
S'YYZ'
p585
sg11
I1
sg12
I4
sg13
I4
sg14
I00
sg15
S'LGW'
p586
ssa(dp587
g3
(dp588
sg5
S'request'
p589
sg7
(dp590
g9
S'YYZ'
p591
sg11
I0
sg12
I4
sg13
I5
sg14
I01
sg15
S'SYD'
p592
ssa(dp593
g3
(dp594
sg5
S'request'
p595
sg7
(dp596
g9
S'BOM'
p597
sg11
I0
sg12
I2
sg13
I3
sg14
I01
sg15
S'LGW'
p598
ssa(dp599
g3
(dp600
sg5
S'request'
p601
sg7
(dp602
g9
S'YYZ'
p603
sg11
I1
sg12
I1
sg13
I5
sg14
I01
sg15
S'MCO'
p604
ssa(dp605
g3
(dp606
sg5
S'request'
p607
sg7
(dp608
g9
S'CTU'
p609
sg11
I2
sg12
I3
sg13
I6
sg14
I00
sg15
S'SHA'
p610
ssa.